(dp1
S'output'
p2
S"<type 'exceptions.SyntaxError'> invalid syntax (index.html, line 37)"
p3
sS'layer'
p4
S'/home/shaz/Documents/Development/web2py/applications/FormalSignUp/views/default/index.html'
p5
sS'code'
p6
S'response.write(\'<!DOCTYPE html>\\n<html lang="en">\\n  <head>\\n    <meta charset="utf-8">\\n    <title>Rude Apps</title>\\n    <meta name="description" content="">\\n    <meta name="author" content="">\\n\\n    <!-- Le HTML5 shim, for IE6-8 support of HTML elements -->\\n    <!--[if lt IE 9]>\\n      <script src="http://html5shim.googlecode.com/svn/trunk/html5.js"></script>\\n    <![endif]-->\\n\\n    <!-- Le styles -->\\n\\n      \', escape=False)\nresponse.files.append(URL(\'static\',\'css/bootstrap.css\'))\nresponse.files.append(URL(\'static\',\'css/custom.css\'))\nresponse.files.append(URL(\'static\',\'css/superfish.css\'))\nresponse.files.append(URL(\'static\',\'js/superfish.js\'))\nresponse.files.append(URL(\'static\',\'js/superfish.js\'))\nresponse.files.append(URL(\'static\',\'js/bootstrap-transition.js\'))\nresponse.files.append(URL(\'static\',\'js/bootstrap-alert.js\'))\nresponse.files.append(URL(\'static\',\'js/bootstrap-modal.js\'))\nresponse.files.append(URL(\'static\',\'js/bootstrap-dropdown.js\'))\nresponse.files.append(URL(\'static\',\'js/bootstrap-tab.js.js\'))\nresponse.files.append(URL(\'static\',\'js/bootstrap-popover.js\'))\nresponse.files.append(URL(\'static\',\'js/bootstrap-button.js\'))\nresponse.files.append(URL(\'static\',\'js/bootstrap-collapse.js\'))\nresponse.files.append(URL(\'static\',\'js/bootstrap-carousel.js\'))\nresponse.files.append(URL(\'static\',\'js/bootstrap-typeahead.js\'))\nresponse.write(\'\\n\\n  \', escape=False)\nresponse.write(\'<script type="text/javascript"><!--\\n    // These variables are used by the web2py_ajax_init function in web2py_ajax.js (which is loaded below).\\n    var w2p_ajax_confirm_message = "\', escape=False)\nresponse.write(T(\'Are you sure you want to delete this object?\'))\nresponse.write(\'";\\n    var w2p_ajax_date_format = "\', escape=False)\nresponse.write(T(\'%Y-%m-%d\'))\nresponse.write(\'";\\n    var w2p_ajax_datetime_format = "\', escape=False)\nresponse.write(T(\'%Y-%m-%d %H:%M:%S\'))\nresponse.write(\'";\\n    //--></script>\\n\', escape=False)\nresponse.files.insert(0,URL(\'static\',\'js/jquery.js\'))\nresponse.files.insert(1,URL(\'static\',\'css/calendar.css\'))\nresponse.files.insert(2,URL(\'static\',\'js/calendar.js\'))\nresponse.files.insert(3,URL(\'static\',\'js/web2py.js\'))\nresponse.include_meta()\nresponse.include_files()\nresponse.write(\'\\n\', escape=False)\nresponse.write(\'\\n\\n    <!-- <link href="css/bootstrap.css" rel="stylesheet">\\n    <link href="css/custom.css" rel="stylesheet">\\n    <link href="css/bootstrap-responsive.css" rel="stylesheet"> -->\\n    <style>\\n    body{\\n      padding-top:62px;\\n    }\\n\\n    div.row small{\\n      padding-left: 22px;\\n      color:#eee;\\n      text-decoration:bold;\\n    }\\n    </style>\\n\\n  </head>\\n\\n  <body>\\n\\n    <div class="container">\\n\\n\\n      <div class="row">\\n\\n        <div class="span6 offset3">\\n\\n          <div class="row">\\n                <small></small><a class="btn btn-small pull-right" href="/logout">\\n            <i class="icon-off"></i>&nbsp;Logout</a>\\n          </div>\\n          <div class="well shadow nav-pad">\\n                \', escape=False)\nresponse.write(\'\\n<h2>Current Formals</h2>\\n\\n<hr />\\n<div class="row">\\n  <div class="span4">\\n    <h3>FORMAL 1</h3>\\n  </div>\\n  <div class="span1">\\n   <!--  <% if @f_places > 0 %>\\n      <button class="btn btn-success" data-toggle="modal" href="#commitModal">Available!</button>\\n    <% else %>\\n      <button class="btn btn-danger" data-toggle="modal" href="#sorryModal">It\\\'s&nbsp;Full!</button>\\n    <% end %> -->\\n  </div>\\n</div>\\n<p><span class="label label-warning">Opens at</span>&nbsp;SIGNUP DATETIME</p>\\n<br />\\n\\n\', escape=False)\nfor formal in formals:\n    response.write(\'\\n\', escape=False)\n    response.write(\'\'\'<div class="row">\\n  <div class="span4">\\n    <h3>FORMAL 1</h3>\\n  </div>\\n  <div class="span1">\\n   <!--  <% if @f_places > 0 %>\\n      <button class="btn btn-success" data-toggle="modal" href="#commitModal">Available!</button>\\n    <% else %>\\n      <button class="btn btn-danger" data-toggle="modal" href="#sorryModal">It\'s&nbsp;Full!</button>\\n    <% end %> -->\\n  </div>\\n</div>\\n<p><span class="label label-warning">Opens at</span>&nbsp;SIGNUP DATETIME</p>\\n<br />\'\'\',escape=False\n    response.write(\'\\n\', escape=False)\n    pass\nresponse.write(\'\\n\\n<div class="row">\\n  <div class="span4">\\n    <h3>FORMAL 2</h3>\\n  </div>\\n  <div class="span1">\\n   <!--  <% if @f_places > 0 %>\\n      <button class="btn btn-success" data-toggle="modal" href="#commitModal">Available!</button>\\n    <% else %>\\n      <button class="btn btn-danger" data-toggle="modal" href="#sorryModal">It\\\'s&nbsp;Full!</button>\\n    <% end %> -->\\n  </div>\\n</div>\\n<p><span class="label label-warning">Opens at</span>&nbsp;SIGNUP DATETIME</p>\\n<br />\\n\\n<!-- MODALS -->\\n  <!-- #commitModal -->\\n    <div class="modal hide fade" id="commitModal">\\n      <div class="modal-header">\\n        <a class="close" data-dismiss="modal">\\xc3\\x97</a>\\n        <h3>FORMAL DATE</h3>\\n      </div>\\n      <div class="modal-body">\\n        <h4>FORMAL_PLACES_NUMBER places left!</h4>\\n        <br />\\n        <strong>are you ready for a commitment?</strong>\\n        <br />\\n        <p>Sign up opens at <strong>SIGNUP DATETIME</strong>.</p>\\n      </div>\\n      <div class="modal-footer">\\n        <a href="#" class="btn btn-success">Commit</a>\\n        <a href="#" class="btn btn-warning" data-dismiss="modal">Cancel</a>\\n      </div>\\n    </div>\\n  <!-- END #commitModal -->\\n  \\n  <!-- #sorryModal -->\\n    <div class="modal hide fade" id="sorryModal">\\n      <div class="modal-header">\\n        <a class="close" data-dismiss="modal">\\xc3\\x97</a>\\n        <h3>sorry...</h3>\\n      </div>\\n      <div class="modal-body">\\n        <strong><em>you\\\'re too late!</em></strong>\\n      </div>\\n      <div class="modal-footer">\\n        <a href="#" class="btn" data-dismiss="modal">Close</a>\\n      </div>\\n    </div>\\n  <!-- END #sorryModal -->\\n\\n<br />\\n</div>\', escape=False)\nresponse.write(\'\\n          </div>\\n        </div>\\n\\n\\n        <footer>\\n        <p>Designed and developed by <a href="http://twitter.com/yewchoontay">@yewchoontay</a> and <a href="http://twitter.com/khan_shezad">@khan_shezad</a>.</p>\\n      </footer>\\n\\n    </div> <!-- /container -->\\n\\n    <!-- Le javascript\\n    ================================================== -->\\n    <!-- Placed at the end of the document so the pages load faster -->\\n    // <script src="https://ajax.googleapis.com/ajax/libs/jquery/1.7.1/jquery.min.js"></script>\\n    <!-- // <script src="js/bootstrap-transition.js"></script>\\n    // <script src="js/bootstrap-alert.js"></script>\\n    // <script src="js/bootstrap-modal.js"></script>\\n    // <script src="js/bootstrap-dropdown.js"></script>\\n    // <script src="js/bootstrap-scrollspy.js"></script>\\n    // <script src="js/bootstrap-tab.js"></script>\\n    // <script src="js/bootstrap-tooltip.js"></script>\\n    // <script src="js/bootstrap-popover.js"></script>\\n    // <script src="js/bootstrap-button.js"></script>\\n    // <script src="js/bootstrap-collapse.js"></script>\\n    // <script src="js/bootstrap-carousel.js"></script>\\n    // <script src="js/bootstrap-typeahead.js"></script> -->\\n\\n    <!-- \', escape=False)\nresponse.files.append(URL(\'static\',\'js/superfish.js\'))\nresponse.files.append(URL(\'static\',\'js/bootstrap-transition.js\'))\nresponse.files.append(URL(\'static\',\'js/bootstrap-alert.js\'))\nresponse.files.append(URL(\'static\',\'js/bootstrap-modal.js\'))\nresponse.files.append(URL(\'static\',\'js/bootstrap-dropdown.js\'))\nresponse.files.append(URL(\'static\',\'js/bootstrap-tab.js.js\'))\nresponse.files.append(URL(\'static\',\'js/bootstrap-popover.js\'))\nresponse.files.append(URL(\'static\',\'js/bootstrap-button.js\'))\nresponse.files.append(URL(\'static\',\'js/bootstrap-collapse.js\'))\nresponse.files.append(URL(\'static\',\'js/bootstrap-carousel.js\'))\nresponse.files.append(URL(\'static\',\'js/bootstrap-typeahead.js\'))\nresponse.write(\' -->\\n\\n  </body>\\n</html>\\n\', escape=False)'
p7
sS'snapshot'
p8
(dp9
S'exception'
p10
(dp11
S'__getslice__'
p12
S"<method-wrapper '__getslice__' of exceptions.SyntaxError object>"
p13
sS'text'
p14
S'"    response.write(\'\\\\n\', escape=False)\\n"'
p15
sS'__str__'
p16
S"<method-wrapper '__str__' of exceptions.SyntaxError object>"
p17
sS'__reduce__'
p18
S'<built-in method __reduce__ of exceptions.SyntaxError object>'
p19
sS'__dict__'
p20
S'{}'
p21
sS'__sizeof__'
p22
S'<built-in method __sizeof__ of exceptions.SyntaxError object>'
p23
sS'__init__'
p24
S"<method-wrapper '__init__' of exceptions.SyntaxError object>"
p25
sS'__setattr__'
p26
S"<method-wrapper '__setattr__' of exceptions.SyntaxError object>"
p27
sS'__reduce_ex__'
p28
S'<built-in method __reduce_ex__ of exceptions.SyntaxError object>'
p29
sS'__new__'
p30
S'<built-in method __new__ of type object>'
p31
sS'__format__'
p32
S'<built-in method __format__ of exceptions.SyntaxError object>'
p33
sS'__class__'
p34
S"<type 'exceptions.SyntaxError'>"
p35
sS'filename'
p36
S"'/home/shaz/Documents/Development/web2py/applications/FormalSignUp/views/default/index.html'"
p37
sS'lineno'
p38
S'37'
p39
sS'msg'
p40
S"'invalid syntax'"
p41
sS'__doc__'
p42
S"'Invalid syntax.'"
p43
sS'__getitem__'
p44
S"<method-wrapper '__getitem__' of exceptions.SyntaxError object>"
p45
sS'__setstate__'
p46
S'<built-in method __setstate__ of exceptions.SyntaxError object>'
p47
sS'__getattribute__'
p48
S"<method-wrapper '__getattribute__' of exceptions.SyntaxError object>"
p49
sS'print_file_and_line'
p50
S'None'
p51
sS'args'
p52
S'(\'invalid syntax\', (\'/home/shaz/Documents/Development/web2py/applications/FormalSignUp/views/default/index.html\', 37, 12, "    response.write(\'\\\\n\', escape=False)\\n"))'
p53
sS'__subclasshook__'
p54
S'<built-in method __subclasshook__ of type object>'
p55
sS'offset'
p56
S'12'
p57
sS'__unicode__'
p58
S'<built-in method __unicode__ of exceptions.SyntaxError object>'
p59
sS'__delattr__'
p60
S"<method-wrapper '__delattr__' of exceptions.SyntaxError object>"
p61
sS'__repr__'
p62
S"<method-wrapper '__repr__' of exceptions.SyntaxError object>"
p63
sS'__hash__'
p64
S"<method-wrapper '__hash__' of exceptions.SyntaxError object>"
p65
ssS'evalue'
p66
S'invalid syntax (index.html, line 37)'
p67
sS'request'
p68
ccopy_reg
_reconstructor
p69
(cgluon.html
BEAUTIFY
p70
c__builtin__
object
p71
NtRp72
(dp73
S'attributes'
p74
(dp75
sS'components'
p76
(lp77
g69
(cgluon.html
TABLE
p78
g71
NtRp79
(dp80
g74
(dp81
S'level'
p82
I5
ssS'parent'
p83
Nsg76
(lp84
g69
(cgluon.html
TR
p85
g71
NtRp86
(dp87
g74
(dp88
sg83
g79
sg76
(lp89
g69
(cgluon.html
TD
p90
g71
NtRp91
(dp92
g74
(dp93
S'_style'
p94
S'font-weight:bold;vertical-align:top'
p95
ssg83
g86
sg76
(lp96
S'ajax'
p97
asbag69
(g90
g71
NtRp98
(dp99
g74
(dp100
S'_valign'
p101
S'top'
p102
ssg83
g86
sg76
(lp103
S':'
asbag69
(g90
g71
NtRp104
(dp105
g74
(dp106
sg83
g86
sg76
(lp107
g69
(g70
g71
NtRp108
(dp109
g74
(dp110
g82
I5
ssg83
g104
sg76
(lp111
S'False'
p112
asbasbasbag69
(g85
g71
NtRp113
(dp114
g74
(dp115
sg83
g79
sg76
(lp116
g69
(g90
g71
NtRp117
(dp118
g74
(dp119
g94
g95
ssg83
g113
sg76
(lp120
S'application'
p121
asbag69
(g90
g71
NtRp122
(dp123
g74
(dp124
g101
g102
ssg83
g113
sg76
(lp125
S':'
asbag69
(g90
g71
NtRp126
(dp127
g74
(dp128
sg83
g113
sg76
(lp129
g69
(g70
g71
NtRp130
(dp131
g74
(dp132
g82
I5
ssg83
g126
sg76
(lp133
S'FormalSignUp'
p134
asbasbasbag69
(g85
g71
NtRp135
(dp136
g74
(dp137
sg83
g79
sg76
(lp138
g69
(g90
g71
NtRp139
(dp140
g74
(dp141
g94
g95
ssg83
g135
sg76
(lp142
g52
asbag69
(g90
g71
NtRp143
(dp144
g74
(dp145
g101
g102
ssg83
g135
sg76
(lp146
S':'
asbag69
(g90
g71
NtRp147
(dp148
g74
(dp149
sg83
g135
sg76
(lp150
g69
(g70
g71
NtRp151
(dp152
g74
(dp153
g82
I5
ssg83
g147
sg76
(lp154
g69
(g78
g71
NtRp155
(dp156
g74
(dp157
g82
I4
ssg83
Nsg76
(lp158
sbasbasbasbag69
(g85
g71
NtRp159
(dp160
g74
(dp161
sg83
g79
sg76
(lp162
g69
(g90
g71
NtRp163
(dp164
g74
(dp165
g94
g95
ssg83
g159
sg76
(lp166
S'body'
p167
asbag69
(g90
g71
NtRp168
(dp169
g74
(dp170
g101
g102
ssg83
g159
sg76
(lp171
S':'
asbag69
(g90
g71
NtRp172
(dp173
g74
(dp174
sg83
g159
sg76
(lp175
g69
(g70
g71
NtRp176
(dp177
g74
(dp178
g82
I5
ssg83
g172
sg76
(lp179
S'<cStringIO.StringO object at 0xa445520>'
p180
asbasbasbag69
(g85
g71
NtRp181
(dp182
g74
(dp183
sg83
g79
sg76
(lp184
g69
(g90
g71
NtRp185
(dp186
g74
(dp187
g94
g95
ssg83
g181
sg76
(lp188
S'client'
p189
asbag69
(g90
g71
NtRp190
(dp191
g74
(dp192
g101
g102
ssg83
g181
sg76
(lp193
S':'
asbag69
(g90
g71
NtRp194
(dp195
g74
(dp196
sg83
g181
sg76
(lp197
g69
(g70
g71
NtRp198
(dp199
g74
(dp200
g82
I5
ssg83
g194
sg76
(lp201
S'127.0.0.1'
p202
asbasbasbag69
(g85
g71
NtRp203
(dp204
g74
(dp205
sg83
g79
sg76
(lp206
g69
(g90
g71
NtRp207
(dp208
g74
(dp209
g94
g95
ssg83
g203
sg76
(lp210
S'controller'
p211
asbag69
(g90
g71
NtRp212
(dp213
g74
(dp214
g101
g102
ssg83
g203
sg76
(lp215
S':'
asbag69
(g90
g71
NtRp216
(dp217
g74
(dp218
sg83
g203
sg76
(lp219
g69
(g70
g71
NtRp220
(dp221
g74
(dp222
g82
I5
ssg83
g216
sg76
(lp223
S'default'
p224
asbasbasbag69
(g85
g71
NtRp225
(dp226
g74
(dp227
sg83
g79
sg76
(lp228
g69
(g90
g71
NtRp229
(dp230
g74
(dp231
g94
g95
ssg83
g225
sg76
(lp232
S'cookies'
p233
asbag69
(g90
g71
NtRp234
(dp235
g74
(dp236
g101
g102
ssg83
g225
sg76
(lp237
S':'
asbag69
(g90
g71
NtRp238
(dp239
g74
(dp240
sg83
g225
sg76
(lp241
g69
(g70
g71
NtRp242
(dp243
g74
(dp244
g82
I5
ssg83
g238
sg76
(lp245
g69
(g78
g71
NtRp246
(dp247
g74
(dp248
g82
I4
ssg83
Nsg76
(lp249
g69
(g85
g71
NtRp250
(dp251
g74
(dp252
sg83
g246
sg76
(lp253
g69
(g90
g71
NtRp254
(dp255
g74
(dp256
g94
g95
ssg83
g250
sg76
(lp257
S'session_id_admin'
p258
asbag69
(g90
g71
NtRp259
(dp260
g74
(dp261
g101
g102
ssg83
g250
sg76
(lp262
S':'
asbag69
(g90
g71
NtRp263
(dp264
g74
(dp265
sg83
g250
sg76
(lp266
g69
(g70
g71
NtRp267
(dp268
g74
(dp269
g82
I4
ssg83
g263
sg76
(lp270
g69
(g78
g71
NtRp271
(dp272
g74
(dp273
g82
I3
ssg83
Nsg76
(lp274
g69
(g85
g71
NtRp275
(dp276
g74
(dp277
sg83
g271
sg76
(lp278
g69
(g90
g71
NtRp279
(dp280
g74
(dp281
g94
g95
ssg83
g275
sg76
(lp282
S'comment'
p283
asbag69
(g90
g71
NtRp284
(dp285
g74
(dp286
g101
g102
ssg83
g275
sg76
(lp287
S':'
asbag69
(g90
g71
NtRp288
(dp289
g74
(dp290
sg83
g275
sg76
(lp291
g69
(g70
g71
NtRp292
(dp293
g74
(dp294
g82
I3
ssg83
g288
sg76
(lp295
S''
asbasbasbag69
(g85
g71
NtRp296
(dp297
g74
(dp298
sg83
g271
sg76
(lp299
g69
(g90
g71
NtRp300
(dp301
g74
(dp302
g94
g95
ssg83
g296
sg76
(lp303
S'domain'
p304
asbag69
(g90
g71
NtRp305
(dp306
g74
(dp307
g101
g102
ssg83
g296
sg76
(lp308
S':'
asbag69
(g90
g71
NtRp309
(dp310
g74
(dp311
sg83
g296
sg76
(lp312
g69
(g70
g71
NtRp313
(dp314
g74
(dp315
g82
I3
ssg83
g309
sg76
(lp316
S''
asbasbasbag69
(g85
g71
NtRp317
(dp318
g74
(dp319
sg83
g271
sg76
(lp320
g69
(g90
g71
NtRp321
(dp322
g74
(dp323
g94
g95
ssg83
g317
sg76
(lp324
S'expires'
p325
asbag69
(g90
g71
NtRp326
(dp327
g74
(dp328
g101
g102
ssg83
g317
sg76
(lp329
S':'
asbag69
(g90
g71
NtRp330
(dp331
g74
(dp332
sg83
g317
sg76
(lp333
g69
(g70
g71
NtRp334
(dp335
g74
(dp336
g82
I3
ssg83
g330
sg76
(lp337
S''
asbasbasbag69
(g85
g71
NtRp338
(dp339
g74
(dp340
sg83
g271
sg76
(lp341
g69
(g90
g71
NtRp342
(dp343
g74
(dp344
g94
g95
ssg83
g338
sg76
(lp345
S'httponly'
p346
asbag69
(g90
g71
NtRp347
(dp348
g74
(dp349
g101
g102
ssg83
g338
sg76
(lp350
S':'
asbag69
(g90
g71
NtRp351
(dp352
g74
(dp353
sg83
g338
sg76
(lp354
g69
(g70
g71
NtRp355
(dp356
g74
(dp357
g82
I3
ssg83
g351
sg76
(lp358
S''
asbasbasbag69
(g85
g71
NtRp359
(dp360
g74
(dp361
sg83
g271
sg76
(lp362
g69
(g90
g71
NtRp363
(dp364
g74
(dp365
g94
g95
ssg83
g359
sg76
(lp366
S'max-age'
p367
asbag69
(g90
g71
NtRp368
(dp369
g74
(dp370
g101
g102
ssg83
g359
sg76
(lp371
S':'
asbag69
(g90
g71
NtRp372
(dp373
g74
(dp374
sg83
g359
sg76
(lp375
g69
(g70
g71
NtRp376
(dp377
g74
(dp378
g82
I3
ssg83
g372
sg76
(lp379
S''
asbasbasbag69
(g85
g71
NtRp380
(dp381
g74
(dp382
sg83
g271
sg76
(lp383
g69
(g90
g71
NtRp384
(dp385
g74
(dp386
g94
g95
ssg83
g380
sg76
(lp387
S'path'
p388
asbag69
(g90
g71
NtRp389
(dp390
g74
(dp391
g101
g102
ssg83
g380
sg76
(lp392
S':'
asbag69
(g90
g71
NtRp393
(dp394
g74
(dp395
sg83
g380
sg76
(lp396
g69
(g70
g71
NtRp397
(dp398
g74
(dp399
g82
I3
ssg83
g393
sg76
(lp400
S''
asbasbasbag69
(g85
g71
NtRp401
(dp402
g74
(dp403
sg83
g271
sg76
(lp404
g69
(g90
g71
NtRp405
(dp406
g74
(dp407
g94
g95
ssg83
g401
sg76
(lp408
S'secure'
p409
asbag69
(g90
g71
NtRp410
(dp411
g74
(dp412
g101
g102
ssg83
g401
sg76
(lp413
S':'
asbag69
(g90
g71
NtRp414
(dp415
g74
(dp416
sg83
g401
sg76
(lp417
g69
(g70
g71
NtRp418
(dp419
g74
(dp420
g82
I3
ssg83
g414
sg76
(lp421
S''
asbasbasbag69
(g85
g71
NtRp422
(dp423
g74
(dp424
sg83
g271
sg76
(lp425
g69
(g90
g71
NtRp426
(dp427
g74
(dp428
g94
g95
ssg83
g422
sg76
(lp429
S'version'
p430
asbag69
(g90
g71
NtRp431
(dp432
g74
(dp433
g101
g102
ssg83
g422
sg76
(lp434
S':'
asbag69
(g90
g71
NtRp435
(dp436
g74
(dp437
sg83
g422
sg76
(lp438
g69
(g70
g71
NtRp439
(dp440
g74
(dp441
g82
I3
ssg83
g435
sg76
(lp442
S''
asbasbasbasbasbasbasbag69
(g85
g71
NtRp443
(dp444
g74
(dp445
sg83
g246
sg76
(lp446
g69
(g90
g71
NtRp447
(dp448
g74
(dp449
g94
g95
ssg83
g443
sg76
(lp450
S'session_id_formalsignup'
p451
asbag69
(g90
g71
NtRp452
(dp453
g74
(dp454
g101
g102
ssg83
g443
sg76
(lp455
S':'
asbag69
(g90
g71
NtRp456
(dp457
g74
(dp458
sg83
g443
sg76
(lp459
g69
(g70
g71
NtRp460
(dp461
g74
(dp462
g82
I4
ssg83
g456
sg76
(lp463
g69
(g78
g71
NtRp464
(dp465
g74
(dp466
g82
I3
ssg83
Nsg76
(lp467
g69
(g85
g71
NtRp468
(dp469
g74
(dp470
sg83
g464
sg76
(lp471
g69
(g90
g71
NtRp472
(dp473
g74
(dp474
g94
g95
ssg83
g468
sg76
(lp475
g283
asbag69
(g90
g71
NtRp476
(dp477
g74
(dp478
g101
g102
ssg83
g468
sg76
(lp479
S':'
asbag69
(g90
g71
NtRp480
(dp481
g74
(dp482
sg83
g468
sg76
(lp483
g69
(g70
g71
NtRp484
(dp485
g74
(dp486
g82
I3
ssg83
g480
sg76
(lp487
S''
asbasbasbag69
(g85
g71
NtRp488
(dp489
g74
(dp490
sg83
g464
sg76
(lp491
g69
(g90
g71
NtRp492
(dp493
g74
(dp494
g94
g95
ssg83
g488
sg76
(lp495
g304
asbag69
(g90
g71
NtRp496
(dp497
g74
(dp498
g101
g102
ssg83
g488
sg76
(lp499
S':'
asbag69
(g90
g71
NtRp500
(dp501
g74
(dp502
sg83
g488
sg76
(lp503
g69
(g70
g71
NtRp504
(dp505
g74
(dp506
g82
I3
ssg83
g500
sg76
(lp507
S''
asbasbasbag69
(g85
g71
NtRp508
(dp509
g74
(dp510
sg83
g464
sg76
(lp511
g69
(g90
g71
NtRp512
(dp513
g74
(dp514
g94
g95
ssg83
g508
sg76
(lp515
g325
asbag69
(g90
g71
NtRp516
(dp517
g74
(dp518
g101
g102
ssg83
g508
sg76
(lp519
S':'
asbag69
(g90
g71
NtRp520
(dp521
g74
(dp522
sg83
g508
sg76
(lp523
g69
(g70
g71
NtRp524
(dp525
g74
(dp526
g82
I3
ssg83
g520
sg76
(lp527
S''
asbasbasbag69
(g85
g71
NtRp528
(dp529
g74
(dp530
sg83
g464
sg76
(lp531
g69
(g90
g71
NtRp532
(dp533
g74
(dp534
g94
g95
ssg83
g528
sg76
(lp535
g346
asbag69
(g90
g71
NtRp536
(dp537
g74
(dp538
g101
g102
ssg83
g528
sg76
(lp539
S':'
asbag69
(g90
g71
NtRp540
(dp541
g74
(dp542
sg83
g528
sg76
(lp543
g69
(g70
g71
NtRp544
(dp545
g74
(dp546
g82
I3
ssg83
g540
sg76
(lp547
S''
asbasbasbag69
(g85
g71
NtRp548
(dp549
g74
(dp550
sg83
g464
sg76
(lp551
g69
(g90
g71
NtRp552
(dp553
g74
(dp554
g94
g95
ssg83
g548
sg76
(lp555
g367
asbag69
(g90
g71
NtRp556
(dp557
g74
(dp558
g101
g102
ssg83
g548
sg76
(lp559
S':'
asbag69
(g90
g71
NtRp560
(dp561
g74
(dp562
sg83
g548
sg76
(lp563
g69
(g70
g71
NtRp564
(dp565
g74
(dp566
g82
I3
ssg83
g560
sg76
(lp567
S''
asbasbasbag69
(g85
g71
NtRp568
(dp569
g74
(dp570
sg83
g464
sg76
(lp571
g69
(g90
g71
NtRp572
(dp573
g74
(dp574
g94
g95
ssg83
g568
sg76
(lp575
g388
asbag69
(g90
g71
NtRp576
(dp577
g74
(dp578
g101
g102
ssg83
g568
sg76
(lp579
S':'
asbag69
(g90
g71
NtRp580
(dp581
g74
(dp582
sg83
g568
sg76
(lp583
g69
(g70
g71
NtRp584
(dp585
g74
(dp586
g82
I3
ssg83
g580
sg76
(lp587
S''
asbasbasbag69
(g85
g71
NtRp588
(dp589
g74
(dp590
sg83
g464
sg76
(lp591
g69
(g90
g71
NtRp592
(dp593
g74
(dp594
g94
g95
ssg83
g588
sg76
(lp595
g409
asbag69
(g90
g71
NtRp596
(dp597
g74
(dp598
g101
g102
ssg83
g588
sg76
(lp599
S':'
asbag69
(g90
g71
NtRp600
(dp601
g74
(dp602
sg83
g588
sg76
(lp603
g69
(g70
g71
NtRp604
(dp605
g74
(dp606
g82
I3
ssg83
g600
sg76
(lp607
S''
asbasbasbag69
(g85
g71
NtRp608
(dp609
g74
(dp610
sg83
g464
sg76
(lp611
g69
(g90
g71
NtRp612
(dp613
g74
(dp614
g94
g95
ssg83
g608
sg76
(lp615
g430
asbag69
(g90
g71
NtRp616
(dp617
g74
(dp618
g101
g102
ssg83
g608
sg76
(lp619
S':'
asbag69
(g90
g71
NtRp620
(dp621
g74
(dp622
sg83
g608
sg76
(lp623
g69
(g70
g71
NtRp624
(dp625
g74
(dp626
g82
I3
ssg83
g620
sg76
(lp627
S''
asbasbasbasbasbasbasbasbasbasbasbag69
(g85
g71
NtRp628
(dp629
g74
(dp630
sg83
g79
sg76
(lp631
g69
(g90
g71
NtRp632
(dp633
g74
(dp634
g94
g95
ssg83
g628
sg76
(lp635
S'env'
p636
asbag69
(g90
g71
NtRp637
(dp638
g74
(dp639
g101
g102
ssg83
g628
sg76
(lp640
S':'
asbag69
(g90
g71
NtRp641
(dp642
g74
(dp643
sg83
g628
sg76
(lp644
g69
(g70
g71
NtRp645
(dp646
g74
(dp647
g82
I5
ssg83
g641
sg76
(lp648
g69
(g78
g71
NtRp649
(dp650
g74
(dp651
g82
I4
ssg83
Nsg76
(lp652
g69
(g85
g71
NtRp653
(dp654
g74
(dp655
sg83
g649
sg76
(lp656
g69
(g90
g71
NtRp657
(dp658
g74
(dp659
g94
g95
ssg83
g653
sg76
(lp660
S'app_folders'
p661
asbag69
(g90
g71
NtRp662
(dp663
g74
(dp664
g101
g102
ssg83
g653
sg76
(lp665
S':'
asbag69
(g90
g71
NtRp666
(dp667
g74
(dp668
sg83
g653
sg76
(lp669
g69
(g70
g71
NtRp670
(dp671
g74
(dp672
g82
I4
ssg83
g666
sg76
(lp673
S"set(['/home/shaz/Documents/Development/web2py/applications/FormalSignUp/', '/home/shaz/Documents/Development/web2py/applications/admin/'])"
p674
asbasbasbag69
(g85
g71
NtRp675
(dp676
g74
(dp677
sg83
g649
sg76
(lp678
g69
(g90
g71
NtRp679
(dp680
g74
(dp681
g94
g95
ssg83
g675
sg76
(lp682
S'applications_parent'
p683
asbag69
(g90
g71
NtRp684
(dp685
g74
(dp686
g101
g102
ssg83
g675
sg76
(lp687
S':'
asbag69
(g90
g71
NtRp688
(dp689
g74
(dp690
sg83
g675
sg76
(lp691
g69
(g70
g71
NtRp692
(dp693
g74
(dp694
g82
I4
ssg83
g688
sg76
(lp695
S'/home/shaz/Documents/Development/web2py'
p696
asbasbasbag69
(g85
g71
NtRp697
(dp698
g74
(dp699
sg83
g649
sg76
(lp700
g69
(g90
g71
NtRp701
(dp702
g74
(dp703
g94
g95
ssg83
g697
sg76
(lp704
S'cmd_args'
p705
asbag69
(g90
g71
NtRp706
(dp707
g74
(dp708
g101
g102
ssg83
g697
sg76
(lp709
S':'
asbag69
(g90
g71
NtRp710
(dp711
g74
(dp712
sg83
g697
sg76
(lp713
g69
(g70
g71
NtRp714
(dp715
g74
(dp716
g82
I4
ssg83
g710
sg76
(lp717
g69
(g78
g71
NtRp718
(dp719
g74
(dp720
g82
I3
ssg83
Nsg76
(lp721
sbasbasbasbag69
(g85
g71
NtRp722
(dp723
g74
(dp724
sg83
g649
sg76
(lp725
g69
(g90
g71
NtRp726
(dp727
g74
(dp728
g94
g95
ssg83
g722
sg76
(lp729
S'cmd_options'
p730
asbag69
(g90
g71
NtRp731
(dp732
g74
(dp733
g101
g102
ssg83
g722
sg76
(lp734
S':'
asbag69
(g90
g71
NtRp735
(dp736
g74
(dp737
sg83
g722
sg76
(lp738
g69
(g70
g71
NtRp739
(dp740
g74
(dp741
g82
I4
ssg83
g735
sg76
(lp742
S"<Values at 0x9f139ac: {'verbose': False, 'ip': '127.0.0.1', 'shutdown_timeout': 5, 'taskbar': False, 'nocron': False, 'pid_filename': 'httpserver.pid', 'maxthreads': None, 'softcron': False, 'server_name': 'ubuntu', 'bpython': False, 'nogui': False, 'port': 8000, 'extcron': False, 'debuglevel': 30, 'test': None, 'folder': '/home/shaz/Documents/Development/web2py', 'config': '', 'import_models': False, 'winservice': '', 'shell': None, 'run': '', 'log_filename': 'httpserver.log', 'args': [''], 'socket_timeout': 1, 'ssl_ca_certificate': None, 'scheduler': None, 'profiler_filename': None, 'ssl_private_key': '', 'password': 'shaz', 'request_queue_size': 5, 'ssl_certificate': '', 'cronjob': False, 'numthreads': None, 'quiet': False, 'interfaces': None, 'minthreads': None, 'timeout': 10, 'plain': False, 'nobanner': False}>"
p743
asbasbasbag69
(g85
g71
NtRp744
(dp745
g74
(dp746
sg83
g649
sg76
(lp747
g69
(g90
g71
NtRp748
(dp749
g74
(dp750
g94
g95
ssg83
g744
sg76
(lp751
S'db_sessions'
p752
asbag69
(g90
g71
NtRp753
(dp754
g74
(dp755
g101
g102
ssg83
g744
sg76
(lp756
S':'
asbag69
(g90
g71
NtRp757
(dp758
g74
(dp759
sg83
g744
sg76
(lp760
g69
(g70
g71
NtRp761
(dp762
g74
(dp763
g82
I4
ssg83
g757
sg76
(lp764
S'set([])'
p765
asbasbasbag69
(g85
g71
NtRp766
(dp767
g74
(dp768
sg83
g649
sg76
(lp769
g69
(g90
g71
NtRp770
(dp771
g74
(dp772
g94
g95
ssg83
g766
sg76
(lp773
S'debugging'
p774
asbag69
(g90
g71
NtRp775
(dp776
g74
(dp777
g101
g102
ssg83
g766
sg76
(lp778
S':'
asbag69
(g90
g71
NtRp779
(dp780
g74
(dp781
sg83
g766
sg76
(lp782
g69
(g70
g71
NtRp783
(dp784
g74
(dp785
g82
I4
ssg83
g779
sg76
(lp786
g112
asbasbasbag69
(g85
g71
NtRp787
(dp788
g74
(dp789
sg83
g649
sg76
(lp790
g69
(g90
g71
NtRp791
(dp792
g74
(dp793
g94
g95
ssg83
g787
sg76
(lp794
S'gluon_parent'
p795
asbag69
(g90
g71
NtRp796
(dp797
g74
(dp798
g101
g102
ssg83
g787
sg76
(lp799
S':'
asbag69
(g90
g71
NtRp800
(dp801
g74
(dp802
sg83
g787
sg76
(lp803
g69
(g70
g71
NtRp804
(dp805
g74
(dp806
g82
I4
ssg83
g800
sg76
(lp807
S'/home/shaz/Documents/Development/web2py'
p808
asbasbasbag69
(g85
g71
NtRp809
(dp810
g74
(dp811
sg83
g649
sg76
(lp812
g69
(g90
g71
NtRp813
(dp814
g74
(dp815
g94
g95
ssg83
g809
sg76
(lp816
S'http_accept'
p817
asbag69
(g90
g71
NtRp818
(dp819
g74
(dp820
g101
g102
ssg83
g809
sg76
(lp821
S':'
asbag69
(g90
g71
NtRp822
(dp823
g74
(dp824
sg83
g809
sg76
(lp825
g69
(g70
g71
NtRp826
(dp827
g74
(dp828
g82
I4
ssg83
g822
sg76
(lp829
S'text/html,application/xhtml+xml,application/xml;q=0.9,*/*;q=0.8'
p830
asbasbasbag69
(g85
g71
NtRp831
(dp832
g74
(dp833
sg83
g649
sg76
(lp834
g69
(g90
g71
NtRp835
(dp836
g74
(dp837
g94
g95
ssg83
g831
sg76
(lp838
S'http_accept_charset'
p839
asbag69
(g90
g71
NtRp840
(dp841
g74
(dp842
g101
g102
ssg83
g831
sg76
(lp843
S':'
asbag69
(g90
g71
NtRp844
(dp845
g74
(dp846
sg83
g831
sg76
(lp847
g69
(g70
g71
NtRp848
(dp849
g74
(dp850
g82
I4
ssg83
g844
sg76
(lp851
S'ISO-8859-1,utf-8;q=0.7,*;q=0.3'
p852
asbasbasbag69
(g85
g71
NtRp853
(dp854
g74
(dp855
sg83
g649
sg76
(lp856
g69
(g90
g71
NtRp857
(dp858
g74
(dp859
g94
g95
ssg83
g853
sg76
(lp860
S'http_accept_encoding'
p861
asbag69
(g90
g71
NtRp862
(dp863
g74
(dp864
g101
g102
ssg83
g853
sg76
(lp865
S':'
asbag69
(g90
g71
NtRp866
(dp867
g74
(dp868
sg83
g853
sg76
(lp869
g69
(g70
g71
NtRp870
(dp871
g74
(dp872
g82
I4
ssg83
g866
sg76
(lp873
S'gzip,deflate,sdch'
p874
asbasbasbag69
(g85
g71
NtRp875
(dp876
g74
(dp877
sg83
g649
sg76
(lp878
g69
(g90
g71
NtRp879
(dp880
g74
(dp881
g94
g95
ssg83
g875
sg76
(lp882
S'http_accept_language'
p883
asbag69
(g90
g71
NtRp884
(dp885
g74
(dp886
g101
g102
ssg83
g875
sg76
(lp887
S':'
asbag69
(g90
g71
NtRp888
(dp889
g74
(dp890
sg83
g875
sg76
(lp891
g69
(g70
g71
NtRp892
(dp893
g74
(dp894
g82
I4
ssg83
g888
sg76
(lp895
S'en-GB,en-US;q=0.8,en;q=0.6'
p896
asbasbasbag69
(g85
g71
NtRp897
(dp898
g74
(dp899
sg83
g649
sg76
(lp900
g69
(g90
g71
NtRp901
(dp902
g74
(dp903
g94
g95
ssg83
g897
sg76
(lp904
S'http_cache_control'
p905
asbag69
(g90
g71
NtRp906
(dp907
g74
(dp908
g101
g102
ssg83
g897
sg76
(lp909
S':'
asbag69
(g90
g71
NtRp910
(dp911
g74
(dp912
sg83
g897
sg76
(lp913
g69
(g70
g71
NtRp914
(dp915
g74
(dp916
g82
I4
ssg83
g910
sg76
(lp917
S'max-age=0'
p918
asbasbasbag69
(g85
g71
NtRp919
(dp920
g74
(dp921
sg83
g649
sg76
(lp922
g69
(g90
g71
NtRp923
(dp924
g74
(dp925
g94
g95
ssg83
g919
sg76
(lp926
S'http_connection'
p927
asbag69
(g90
g71
NtRp928
(dp929
g74
(dp930
g101
g102
ssg83
g919
sg76
(lp931
S':'
asbag69
(g90
g71
NtRp932
(dp933
g74
(dp934
sg83
g919
sg76
(lp935
g69
(g70
g71
NtRp936
(dp937
g74
(dp938
g82
I4
ssg83
g932
sg76
(lp939
S'keep-alive'
p940
asbasbasbag69
(g85
g71
NtRp941
(dp942
g74
(dp943
sg83
g649
sg76
(lp944
g69
(g90
g71
NtRp945
(dp946
g74
(dp947
g94
g95
ssg83
g941
sg76
(lp948
S'http_cookie'
p949
asbag69
(g90
g71
NtRp950
(dp951
g74
(dp952
g101
g102
ssg83
g941
sg76
(lp953
S':'
asbag69
(g90
g71
NtRp954
(dp955
g74
(dp956
sg83
g941
sg76
(lp957
g69
(g70
g71
NtRp958
(dp959
g74
(dp960
g82
I4
ssg83
g954
sg76
(lp961
S'session_id_formalsignup=127.0.0.1-8e485235-b1a7-4d7c-ac78-8aa950c2fff5; session_id_admin=127.0.0.1-05e68f38-e3ee-49d0-ab24-22a5d9feb01f'
p962
asbasbasbag69
(g85
g71
NtRp963
(dp964
g74
(dp965
sg83
g649
sg76
(lp966
g69
(g90
g71
NtRp967
(dp968
g74
(dp969
g94
g95
ssg83
g963
sg76
(lp970
S'http_host'
p971
asbag69
(g90
g71
NtRp972
(dp973
g74
(dp974
g101
g102
ssg83
g963
sg76
(lp975
S':'
asbag69
(g90
g71
NtRp976
(dp977
g74
(dp978
sg83
g963
sg76
(lp979
g69
(g70
g71
NtRp980
(dp981
g74
(dp982
g82
I4
ssg83
g976
sg76
(lp983
S'127.0.0.1:8000'
p984
asbasbasbag69
(g85
g71
NtRp985
(dp986
g74
(dp987
sg83
g649
sg76
(lp988
g69
(g90
g71
NtRp989
(dp990
g74
(dp991
g94
g95
ssg83
g985
sg76
(lp992
S'http_user_agent'
p993
asbag69
(g90
g71
NtRp994
(dp995
g74
(dp996
g101
g102
ssg83
g985
sg76
(lp997
S':'
asbag69
(g90
g71
NtRp998
(dp999
g74
(dp1000
sg83
g985
sg76
(lp1001
g69
(g70
g71
NtRp1002
(dp1003
g74
(dp1004
g82
I4
ssg83
g998
sg76
(lp1005
S'Mozilla/5.0 (X11; Linux i686) AppleWebKit/535.11 (KHTML, like Gecko) Chrome/17.0.963.56 Safari/535.11'
p1006
asbasbasbag69
(g85
g71
NtRp1007
(dp1008
g74
(dp1009
sg83
g649
sg76
(lp1010
g69
(g90
g71
NtRp1011
(dp1012
g74
(dp1013
g94
g95
ssg83
g1007
sg76
(lp1014
S'is_jython'
p1015
asbag69
(g90
g71
NtRp1016
(dp1017
g74
(dp1018
g101
g102
ssg83
g1007
sg76
(lp1019
S':'
asbag69
(g90
g71
NtRp1020
(dp1021
g74
(dp1022
sg83
g1007
sg76
(lp1023
g69
(g70
g71
NtRp1024
(dp1025
g74
(dp1026
g82
I4
ssg83
g1020
sg76
(lp1027
g112
asbasbasbag69
(g85
g71
NtRp1028
(dp1029
g74
(dp1030
sg83
g649
sg76
(lp1031
g69
(g90
g71
NtRp1032
(dp1033
g74
(dp1034
g94
g95
ssg83
g1028
sg76
(lp1035
S'is_pypy'
p1036
asbag69
(g90
g71
NtRp1037
(dp1038
g74
(dp1039
g101
g102
ssg83
g1028
sg76
(lp1040
S':'
asbag69
(g90
g71
NtRp1041
(dp1042
g74
(dp1043
sg83
g1028
sg76
(lp1044
g69
(g70
g71
NtRp1045
(dp1046
g74
(dp1047
g82
I4
ssg83
g1041
sg76
(lp1048
g112
asbasbasbag69
(g85
g71
NtRp1049
(dp1050
g74
(dp1051
sg83
g649
sg76
(lp1052
g69
(g90
g71
NtRp1053
(dp1054
g74
(dp1055
g94
g95
ssg83
g1049
sg76
(lp1056
S'path_info'
p1057
asbag69
(g90
g71
NtRp1058
(dp1059
g74
(dp1060
g101
g102
ssg83
g1049
sg76
(lp1061
S':'
asbag69
(g90
g71
NtRp1062
(dp1063
g74
(dp1064
sg83
g1049
sg76
(lp1065
g69
(g70
g71
NtRp1066
(dp1067
g74
(dp1068
g82
I4
ssg83
g1062
sg76
(lp1069
S'/FormalSignUp/'
p1070
asbasbasbag69
(g85
g71
NtRp1071
(dp1072
g74
(dp1073
sg83
g649
sg76
(lp1074
g69
(g90
g71
NtRp1075
(dp1076
g74
(dp1077
g94
g95
ssg83
g1071
sg76
(lp1078
S'query_string'
p1079
asbag69
(g90
g71
NtRp1080
(dp1081
g74
(dp1082
g101
g102
ssg83
g1071
sg76
(lp1083
S':'
asbag69
(g90
g71
NtRp1084
(dp1085
g74
(dp1086
sg83
g1071
sg76
(lp1087
g69
(g70
g71
NtRp1088
(dp1089
g74
(dp1090
g82
I4
ssg83
g1084
sg76
(lp1091
S''
asbasbasbag69
(g85
g71
NtRp1092
(dp1093
g74
(dp1094
sg83
g649
sg76
(lp1095
g69
(g90
g71
NtRp1096
(dp1097
g74
(dp1098
g94
g95
ssg83
g1092
sg76
(lp1099
S'remote_addr'
p1100
asbag69
(g90
g71
NtRp1101
(dp1102
g74
(dp1103
g101
g102
ssg83
g1092
sg76
(lp1104
S':'
asbag69
(g90
g71
NtRp1105
(dp1106
g74
(dp1107
sg83
g1092
sg76
(lp1108
g69
(g70
g71
NtRp1109
(dp1110
g74
(dp1111
g82
I4
ssg83
g1105
sg76
(lp1112
g202
asbasbasbag69
(g85
g71
NtRp1113
(dp1114
g74
(dp1115
sg83
g649
sg76
(lp1116
g69
(g90
g71
NtRp1117
(dp1118
g74
(dp1119
g94
g95
ssg83
g1113
sg76
(lp1120
S'remote_port'
p1121
asbag69
(g90
g71
NtRp1122
(dp1123
g74
(dp1124
g101
g102
ssg83
g1113
sg76
(lp1125
S':'
asbag69
(g90
g71
NtRp1126
(dp1127
g74
(dp1128
sg83
g1113
sg76
(lp1129
g69
(g70
g71
NtRp1130
(dp1131
g74
(dp1132
g82
I4
ssg83
g1126
sg76
(lp1133
S'53921'
p1134
asbasbasbag69
(g85
g71
NtRp1135
(dp1136
g74
(dp1137
sg83
g649
sg76
(lp1138
g69
(g90
g71
NtRp1139
(dp1140
g74
(dp1141
g94
g95
ssg83
g1135
sg76
(lp1142
S'request_method'
p1143
asbag69
(g90
g71
NtRp1144
(dp1145
g74
(dp1146
g101
g102
ssg83
g1135
sg76
(lp1147
S':'
asbag69
(g90
g71
NtRp1148
(dp1149
g74
(dp1150
sg83
g1135
sg76
(lp1151
g69
(g70
g71
NtRp1152
(dp1153
g74
(dp1154
g82
I4
ssg83
g1148
sg76
(lp1155
S'GET'
p1156
asbasbasbag69
(g85
g71
NtRp1157
(dp1158
g74
(dp1159
sg83
g649
sg76
(lp1160
g69
(g90
g71
NtRp1161
(dp1162
g74
(dp1163
g94
g95
ssg83
g1157
sg76
(lp1164
S'script_name'
p1165
asbag69
(g90
g71
NtRp1166
(dp1167
g74
(dp1168
g101
g102
ssg83
g1157
sg76
(lp1169
S':'
asbag69
(g90
g71
NtRp1170
(dp1171
g74
(dp1172
sg83
g1157
sg76
(lp1173
g69
(g70
g71
NtRp1174
(dp1175
g74
(dp1176
g82
I4
ssg83
g1170
sg76
(lp1177
S''
asbasbasbag69
(g85
g71
NtRp1178
(dp1179
g74
(dp1180
sg83
g649
sg76
(lp1181
g69
(g90
g71
NtRp1182
(dp1183
g74
(dp1184
g94
g95
ssg83
g1178
sg76
(lp1185
S'server_name'
p1186
asbag69
(g90
g71
NtRp1187
(dp1188
g74
(dp1189
g101
g102
ssg83
g1178
sg76
(lp1190
S':'
asbag69
(g90
g71
NtRp1191
(dp1192
g74
(dp1193
sg83
g1178
sg76
(lp1194
g69
(g70
g71
NtRp1195
(dp1196
g74
(dp1197
g82
I4
ssg83
g1191
sg76
(lp1198
S'ubuntu'
p1199
asbasbasbag69
(g85
g71
NtRp1200
(dp1201
g74
(dp1202
sg83
g649
sg76
(lp1203
g69
(g90
g71
NtRp1204
(dp1205
g74
(dp1206
g94
g95
ssg83
g1200
sg76
(lp1207
S'server_port'
p1208
asbag69
(g90
g71
NtRp1209
(dp1210
g74
(dp1211
g101
g102
ssg83
g1200
sg76
(lp1212
S':'
asbag69
(g90
g71
NtRp1213
(dp1214
g74
(dp1215
sg83
g1200
sg76
(lp1216
g69
(g70
g71
NtRp1217
(dp1218
g74
(dp1219
g82
I4
ssg83
g1213
sg76
(lp1220
S'8000'
p1221
asbasbasbag69
(g85
g71
NtRp1222
(dp1223
g74
(dp1224
sg83
g649
sg76
(lp1225
g69
(g90
g71
NtRp1226
(dp1227
g74
(dp1228
g94
g95
ssg83
g1222
sg76
(lp1229
S'server_protocol'
p1230
asbag69
(g90
g71
NtRp1231
(dp1232
g74
(dp1233
g101
g102
ssg83
g1222
sg76
(lp1234
S':'
asbag69
(g90
g71
NtRp1235
(dp1236
g74
(dp1237
sg83
g1222
sg76
(lp1238
g69
(g70
g71
NtRp1239
(dp1240
g74
(dp1241
g82
I4
ssg83
g1235
sg76
(lp1242
S'HTTP/1.1'
p1243
asbasbasbag69
(g85
g71
NtRp1244
(dp1245
g74
(dp1246
sg83
g649
sg76
(lp1247
g69
(g90
g71
NtRp1248
(dp1249
g74
(dp1250
g94
g95
ssg83
g1244
sg76
(lp1251
S'server_software'
p1252
asbag69
(g90
g71
NtRp1253
(dp1254
g74
(dp1255
g101
g102
ssg83
g1244
sg76
(lp1256
S':'
asbag69
(g90
g71
NtRp1257
(dp1258
g74
(dp1259
sg83
g1244
sg76
(lp1260
g69
(g70
g71
NtRp1261
(dp1262
g74
(dp1263
g82
I4
ssg83
g1257
sg76
(lp1264
S'Rocket 1.2.4'
p1265
asbasbasbag69
(g85
g71
NtRp1266
(dp1267
g74
(dp1268
sg83
g649
sg76
(lp1269
g69
(g90
g71
NtRp1270
(dp1271
g74
(dp1272
g94
g95
ssg83
g1266
sg76
(lp1273
S'web2py_crontype'
p1274
asbag69
(g90
g71
NtRp1275
(dp1276
g74
(dp1277
g101
g102
ssg83
g1266
sg76
(lp1278
S':'
asbag69
(g90
g71
NtRp1279
(dp1280
g74
(dp1281
sg83
g1266
sg76
(lp1282
g69
(g70
g71
NtRp1283
(dp1284
g74
(dp1285
g82
I4
ssg83
g1279
sg76
(lp1286
S'hard'
p1287
asbasbasbag69
(g85
g71
NtRp1288
(dp1289
g74
(dp1290
sg83
g649
sg76
(lp1291
g69
(g90
g71
NtRp1292
(dp1293
g74
(dp1294
g94
g95
ssg83
g1288
sg76
(lp1295
S'web2py_path'
p1296
asbag69
(g90
g71
NtRp1297
(dp1298
g74
(dp1299
g101
g102
ssg83
g1288
sg76
(lp1300
S':'
asbag69
(g90
g71
NtRp1301
(dp1302
g74
(dp1303
sg83
g1288
sg76
(lp1304
g69
(g70
g71
NtRp1305
(dp1306
g74
(dp1307
g82
I4
ssg83
g1301
sg76
(lp1308
g696
asbasbasbag69
(g85
g71
NtRp1309
(dp1310
g74
(dp1311
sg83
g649
sg76
(lp1312
g69
(g90
g71
NtRp1313
(dp1314
g74
(dp1315
g94
g95
ssg83
g1309
sg76
(lp1316
S'web2py_version'
p1317
asbag69
(g90
g71
NtRp1318
(dp1319
g74
(dp1320
g101
g102
ssg83
g1309
sg76
(lp1321
S':'
asbag69
(g90
g71
NtRp1322
(dp1323
g74
(dp1324
sg83
g1309
sg76
(lp1325
g69
(g70
g71
NtRp1326
(dp1327
g74
(dp1328
g82
I4
ssg83
g1322
sg76
(lp1329
g69
(g78
g71
NtRp1330
(dp1331
g74
(dp1332
g82
I3
ssg83
Nsg76
(lp1333
g69
(g85
g71
NtRp1334
(dp1335
g74
(dp1336
sg83
g1330
sg76
(lp1337
g69
(g90
g71
NtRp1338
(dp1339
g74
(dp1340
sg83
g1334
sg76
(lp1341
g69
(g70
g71
NtRp1342
(dp1343
g74
(dp1344
g82
I3
ssg83
g1338
sg76
(lp1345
S'1'
asbasbasbag69
(g85
g71
NtRp1346
(dp1347
g74
(dp1348
sg83
g1330
sg76
(lp1349
g69
(g90
g71
NtRp1350
(dp1351
g74
(dp1352
sg83
g1346
sg76
(lp1353
g69
(g70
g71
NtRp1354
(dp1355
g74
(dp1356
g82
I3
ssg83
g1350
sg76
(lp1357
S'99'
p1358
asbasbasbag69
(g85
g71
NtRp1359
(dp1360
g74
(dp1361
sg83
g1330
sg76
(lp1362
g69
(g90
g71
NtRp1363
(dp1364
g74
(dp1365
sg83
g1359
sg76
(lp1366
g69
(g70
g71
NtRp1367
(dp1368
g74
(dp1369
g82
I3
ssg83
g1363
sg76
(lp1370
S'4'
asbasbasbag69
(g85
g71
NtRp1371
(dp1372
g74
(dp1373
sg83
g1330
sg76
(lp1374
g69
(g90
g71
NtRp1375
(dp1376
g74
(dp1377
sg83
g1371
sg76
(lp1378
g69
(g70
g71
NtRp1379
(dp1380
g74
(dp1381
g82
I3
ssg83
g1375
sg76
(lp1382
S'datetime.datetime(2011, 12, 14, 14, 46, 14)'
p1383
asbasbasbag69
(g85
g71
NtRp1384
(dp1385
g74
(dp1386
sg83
g1330
sg76
(lp1387
g69
(g90
g71
NtRp1388
(dp1389
g74
(dp1390
sg83
g1384
sg76
(lp1391
g69
(g70
g71
NtRp1392
(dp1393
g74
(dp1394
g82
I3
ssg83
g1388
sg76
(lp1395
S'stable'
p1396
asbasbasbasbasbasbasbag69
(g85
g71
NtRp1397
(dp1398
g74
(dp1399
sg83
g649
sg76
(lp1400
g69
(g90
g71
NtRp1401
(dp1402
g74
(dp1403
g94
g95
ssg83
g1397
sg76
(lp1404
S'wsgi_errors'
p1405
asbag69
(g90
g71
NtRp1406
(dp1407
g74
(dp1408
g101
g102
ssg83
g1397
sg76
(lp1409
S':'
asbag69
(g90
g71
NtRp1410
(dp1411
g74
(dp1412
sg83
g1397
sg76
(lp1413
g69
(g70
g71
NtRp1414
(dp1415
g74
(dp1416
g82
I4
ssg83
g1410
sg76
(lp1417
S"<open file '<stderr>', mode 'w' at 0xb731e0d0>"
p1418
asbasbasbag69
(g85
g71
NtRp1419
(dp1420
g74
(dp1421
sg83
g649
sg76
(lp1422
g69
(g90
g71
NtRp1423
(dp1424
g74
(dp1425
g94
g95
ssg83
g1419
sg76
(lp1426
S'wsgi_file_wrapper'
p1427
asbag69
(g90
g71
NtRp1428
(dp1429
g74
(dp1430
g101
g102
ssg83
g1419
sg76
(lp1431
S':'
asbag69
(g90
g71
NtRp1432
(dp1433
g74
(dp1434
sg83
g1419
sg76
(lp1435
g69
(g70
g71
NtRp1436
(dp1437
g74
(dp1438
g82
I4
ssg83
g1432
sg76
(lp1439
S'<class wsgiref.util.FileWrapper at 0x9ebe2cc>'
p1440
asbasbasbag69
(g85
g71
NtRp1441
(dp1442
g74
(dp1443
sg83
g649
sg76
(lp1444
g69
(g90
g71
NtRp1445
(dp1446
g74
(dp1447
g94
g95
ssg83
g1441
sg76
(lp1448
S'wsgi_input'
p1449
asbag69
(g90
g71
NtRp1450
(dp1451
g74
(dp1452
g101
g102
ssg83
g1441
sg76
(lp1453
S':'
asbag69
(g90
g71
NtRp1454
(dp1455
g74
(dp1456
sg83
g1441
sg76
(lp1457
g69
(g70
g71
NtRp1458
(dp1459
g74
(dp1460
g82
I4
ssg83
g1454
sg76
(lp1461
S'<socket._fileobject object at 0xa3be2ac>'
p1462
asbasbasbag69
(g85
g71
NtRp1463
(dp1464
g74
(dp1465
sg83
g649
sg76
(lp1466
g69
(g90
g71
NtRp1467
(dp1468
g74
(dp1469
g94
g95
ssg83
g1463
sg76
(lp1470
S'wsgi_multiprocess'
p1471
asbag69
(g90
g71
NtRp1472
(dp1473
g74
(dp1474
g101
g102
ssg83
g1463
sg76
(lp1475
S':'
asbag69
(g90
g71
NtRp1476
(dp1477
g74
(dp1478
sg83
g1463
sg76
(lp1479
g69
(g70
g71
NtRp1480
(dp1481
g74
(dp1482
g82
I4
ssg83
g1476
sg76
(lp1483
g112
asbasbasbag69
(g85
g71
NtRp1484
(dp1485
g74
(dp1486
sg83
g649
sg76
(lp1487
g69
(g90
g71
NtRp1488
(dp1489
g74
(dp1490
g94
g95
ssg83
g1484
sg76
(lp1491
S'wsgi_multithread'
p1492
asbag69
(g90
g71
NtRp1493
(dp1494
g74
(dp1495
g101
g102
ssg83
g1484
sg76
(lp1496
S':'
asbag69
(g90
g71
NtRp1497
(dp1498
g74
(dp1499
sg83
g1484
sg76
(lp1500
g69
(g70
g71
NtRp1501
(dp1502
g74
(dp1503
g82
I4
ssg83
g1497
sg76
(lp1504
S'True'
p1505
asbasbasbag69
(g85
g71
NtRp1506
(dp1507
g74
(dp1508
sg83
g649
sg76
(lp1509
g69
(g90
g71
NtRp1510
(dp1511
g74
(dp1512
g94
g95
ssg83
g1506
sg76
(lp1513
S'wsgi_run_once'
p1514
asbag69
(g90
g71
NtRp1515
(dp1516
g74
(dp1517
g101
g102
ssg83
g1506
sg76
(lp1518
S':'
asbag69
(g90
g71
NtRp1519
(dp1520
g74
(dp1521
sg83
g1506
sg76
(lp1522
g69
(g70
g71
NtRp1523
(dp1524
g74
(dp1525
g82
I4
ssg83
g1519
sg76
(lp1526
g112
asbasbasbag69
(g85
g71
NtRp1527
(dp1528
g74
(dp1529
sg83
g649
sg76
(lp1530
g69
(g90
g71
NtRp1531
(dp1532
g74
(dp1533
g94
g95
ssg83
g1527
sg76
(lp1534
S'wsgi_url_scheme'
p1535
asbag69
(g90
g71
NtRp1536
(dp1537
g74
(dp1538
g101
g102
ssg83
g1527
sg76
(lp1539
S':'
asbag69
(g90
g71
NtRp1540
(dp1541
g74
(dp1542
sg83
g1527
sg76
(lp1543
g69
(g70
g71
NtRp1544
(dp1545
g74
(dp1546
g82
I4
ssg83
g1540
sg76
(lp1547
S'http'
p1548
asbasbasbag69
(g85
g71
NtRp1549
(dp1550
g74
(dp1551
sg83
g649
sg76
(lp1552
g69
(g90
g71
NtRp1553
(dp1554
g74
(dp1555
g94
g95
ssg83
g1549
sg76
(lp1556
S'wsgi_version'
p1557
asbag69
(g90
g71
NtRp1558
(dp1559
g74
(dp1560
g101
g102
ssg83
g1549
sg76
(lp1561
S':'
asbag69
(g90
g71
NtRp1562
(dp1563
g74
(dp1564
sg83
g1549
sg76
(lp1565
g69
(g70
g71
NtRp1566
(dp1567
g74
(dp1568
g82
I4
ssg83
g1562
sg76
(lp1569
g69
(g78
g71
NtRp1570
(dp1571
g74
(dp1572
g82
I3
ssg83
Nsg76
(lp1573
g69
(g85
g71
NtRp1574
(dp1575
g74
(dp1576
sg83
g1570
sg76
(lp1577
g69
(g90
g71
NtRp1578
(dp1579
g74
(dp1580
sg83
g1574
sg76
(lp1581
g69
(g70
g71
NtRp1582
(dp1583
g74
(dp1584
g82
I3
ssg83
g1578
sg76
(lp1585
S'1'
asbasbasbag69
(g85
g71
NtRp1586
(dp1587
g74
(dp1588
sg83
g1570
sg76
(lp1589
g69
(g90
g71
NtRp1590
(dp1591
g74
(dp1592
sg83
g1586
sg76
(lp1593
g69
(g70
g71
NtRp1594
(dp1595
g74
(dp1596
g82
I3
ssg83
g1590
sg76
(lp1597
S'0'
asbasbasbasbasbasbasbasbasbasbasbag69
(g85
g71
NtRp1598
(dp1599
g74
(dp1600
sg83
g79
sg76
(lp1601
g69
(g90
g71
NtRp1602
(dp1603
g74
(dp1604
g94
g95
ssg83
g1598
sg76
(lp1605
S'extension'
p1606
asbag69
(g90
g71
NtRp1607
(dp1608
g74
(dp1609
g101
g102
ssg83
g1598
sg76
(lp1610
S':'
asbag69
(g90
g71
NtRp1611
(dp1612
g74
(dp1613
sg83
g1598
sg76
(lp1614
g69
(g70
g71
NtRp1615
(dp1616
g74
(dp1617
g82
I5
ssg83
g1611
sg76
(lp1618
S'html'
p1619
asbasbasbag69
(g85
g71
NtRp1620
(dp1621
g74
(dp1622
sg83
g79
sg76
(lp1623
g69
(g90
g71
NtRp1624
(dp1625
g74
(dp1626
g94
g95
ssg83
g1620
sg76
(lp1627
S'folder'
p1628
asbag69
(g90
g71
NtRp1629
(dp1630
g74
(dp1631
g101
g102
ssg83
g1620
sg76
(lp1632
S':'
asbag69
(g90
g71
NtRp1633
(dp1634
g74
(dp1635
sg83
g1620
sg76
(lp1636
g69
(g70
g71
NtRp1637
(dp1638
g74
(dp1639
g82
I5
ssg83
g1633
sg76
(lp1640
S'/home/shaz/Documents/Development/web2py/applications/FormalSignUp/'
p1641
asbasbasbag69
(g85
g71
NtRp1642
(dp1643
g74
(dp1644
sg83
g79
sg76
(lp1645
g69
(g90
g71
NtRp1646
(dp1647
g74
(dp1648
g94
g95
ssg83
g1642
sg76
(lp1649
S'function'
p1650
asbag69
(g90
g71
NtRp1651
(dp1652
g74
(dp1653
g101
g102
ssg83
g1642
sg76
(lp1654
S':'
asbag69
(g90
g71
NtRp1655
(dp1656
g74
(dp1657
sg83
g1642
sg76
(lp1658
g69
(g70
g71
NtRp1659
(dp1660
g74
(dp1661
g82
I5
ssg83
g1655
sg76
(lp1662
S'index'
p1663
asbasbasbag69
(g85
g71
NtRp1664
(dp1665
g74
(dp1666
sg83
g79
sg76
(lp1667
g69
(g90
g71
NtRp1668
(dp1669
g74
(dp1670
g94
g95
ssg83
g1664
sg76
(lp1671
S'get_vars'
p1672
asbag69
(g90
g71
NtRp1673
(dp1674
g74
(dp1675
g101
g102
ssg83
g1664
sg76
(lp1676
S':'
asbag69
(g90
g71
NtRp1677
(dp1678
g74
(dp1679
sg83
g1664
sg76
(lp1680
g69
(g70
g71
NtRp1681
(dp1682
g74
(dp1683
g82
I5
ssg83
g1677
sg76
(lp1684
g69
(g78
g71
NtRp1685
(dp1686
g74
(dp1687
g82
I4
ssg83
Nsg76
(lp1688
sbasbasbasbag69
(g85
g71
NtRp1689
(dp1690
g74
(dp1691
sg83
g79
sg76
(lp1692
g69
(g90
g71
NtRp1693
(dp1694
g74
(dp1695
g94
g95
ssg83
g1689
sg76
(lp1696
S'global_settings'
p1697
asbag69
(g90
g71
NtRp1698
(dp1699
g74
(dp1700
g101
g102
ssg83
g1689
sg76
(lp1701
S':'
asbag69
(g90
g71
NtRp1702
(dp1703
g74
(dp1704
sg83
g1689
sg76
(lp1705
g69
(g70
g71
NtRp1706
(dp1707
g74
(dp1708
g82
I5
ssg83
g1702
sg76
(lp1709
g69
(g78
g71
NtRp1710
(dp1711
g74
(dp1712
g82
I4
ssg83
Nsg76
(lp1713
g69
(g85
g71
NtRp1714
(dp1715
g74
(dp1716
sg83
g1710
sg76
(lp1717
g69
(g90
g71
NtRp1718
(dp1719
g74
(dp1720
g94
g95
ssg83
g1714
sg76
(lp1721
g661
asbag69
(g90
g71
NtRp1722
(dp1723
g74
(dp1724
g101
g102
ssg83
g1714
sg76
(lp1725
S':'
asbag69
(g90
g71
NtRp1726
(dp1727
g74
(dp1728
sg83
g1714
sg76
(lp1729
g69
(g70
g71
NtRp1730
(dp1731
g74
(dp1732
g82
I4
ssg83
g1726
sg76
(lp1733
S"set(['/home/shaz/Documents/Development/web2py/applications/FormalSignUp/', '/home/shaz/Documents/Development/web2py/applications/admin/'])"
p1734
asbasbasbag69
(g85
g71
NtRp1735
(dp1736
g74
(dp1737
sg83
g1710
sg76
(lp1738
g69
(g90
g71
NtRp1739
(dp1740
g74
(dp1741
g94
g95
ssg83
g1735
sg76
(lp1742
g683
asbag69
(g90
g71
NtRp1743
(dp1744
g74
(dp1745
g101
g102
ssg83
g1735
sg76
(lp1746
S':'
asbag69
(g90
g71
NtRp1747
(dp1748
g74
(dp1749
sg83
g1735
sg76
(lp1750
g69
(g70
g71
NtRp1751
(dp1752
g74
(dp1753
g82
I4
ssg83
g1747
sg76
(lp1754
g696
asbasbasbag69
(g85
g71
NtRp1755
(dp1756
g74
(dp1757
sg83
g1710
sg76
(lp1758
g69
(g90
g71
NtRp1759
(dp1760
g74
(dp1761
g94
g95
ssg83
g1755
sg76
(lp1762
g705
asbag69
(g90
g71
NtRp1763
(dp1764
g74
(dp1765
g101
g102
ssg83
g1755
sg76
(lp1766
S':'
asbag69
(g90
g71
NtRp1767
(dp1768
g74
(dp1769
sg83
g1755
sg76
(lp1770
g69
(g70
g71
NtRp1771
(dp1772
g74
(dp1773
g82
I4
ssg83
g1767
sg76
(lp1774
g69
(g78
g71
NtRp1775
(dp1776
g74
(dp1777
g82
I3
ssg83
Nsg76
(lp1778
sbasbasbasbag69
(g85
g71
NtRp1779
(dp1780
g74
(dp1781
sg83
g1710
sg76
(lp1782
g69
(g90
g71
NtRp1783
(dp1784
g74
(dp1785
g94
g95
ssg83
g1779
sg76
(lp1786
g730
asbag69
(g90
g71
NtRp1787
(dp1788
g74
(dp1789
g101
g102
ssg83
g1779
sg76
(lp1790
S':'
asbag69
(g90
g71
NtRp1791
(dp1792
g74
(dp1793
sg83
g1779
sg76
(lp1794
g69
(g70
g71
NtRp1795
(dp1796
g74
(dp1797
g82
I4
ssg83
g1791
sg76
(lp1798
S"<Values at 0x9f139ac: {'verbose': False, 'ip': '127.0.0.1', 'shutdown_timeout': 5, 'taskbar': False, 'nocron': False, 'pid_filename': 'httpserver.pid', 'maxthreads': None, 'softcron': False, 'server_name': 'ubuntu', 'bpython': False, 'nogui': False, 'port': 8000, 'extcron': False, 'debuglevel': 30, 'test': None, 'folder': '/home/shaz/Documents/Development/web2py', 'config': '', 'import_models': False, 'winservice': '', 'shell': None, 'run': '', 'log_filename': 'httpserver.log', 'args': [''], 'socket_timeout': 1, 'ssl_ca_certificate': None, 'scheduler': None, 'profiler_filename': None, 'ssl_private_key': '', 'password': 'shaz', 'request_queue_size': 5, 'ssl_certificate': '', 'cronjob': False, 'numthreads': None, 'quiet': False, 'interfaces': None, 'minthreads': None, 'timeout': 10, 'plain': False, 'nobanner': False}>"
p1799
asbasbasbag69
(g85
g71
NtRp1800
(dp1801
g74
(dp1802
sg83
g1710
sg76
(lp1803
g69
(g90
g71
NtRp1804
(dp1805
g74
(dp1806
g94
g95
ssg83
g1800
sg76
(lp1807
g752
asbag69
(g90
g71
NtRp1808
(dp1809
g74
(dp1810
g101
g102
ssg83
g1800
sg76
(lp1811
S':'
asbag69
(g90
g71
NtRp1812
(dp1813
g74
(dp1814
sg83
g1800
sg76
(lp1815
g69
(g70
g71
NtRp1816
(dp1817
g74
(dp1818
g82
I4
ssg83
g1812
sg76
(lp1819
S'set([])'
p1820
asbasbasbag69
(g85
g71
NtRp1821
(dp1822
g74
(dp1823
sg83
g1710
sg76
(lp1824
g69
(g90
g71
NtRp1825
(dp1826
g74
(dp1827
g94
g95
ssg83
g1821
sg76
(lp1828
g774
asbag69
(g90
g71
NtRp1829
(dp1830
g74
(dp1831
g101
g102
ssg83
g1821
sg76
(lp1832
S':'
asbag69
(g90
g71
NtRp1833
(dp1834
g74
(dp1835
sg83
g1821
sg76
(lp1836
g69
(g70
g71
NtRp1837
(dp1838
g74
(dp1839
g82
I4
ssg83
g1833
sg76
(lp1840
g112
asbasbasbag69
(g85
g71
NtRp1841
(dp1842
g74
(dp1843
sg83
g1710
sg76
(lp1844
g69
(g90
g71
NtRp1845
(dp1846
g74
(dp1847
g94
g95
ssg83
g1841
sg76
(lp1848
g795
asbag69
(g90
g71
NtRp1849
(dp1850
g74
(dp1851
g101
g102
ssg83
g1841
sg76
(lp1852
S':'
asbag69
(g90
g71
NtRp1853
(dp1854
g74
(dp1855
sg83
g1841
sg76
(lp1856
g69
(g70
g71
NtRp1857
(dp1858
g74
(dp1859
g82
I4
ssg83
g1853
sg76
(lp1860
g808
asbasbasbag69
(g85
g71
NtRp1861
(dp1862
g74
(dp1863
sg83
g1710
sg76
(lp1864
g69
(g90
g71
NtRp1865
(dp1866
g74
(dp1867
g94
g95
ssg83
g1861
sg76
(lp1868
g1015
asbag69
(g90
g71
NtRp1869
(dp1870
g74
(dp1871
g101
g102
ssg83
g1861
sg76
(lp1872
S':'
asbag69
(g90
g71
NtRp1873
(dp1874
g74
(dp1875
sg83
g1861
sg76
(lp1876
g69
(g70
g71
NtRp1877
(dp1878
g74
(dp1879
g82
I4
ssg83
g1873
sg76
(lp1880
g112
asbasbasbag69
(g85
g71
NtRp1881
(dp1882
g74
(dp1883
sg83
g1710
sg76
(lp1884
g69
(g90
g71
NtRp1885
(dp1886
g74
(dp1887
g94
g95
ssg83
g1881
sg76
(lp1888
g1036
asbag69
(g90
g71
NtRp1889
(dp1890
g74
(dp1891
g101
g102
ssg83
g1881
sg76
(lp1892
S':'
asbag69
(g90
g71
NtRp1893
(dp1894
g74
(dp1895
sg83
g1881
sg76
(lp1896
g69
(g70
g71
NtRp1897
(dp1898
g74
(dp1899
g82
I4
ssg83
g1893
sg76
(lp1900
g112
asbasbasbag69
(g85
g71
NtRp1901
(dp1902
g74
(dp1903
sg83
g1710
sg76
(lp1904
g69
(g90
g71
NtRp1905
(dp1906
g74
(dp1907
g94
g95
ssg83
g1901
sg76
(lp1908
g1274
asbag69
(g90
g71
NtRp1909
(dp1910
g74
(dp1911
g101
g102
ssg83
g1901
sg76
(lp1912
S':'
asbag69
(g90
g71
NtRp1913
(dp1914
g74
(dp1915
sg83
g1901
sg76
(lp1916
g69
(g70
g71
NtRp1917
(dp1918
g74
(dp1919
g82
I4
ssg83
g1913
sg76
(lp1920
g1287
asbasbasbag69
(g85
g71
NtRp1921
(dp1922
g74
(dp1923
sg83
g1710
sg76
(lp1924
g69
(g90
g71
NtRp1925
(dp1926
g74
(dp1927
g94
g95
ssg83
g1921
sg76
(lp1928
g1317
asbag69
(g90
g71
NtRp1929
(dp1930
g74
(dp1931
g101
g102
ssg83
g1921
sg76
(lp1932
S':'
asbag69
(g90
g71
NtRp1933
(dp1934
g74
(dp1935
sg83
g1921
sg76
(lp1936
g69
(g70
g71
NtRp1937
(dp1938
g74
(dp1939
g82
I4
ssg83
g1933
sg76
(lp1940
g69
(g78
g71
NtRp1941
(dp1942
g74
(dp1943
g82
I3
ssg83
Nsg76
(lp1944
g69
(g85
g71
NtRp1945
(dp1946
g74
(dp1947
sg83
g1941
sg76
(lp1948
g69
(g90
g71
NtRp1949
(dp1950
g74
(dp1951
sg83
g1945
sg76
(lp1952
g69
(g70
g71
NtRp1953
(dp1954
g74
(dp1955
g82
I3
ssg83
g1949
sg76
(lp1956
S'1'
asbasbasbag69
(g85
g71
NtRp1957
(dp1958
g74
(dp1959
sg83
g1941
sg76
(lp1960
g69
(g90
g71
NtRp1961
(dp1962
g74
(dp1963
sg83
g1957
sg76
(lp1964
g69
(g70
g71
NtRp1965
(dp1966
g74
(dp1967
g82
I3
ssg83
g1961
sg76
(lp1968
S'99'
p1969
asbasbasbag69
(g85
g71
NtRp1970
(dp1971
g74
(dp1972
sg83
g1941
sg76
(lp1973
g69
(g90
g71
NtRp1974
(dp1975
g74
(dp1976
sg83
g1970
sg76
(lp1977
g69
(g70
g71
NtRp1978
(dp1979
g74
(dp1980
g82
I3
ssg83
g1974
sg76
(lp1981
S'4'
asbasbasbag69
(g85
g71
NtRp1982
(dp1983
g74
(dp1984
sg83
g1941
sg76
(lp1985
g69
(g90
g71
NtRp1986
(dp1987
g74
(dp1988
sg83
g1982
sg76
(lp1989
g69
(g70
g71
NtRp1990
(dp1991
g74
(dp1992
g82
I3
ssg83
g1986
sg76
(lp1993
S'datetime.datetime(2011, 12, 14, 14, 46, 14)'
p1994
asbasbasbag69
(g85
g71
NtRp1995
(dp1996
g74
(dp1997
sg83
g1941
sg76
(lp1998
g69
(g90
g71
NtRp1999
(dp2000
g74
(dp2001
sg83
g1995
sg76
(lp2002
g69
(g70
g71
NtRp2003
(dp2004
g74
(dp2005
g82
I3
ssg83
g1999
sg76
(lp2006
g1396
asbasbasbasbasbasbasbasbasbasbasbag69
(g85
g71
NtRp2007
(dp2008
g74
(dp2009
sg83
g79
sg76
(lp2010
g69
(g90
g71
NtRp2011
(dp2012
g74
(dp2013
g94
g95
ssg83
g2007
sg76
(lp2014
S'is_https'
p2015
asbag69
(g90
g71
NtRp2016
(dp2017
g74
(dp2018
g101
g102
ssg83
g2007
sg76
(lp2019
S':'
asbag69
(g90
g71
NtRp2020
(dp2021
g74
(dp2022
sg83
g2007
sg76
(lp2023
g69
(g70
g71
NtRp2024
(dp2025
g74
(dp2026
g82
I5
ssg83
g2020
sg76
(lp2027
g112
asbasbasbag69
(g85
g71
NtRp2028
(dp2029
g74
(dp2030
sg83
g79
sg76
(lp2031
g69
(g90
g71
NtRp2032
(dp2033
g74
(dp2034
g94
g95
ssg83
g2028
sg76
(lp2035
S'is_local'
p2036
asbag69
(g90
g71
NtRp2037
(dp2038
g74
(dp2039
g101
g102
ssg83
g2028
sg76
(lp2040
S':'
asbag69
(g90
g71
NtRp2041
(dp2042
g74
(dp2043
sg83
g2028
sg76
(lp2044
g69
(g70
g71
NtRp2045
(dp2046
g74
(dp2047
g82
I5
ssg83
g2041
sg76
(lp2048
g1505
asbasbasbag69
(g85
g71
NtRp2049
(dp2050
g74
(dp2051
sg83
g79
sg76
(lp2052
g69
(g90
g71
NtRp2053
(dp2054
g74
(dp2055
g94
g95
ssg83
g2049
sg76
(lp2056
S'is_restful'
p2057
asbag69
(g90
g71
NtRp2058
(dp2059
g74
(dp2060
g101
g102
ssg83
g2049
sg76
(lp2061
S':'
asbag69
(g90
g71
NtRp2062
(dp2063
g74
(dp2064
sg83
g2049
sg76
(lp2065
g69
(g70
g71
NtRp2066
(dp2067
g74
(dp2068
g82
I5
ssg83
g2062
sg76
(lp2069
g112
asbasbasbag69
(g85
g71
NtRp2070
(dp2071
g74
(dp2072
sg83
g79
sg76
(lp2073
g69
(g90
g71
NtRp2074
(dp2075
g74
(dp2076
g94
g95
ssg83
g2070
sg76
(lp2077
S'now'
p2078
asbag69
(g90
g71
NtRp2079
(dp2080
g74
(dp2081
g101
g102
ssg83
g2070
sg76
(lp2082
S':'
asbag69
(g90
g71
NtRp2083
(dp2084
g74
(dp2085
sg83
g2070
sg76
(lp2086
g69
(g70
g71
NtRp2087
(dp2088
g74
(dp2089
g82
I5
ssg83
g2083
sg76
(lp2090
S'datetime.datetime(2012, 3, 1, 0, 55, 31, 32581)'
p2091
asbasbasbag69
(g85
g71
NtRp2092
(dp2093
g74
(dp2094
sg83
g79
sg76
(lp2095
g69
(g90
g71
NtRp2096
(dp2097
g74
(dp2098
g94
g95
ssg83
g2092
sg76
(lp2099
S'post_vars'
p2100
asbag69
(g90
g71
NtRp2101
(dp2102
g74
(dp2103
g101
g102
ssg83
g2092
sg76
(lp2104
S':'
asbag69
(g90
g71
NtRp2105
(dp2106
g74
(dp2107
sg83
g2092
sg76
(lp2108
g69
(g70
g71
NtRp2109
(dp2110
g74
(dp2111
g82
I5
ssg83
g2105
sg76
(lp2112
g69
(g78
g71
NtRp2113
(dp2114
g74
(dp2115
g82
I4
ssg83
Nsg76
(lp2116
sbasbasbasbag69
(g85
g71
NtRp2117
(dp2118
g74
(dp2119
sg83
g79
sg76
(lp2120
g69
(g90
g71
NtRp2121
(dp2122
g74
(dp2123
g94
g95
ssg83
g2117
sg76
(lp2124
S'url'
p2125
asbag69
(g90
g71
NtRp2126
(dp2127
g74
(dp2128
g101
g102
ssg83
g2117
sg76
(lp2129
S':'
asbag69
(g90
g71
NtRp2130
(dp2131
g74
(dp2132
sg83
g2117
sg76
(lp2133
g69
(g70
g71
NtRp2134
(dp2135
g74
(dp2136
g82
I5
ssg83
g2130
sg76
(lp2137
S'/FormalSignUp/default/index'
p2138
asbasbasbag69
(g85
g71
NtRp2139
(dp2140
g74
(dp2141
sg83
g79
sg76
(lp2142
g69
(g90
g71
NtRp2143
(dp2144
g74
(dp2145
g94
g95
ssg83
g2139
sg76
(lp2146
S'utcnow'
p2147
asbag69
(g90
g71
NtRp2148
(dp2149
g74
(dp2150
g101
g102
ssg83
g2139
sg76
(lp2151
S':'
asbag69
(g90
g71
NtRp2152
(dp2153
g74
(dp2154
sg83
g2139
sg76
(lp2155
g69
(g70
g71
NtRp2156
(dp2157
g74
(dp2158
g82
I5
ssg83
g2152
sg76
(lp2159
S'datetime.datetime(2012, 3, 1, 0, 55, 31, 32600)'
p2160
asbasbasbag69
(g85
g71
NtRp2161
(dp2162
g74
(dp2163
sg83
g79
sg76
(lp2164
g69
(g90
g71
NtRp2165
(dp2166
g74
(dp2167
g94
g95
ssg83
g2161
sg76
(lp2168
S'uuid'
p2169
asbag69
(g90
g71
NtRp2170
(dp2171
g74
(dp2172
g101
g102
ssg83
g2161
sg76
(lp2173
S':'
asbag69
(g90
g71
NtRp2174
(dp2175
g74
(dp2176
sg83
g2161
sg76
(lp2177
g69
(g70
g71
NtRp2178
(dp2179
g74
(dp2180
g82
I5
ssg83
g2174
sg76
(lp2181
S'FormalSignUp/127.0.0.1.2012-03-01.00-55-31.833d1cec-cca7-4c95-be87-4348d5b74f4d'
p2182
asbasbasbag69
(g85
g71
NtRp2183
(dp2184
g74
(dp2185
sg83
g79
sg76
(lp2186
g69
(g90
g71
NtRp2187
(dp2188
g74
(dp2189
g94
g95
ssg83
g2183
sg76
(lp2190
S'vars'
p2191
asbag69
(g90
g71
NtRp2192
(dp2193
g74
(dp2194
g101
g102
ssg83
g2183
sg76
(lp2195
S':'
asbag69
(g90
g71
NtRp2196
(dp2197
g74
(dp2198
sg83
g2183
sg76
(lp2199
g69
(g70
g71
NtRp2200
(dp2201
g74
(dp2202
g82
I5
ssg83
g2196
sg76
(lp2203
g69
(g78
g71
NtRp2204
(dp2205
g74
(dp2206
g82
I4
ssg83
Nsg76
(lp2207
sbasbasbasbag69
(g85
g71
NtRp2208
(dp2209
g74
(dp2210
sg83
g79
sg76
(lp2211
g69
(g90
g71
NtRp2212
(dp2213
g74
(dp2214
g94
g95
ssg83
g2208
sg76
(lp2215
S'wsgi'
p2216
asbag69
(g90
g71
NtRp2217
(dp2218
g74
(dp2219
g101
g102
ssg83
g2208
sg76
(lp2220
S':'
asbag69
(g90
g71
NtRp2221
(dp2222
g74
(dp2223
sg83
g2208
sg76
(lp2224
g69
(g70
g71
NtRp2225
(dp2226
g74
(dp2227
g82
I5
ssg83
g2221
sg76
(lp2228
g69
(g78
g71
NtRp2229
(dp2230
g74
(dp2231
g82
I4
ssg83
Nsg76
(lp2232
g69
(g85
g71
NtRp2233
(dp2234
g74
(dp2235
sg83
g2229
sg76
(lp2236
g69
(g90
g71
NtRp2237
(dp2238
g74
(dp2239
g94
g95
ssg83
g2233
sg76
(lp2240
S'environ'
p2241
asbag69
(g90
g71
NtRp2242
(dp2243
g74
(dp2244
g101
g102
ssg83
g2233
sg76
(lp2245
S':'
asbag69
(g90
g71
NtRp2246
(dp2247
g74
(dp2248
sg83
g2233
sg76
(lp2249
g69
(g70
g71
NtRp2250
(dp2251
g74
(dp2252
g82
I4
ssg83
g2246
sg76
(lp2253
g69
(g78
g71
NtRp2254
(dp2255
g74
(dp2256
g82
I3
ssg83
Nsg76
(lp2257
g69
(g85
g71
NtRp2258
(dp2259
g74
(dp2260
sg83
g2254
sg76
(lp2261
g69
(g90
g71
NtRp2262
(dp2263
g74
(dp2264
g94
g95
ssg83
g2258
sg76
(lp2265
S'HTTP_ACCEPT'
p2266
asbag69
(g90
g71
NtRp2267
(dp2268
g74
(dp2269
g101
g102
ssg83
g2258
sg76
(lp2270
S':'
asbag69
(g90
g71
NtRp2271
(dp2272
g74
(dp2273
sg83
g2258
sg76
(lp2274
g69
(g70
g71
NtRp2275
(dp2276
g74
(dp2277
g82
I3
ssg83
g2271
sg76
(lp2278
g830
asbasbasbag69
(g85
g71
NtRp2279
(dp2280
g74
(dp2281
sg83
g2254
sg76
(lp2282
g69
(g90
g71
NtRp2283
(dp2284
g74
(dp2285
g94
g95
ssg83
g2279
sg76
(lp2286
S'HTTP_ACCEPT_CHARSET'
p2287
asbag69
(g90
g71
NtRp2288
(dp2289
g74
(dp2290
g101
g102
ssg83
g2279
sg76
(lp2291
S':'
asbag69
(g90
g71
NtRp2292
(dp2293
g74
(dp2294
sg83
g2279
sg76
(lp2295
g69
(g70
g71
NtRp2296
(dp2297
g74
(dp2298
g82
I3
ssg83
g2292
sg76
(lp2299
g852
asbasbasbag69
(g85
g71
NtRp2300
(dp2301
g74
(dp2302
sg83
g2254
sg76
(lp2303
g69
(g90
g71
NtRp2304
(dp2305
g74
(dp2306
g94
g95
ssg83
g2300
sg76
(lp2307
S'HTTP_ACCEPT_ENCODING'
p2308
asbag69
(g90
g71
NtRp2309
(dp2310
g74
(dp2311
g101
g102
ssg83
g2300
sg76
(lp2312
S':'
asbag69
(g90
g71
NtRp2313
(dp2314
g74
(dp2315
sg83
g2300
sg76
(lp2316
g69
(g70
g71
NtRp2317
(dp2318
g74
(dp2319
g82
I3
ssg83
g2313
sg76
(lp2320
g874
asbasbasbag69
(g85
g71
NtRp2321
(dp2322
g74
(dp2323
sg83
g2254
sg76
(lp2324
g69
(g90
g71
NtRp2325
(dp2326
g74
(dp2327
g94
g95
ssg83
g2321
sg76
(lp2328
S'HTTP_ACCEPT_LANGUAGE'
p2329
asbag69
(g90
g71
NtRp2330
(dp2331
g74
(dp2332
g101
g102
ssg83
g2321
sg76
(lp2333
S':'
asbag69
(g90
g71
NtRp2334
(dp2335
g74
(dp2336
sg83
g2321
sg76
(lp2337
g69
(g70
g71
NtRp2338
(dp2339
g74
(dp2340
g82
I3
ssg83
g2334
sg76
(lp2341
g896
asbasbasbag69
(g85
g71
NtRp2342
(dp2343
g74
(dp2344
sg83
g2254
sg76
(lp2345
g69
(g90
g71
NtRp2346
(dp2347
g74
(dp2348
g94
g95
ssg83
g2342
sg76
(lp2349
S'HTTP_CACHE_CONTROL'
p2350
asbag69
(g90
g71
NtRp2351
(dp2352
g74
(dp2353
g101
g102
ssg83
g2342
sg76
(lp2354
S':'
asbag69
(g90
g71
NtRp2355
(dp2356
g74
(dp2357
sg83
g2342
sg76
(lp2358
g69
(g70
g71
NtRp2359
(dp2360
g74
(dp2361
g82
I3
ssg83
g2355
sg76
(lp2362
g918
asbasbasbag69
(g85
g71
NtRp2363
(dp2364
g74
(dp2365
sg83
g2254
sg76
(lp2366
g69
(g90
g71
NtRp2367
(dp2368
g74
(dp2369
g94
g95
ssg83
g2363
sg76
(lp2370
S'HTTP_CONNECTION'
p2371
asbag69
(g90
g71
NtRp2372
(dp2373
g74
(dp2374
g101
g102
ssg83
g2363
sg76
(lp2375
S':'
asbag69
(g90
g71
NtRp2376
(dp2377
g74
(dp2378
sg83
g2363
sg76
(lp2379
g69
(g70
g71
NtRp2380
(dp2381
g74
(dp2382
g82
I3
ssg83
g2376
sg76
(lp2383
g940
asbasbasbag69
(g85
g71
NtRp2384
(dp2385
g74
(dp2386
sg83
g2254
sg76
(lp2387
g69
(g90
g71
NtRp2388
(dp2389
g74
(dp2390
g94
g95
ssg83
g2384
sg76
(lp2391
S'HTTP_COOKIE'
p2392
asbag69
(g90
g71
NtRp2393
(dp2394
g74
(dp2395
g101
g102
ssg83
g2384
sg76
(lp2396
S':'
asbag69
(g90
g71
NtRp2397
(dp2398
g74
(dp2399
sg83
g2384
sg76
(lp2400
g69
(g70
g71
NtRp2401
(dp2402
g74
(dp2403
g82
I3
ssg83
g2397
sg76
(lp2404
g962
asbasbasbag69
(g85
g71
NtRp2405
(dp2406
g74
(dp2407
sg83
g2254
sg76
(lp2408
g69
(g90
g71
NtRp2409
(dp2410
g74
(dp2411
g94
g95
ssg83
g2405
sg76
(lp2412
S'HTTP_HOST'
p2413
asbag69
(g90
g71
NtRp2414
(dp2415
g74
(dp2416
g101
g102
ssg83
g2405
sg76
(lp2417
S':'
asbag69
(g90
g71
NtRp2418
(dp2419
g74
(dp2420
sg83
g2405
sg76
(lp2421
g69
(g70
g71
NtRp2422
(dp2423
g74
(dp2424
g82
I3
ssg83
g2418
sg76
(lp2425
g984
asbasbasbag69
(g85
g71
NtRp2426
(dp2427
g74
(dp2428
sg83
g2254
sg76
(lp2429
g69
(g90
g71
NtRp2430
(dp2431
g74
(dp2432
g94
g95
ssg83
g2426
sg76
(lp2433
S'HTTP_USER_AGENT'
p2434
asbag69
(g90
g71
NtRp2435
(dp2436
g74
(dp2437
g101
g102
ssg83
g2426
sg76
(lp2438
S':'
asbag69
(g90
g71
NtRp2439
(dp2440
g74
(dp2441
sg83
g2426
sg76
(lp2442
g69
(g70
g71
NtRp2443
(dp2444
g74
(dp2445
g82
I3
ssg83
g2439
sg76
(lp2446
g1006
asbasbasbag69
(g85
g71
NtRp2447
(dp2448
g74
(dp2449
sg83
g2254
sg76
(lp2450
g69
(g90
g71
NtRp2451
(dp2452
g74
(dp2453
g94
g95
ssg83
g2447
sg76
(lp2454
S'PATH_INFO'
p2455
asbag69
(g90
g71
NtRp2456
(dp2457
g74
(dp2458
g101
g102
ssg83
g2447
sg76
(lp2459
S':'
asbag69
(g90
g71
NtRp2460
(dp2461
g74
(dp2462
sg83
g2447
sg76
(lp2463
g69
(g70
g71
NtRp2464
(dp2465
g74
(dp2466
g82
I3
ssg83
g2460
sg76
(lp2467
g1070
asbasbasbag69
(g85
g71
NtRp2468
(dp2469
g74
(dp2470
sg83
g2254
sg76
(lp2471
g69
(g90
g71
NtRp2472
(dp2473
g74
(dp2474
g94
g95
ssg83
g2468
sg76
(lp2475
S'QUERY_STRING'
p2476
asbag69
(g90
g71
NtRp2477
(dp2478
g74
(dp2479
g101
g102
ssg83
g2468
sg76
(lp2480
S':'
asbag69
(g90
g71
NtRp2481
(dp2482
g74
(dp2483
sg83
g2468
sg76
(lp2484
g69
(g70
g71
NtRp2485
(dp2486
g74
(dp2487
g82
I3
ssg83
g2481
sg76
(lp2488
S''
asbasbasbag69
(g85
g71
NtRp2489
(dp2490
g74
(dp2491
sg83
g2254
sg76
(lp2492
g69
(g90
g71
NtRp2493
(dp2494
g74
(dp2495
g94
g95
ssg83
g2489
sg76
(lp2496
S'REMOTE_ADDR'
p2497
asbag69
(g90
g71
NtRp2498
(dp2499
g74
(dp2500
g101
g102
ssg83
g2489
sg76
(lp2501
S':'
asbag69
(g90
g71
NtRp2502
(dp2503
g74
(dp2504
sg83
g2489
sg76
(lp2505
g69
(g70
g71
NtRp2506
(dp2507
g74
(dp2508
g82
I3
ssg83
g2502
sg76
(lp2509
g202
asbasbasbag69
(g85
g71
NtRp2510
(dp2511
g74
(dp2512
sg83
g2254
sg76
(lp2513
g69
(g90
g71
NtRp2514
(dp2515
g74
(dp2516
g94
g95
ssg83
g2510
sg76
(lp2517
S'REMOTE_PORT'
p2518
asbag69
(g90
g71
NtRp2519
(dp2520
g74
(dp2521
g101
g102
ssg83
g2510
sg76
(lp2522
S':'
asbag69
(g90
g71
NtRp2523
(dp2524
g74
(dp2525
sg83
g2510
sg76
(lp2526
g69
(g70
g71
NtRp2527
(dp2528
g74
(dp2529
g82
I3
ssg83
g2523
sg76
(lp2530
g1134
asbasbasbag69
(g85
g71
NtRp2531
(dp2532
g74
(dp2533
sg83
g2254
sg76
(lp2534
g69
(g90
g71
NtRp2535
(dp2536
g74
(dp2537
g94
g95
ssg83
g2531
sg76
(lp2538
S'REQUEST_METHOD'
p2539
asbag69
(g90
g71
NtRp2540
(dp2541
g74
(dp2542
g101
g102
ssg83
g2531
sg76
(lp2543
S':'
asbag69
(g90
g71
NtRp2544
(dp2545
g74
(dp2546
sg83
g2531
sg76
(lp2547
g69
(g70
g71
NtRp2548
(dp2549
g74
(dp2550
g82
I3
ssg83
g2544
sg76
(lp2551
g1156
asbasbasbag69
(g85
g71
NtRp2552
(dp2553
g74
(dp2554
sg83
g2254
sg76
(lp2555
g69
(g90
g71
NtRp2556
(dp2557
g74
(dp2558
g94
g95
ssg83
g2552
sg76
(lp2559
S'SCRIPT_NAME'
p2560
asbag69
(g90
g71
NtRp2561
(dp2562
g74
(dp2563
g101
g102
ssg83
g2552
sg76
(lp2564
S':'
asbag69
(g90
g71
NtRp2565
(dp2566
g74
(dp2567
sg83
g2552
sg76
(lp2568
g69
(g70
g71
NtRp2569
(dp2570
g74
(dp2571
g82
I3
ssg83
g2565
sg76
(lp2572
S''
asbasbasbag69
(g85
g71
NtRp2573
(dp2574
g74
(dp2575
sg83
g2254
sg76
(lp2576
g69
(g90
g71
NtRp2577
(dp2578
g74
(dp2579
g94
g95
ssg83
g2573
sg76
(lp2580
S'SERVER_NAME'
p2581
asbag69
(g90
g71
NtRp2582
(dp2583
g74
(dp2584
g101
g102
ssg83
g2573
sg76
(lp2585
S':'
asbag69
(g90
g71
NtRp2586
(dp2587
g74
(dp2588
sg83
g2573
sg76
(lp2589
g69
(g70
g71
NtRp2590
(dp2591
g74
(dp2592
g82
I3
ssg83
g2586
sg76
(lp2593
g1199
asbasbasbag69
(g85
g71
NtRp2594
(dp2595
g74
(dp2596
sg83
g2254
sg76
(lp2597
g69
(g90
g71
NtRp2598
(dp2599
g74
(dp2600
g94
g95
ssg83
g2594
sg76
(lp2601
S'SERVER_PORT'
p2602
asbag69
(g90
g71
NtRp2603
(dp2604
g74
(dp2605
g101
g102
ssg83
g2594
sg76
(lp2606
S':'
asbag69
(g90
g71
NtRp2607
(dp2608
g74
(dp2609
sg83
g2594
sg76
(lp2610
g69
(g70
g71
NtRp2611
(dp2612
g74
(dp2613
g82
I3
ssg83
g2607
sg76
(lp2614
g1221
asbasbasbag69
(g85
g71
NtRp2615
(dp2616
g74
(dp2617
sg83
g2254
sg76
(lp2618
g69
(g90
g71
NtRp2619
(dp2620
g74
(dp2621
g94
g95
ssg83
g2615
sg76
(lp2622
S'SERVER_PROTOCOL'
p2623
asbag69
(g90
g71
NtRp2624
(dp2625
g74
(dp2626
g101
g102
ssg83
g2615
sg76
(lp2627
S':'
asbag69
(g90
g71
NtRp2628
(dp2629
g74
(dp2630
sg83
g2615
sg76
(lp2631
g69
(g70
g71
NtRp2632
(dp2633
g74
(dp2634
g82
I3
ssg83
g2628
sg76
(lp2635
g1243
asbasbasbag69
(g85
g71
NtRp2636
(dp2637
g74
(dp2638
sg83
g2254
sg76
(lp2639
g69
(g90
g71
NtRp2640
(dp2641
g74
(dp2642
g94
g95
ssg83
g2636
sg76
(lp2643
S'SERVER_SOFTWARE'
p2644
asbag69
(g90
g71
NtRp2645
(dp2646
g74
(dp2647
g101
g102
ssg83
g2636
sg76
(lp2648
S':'
asbag69
(g90
g71
NtRp2649
(dp2650
g74
(dp2651
sg83
g2636
sg76
(lp2652
g69
(g70
g71
NtRp2653
(dp2654
g74
(dp2655
g82
I3
ssg83
g2649
sg76
(lp2656
g1265
asbasbasbag69
(g85
g71
NtRp2657
(dp2658
g74
(dp2659
sg83
g2254
sg76
(lp2660
g69
(g90
g71
NtRp2661
(dp2662
g74
(dp2663
g94
g95
ssg83
g2657
sg76
(lp2664
S'wsgi.errors'
p2665
asbag69
(g90
g71
NtRp2666
(dp2667
g74
(dp2668
g101
g102
ssg83
g2657
sg76
(lp2669
S':'
asbag69
(g90
g71
NtRp2670
(dp2671
g74
(dp2672
sg83
g2657
sg76
(lp2673
g69
(g70
g71
NtRp2674
(dp2675
g74
(dp2676
g82
I3
ssg83
g2670
sg76
(lp2677
S"<open file '<stderr>', mode 'w' at 0xb731e0d0>"
p2678
asbasbasbag69
(g85
g71
NtRp2679
(dp2680
g74
(dp2681
sg83
g2254
sg76
(lp2682
g69
(g90
g71
NtRp2683
(dp2684
g74
(dp2685
g94
g95
ssg83
g2679
sg76
(lp2686
S'wsgi.file_wrapper'
p2687
asbag69
(g90
g71
NtRp2688
(dp2689
g74
(dp2690
g101
g102
ssg83
g2679
sg76
(lp2691
S':'
asbag69
(g90
g71
NtRp2692
(dp2693
g74
(dp2694
sg83
g2679
sg76
(lp2695
g69
(g70
g71
NtRp2696
(dp2697
g74
(dp2698
g82
I3
ssg83
g2692
sg76
(lp2699
S'<class wsgiref.util.FileWrapper at 0x9ebe2cc>'
p2700
asbasbasbag69
(g85
g71
NtRp2701
(dp2702
g74
(dp2703
sg83
g2254
sg76
(lp2704
g69
(g90
g71
NtRp2705
(dp2706
g74
(dp2707
g94
g95
ssg83
g2701
sg76
(lp2708
S'wsgi.input'
p2709
asbag69
(g90
g71
NtRp2710
(dp2711
g74
(dp2712
g101
g102
ssg83
g2701
sg76
(lp2713
S':'
asbag69
(g90
g71
NtRp2714
(dp2715
g74
(dp2716
sg83
g2701
sg76
(lp2717
g69
(g70
g71
NtRp2718
(dp2719
g74
(dp2720
g82
I3
ssg83
g2714
sg76
(lp2721
S'<cStringIO.StringO object at 0xa445520>'
p2722
asbasbasbag69
(g85
g71
NtRp2723
(dp2724
g74
(dp2725
sg83
g2254
sg76
(lp2726
g69
(g90
g71
NtRp2727
(dp2728
g74
(dp2729
g94
g95
ssg83
g2723
sg76
(lp2730
S'wsgi.multiprocess'
p2731
asbag69
(g90
g71
NtRp2732
(dp2733
g74
(dp2734
g101
g102
ssg83
g2723
sg76
(lp2735
S':'
asbag69
(g90
g71
NtRp2736
(dp2737
g74
(dp2738
sg83
g2723
sg76
(lp2739
g69
(g70
g71
NtRp2740
(dp2741
g74
(dp2742
g82
I3
ssg83
g2736
sg76
(lp2743
g112
asbasbasbag69
(g85
g71
NtRp2744
(dp2745
g74
(dp2746
sg83
g2254
sg76
(lp2747
g69
(g90
g71
NtRp2748
(dp2749
g74
(dp2750
g94
g95
ssg83
g2744
sg76
(lp2751
S'wsgi.multithread'
p2752
asbag69
(g90
g71
NtRp2753
(dp2754
g74
(dp2755
g101
g102
ssg83
g2744
sg76
(lp2756
S':'
asbag69
(g90
g71
NtRp2757
(dp2758
g74
(dp2759
sg83
g2744
sg76
(lp2760
g69
(g70
g71
NtRp2761
(dp2762
g74
(dp2763
g82
I3
ssg83
g2757
sg76
(lp2764
g1505
asbasbasbag69
(g85
g71
NtRp2765
(dp2766
g74
(dp2767
sg83
g2254
sg76
(lp2768
g69
(g90
g71
NtRp2769
(dp2770
g74
(dp2771
g94
g95
ssg83
g2765
sg76
(lp2772
S'wsgi.run_once'
p2773
asbag69
(g90
g71
NtRp2774
(dp2775
g74
(dp2776
g101
g102
ssg83
g2765
sg76
(lp2777
S':'
asbag69
(g90
g71
NtRp2778
(dp2779
g74
(dp2780
sg83
g2765
sg76
(lp2781
g69
(g70
g71
NtRp2782
(dp2783
g74
(dp2784
g82
I3
ssg83
g2778
sg76
(lp2785
g112
asbasbasbag69
(g85
g71
NtRp2786
(dp2787
g74
(dp2788
sg83
g2254
sg76
(lp2789
g69
(g90
g71
NtRp2790
(dp2791
g74
(dp2792
g94
g95
ssg83
g2786
sg76
(lp2793
S'wsgi.url_scheme'
p2794
asbag69
(g90
g71
NtRp2795
(dp2796
g74
(dp2797
g101
g102
ssg83
g2786
sg76
(lp2798
S':'
asbag69
(g90
g71
NtRp2799
(dp2800
g74
(dp2801
sg83
g2786
sg76
(lp2802
g69
(g70
g71
NtRp2803
(dp2804
g74
(dp2805
g82
I3
ssg83
g2799
sg76
(lp2806
g1548
asbasbasbag69
(g85
g71
NtRp2807
(dp2808
g74
(dp2809
sg83
g2254
sg76
(lp2810
g69
(g90
g71
NtRp2811
(dp2812
g74
(dp2813
g94
g95
ssg83
g2807
sg76
(lp2814
S'wsgi.version'
p2815
asbag69
(g90
g71
NtRp2816
(dp2817
g74
(dp2818
g101
g102
ssg83
g2807
sg76
(lp2819
S':'
asbag69
(g90
g71
NtRp2820
(dp2821
g74
(dp2822
sg83
g2807
sg76
(lp2823
g69
(g70
g71
NtRp2824
(dp2825
g74
(dp2826
g82
I3
ssg83
g2820
sg76
(lp2827
S'1'
asbasbasbasbasbasbasbasbasbasbasbasbasbsS'frames'
p2828
(lp2829
(dp2830
S'file'
p2831
S'/home/shaz/Documents/Development/web2py/gluon/restricted.py'
p2832
sS'dump'
p2833
(dp2834
S'code'
p2835
S'\'response.write(\\\'<!DOCTYPE html>\\\\n<html lang="en"...ite(\\\' -->\\\\n\\\\n  </body>\\\\n</html>\\\\n\\\', escape=False)\''
p2836
sS'layer'
p2837
S"'/home/shaz/Documents/Development/web2py/applications/FormalSignUp/views/default/index.html'"
p2838
sS'global compile2'
p2839
S'<function compile2>'
p2840
sS'ccode'
p2841
S'undefined'
p2842
ssS'lnum'
p2843
I203
sS'lines'
p2844
(dp2845
I198
S"    environment['__file__'] = layer"
p2846
sI199
S'    try:'
p2847
sI200
S'        if type(code) == types.CodeType:'
p2848
sI201
S'            ccode = code'
p2849
sI202
S'        else:'
p2850
sI203
S'            ccode = compile2(code,layer)'
p2851
sI204
S'        exec ccode in environment'
p2852
sI205
S'    except HTTP:'
p2853
sI206
S'        raise'
p2854
sI207
S'    except RestrictedError:'
p2855
ssS'call'
p2856
S'(code=\'response.write(\\\'<!DOCTYPE html>\\\\n<html lang="en"...ite(\\\' -->\\\\n\\\\n  </body>\\\\n</html>\\\\n\\\', escape=False)\', environment={\'A\': <class \'gluon.html.A\'>, \'Auth\': <class \'gluon.tools.Auth\'>, \'B\': <class \'gluon.html.B\'>, \'BEAUTIFY\': <class \'gluon.html.BEAUTIFY\'>, \'BODY\': <class \'gluon.html.BODY\'>, \'BR\': <class \'gluon.html.BR\'>, \'BUTTON\': <class \'gluon.html.BUTTON\'>, \'CAT\': <class \'gluon.html.CAT\'>, \'CENTER\': <class \'gluon.html.CENTER\'>, \'CLEANUP\': <class \'gluon.validators.CLEANUP\'>, ...}, layer=\'/home/shaz/Documents/Development/web2py/applications/FormalSignUp/views/default/index.html\')'
p2857
sS'func'
p2858
S'restricted'
p2859
sa(dp2860
g2831
S'/home/shaz/Documents/Development/web2py/gluon/restricted.py'
p2861
sg2833
(dp2862
S'builtincompile'
p2863
S'<built-in function compile>'
p2864
sS'code'
p2865
S'\'response.write(\\\'<!DOCTYPE html>\\\\n<html lang="en"...ite(\\\' -->\\\\n\\\\n  </body>\\\\n</html>\\\\n\\\', escape=False)\''
p2866
sS'code.rstrip'
p2867
S'<built-in method rstrip of str object>'
p2868
sS').replace'
p2869
g2842
sS'layer'
p2870
S"'/home/shaz/Documents/Development/web2py/applications/FormalSignUp/views/default/index.html'"
p2871
ssg2843
I189
sg2844
(dp2872
I192
S'    """'
p2873
sI193
S'    runs code in environment and returns the output. if an exception occurs'
p2874
sI184
S''
sI185
S'def compile2(code,layer):'
p2875
sI186
S'    """'
p2876
sI187
S"    The +'\\n' is necessary else compile fails when code ends in a comment."
p2877
sI188
S'    """'
p2878
sI189
S"    return compile(code.rstrip().replace('\\r\\n','\\n')+'\\n', layer, 'exec')"
p2879
sI190
S''
sI191
S"def restricted(code, environment=None, layer='Unknown'):"
p2880
ssg2856
S'(code=\'response.write(\\\'<!DOCTYPE html>\\\\n<html lang="en"...ite(\\\' -->\\\\n\\\\n  </body>\\\\n</html>\\\\n\\\', escape=False)\', layer=\'/home/shaz/Documents/Development/web2py/applications/FormalSignUp/views/default/index.html\')'
p2881
sg2858
S'compile2'
p2882
sasS'pyver'
p2883
S'Python 2.7.2+: /usr/bin/python'
p2884
sS'session'
p2885
g69
(g70
g71
NtRp2886
(dp2887
g74
(dp2888
sg76
(lp2889
g69
(g78
g71
NtRp2890
(dp2891
g74
(dp2892
g82
I5
ssg83
Nsg76
(lp2893
g69
(g85
g71
NtRp2894
(dp2895
g74
(dp2896
sg83
g2890
sg76
(lp2897
g69
(g90
g71
NtRp2898
(dp2899
g74
(dp2900
g94
g95
ssg83
g2894
sg76
(lp2901
S'auth'
p2902
asbag69
(g90
g71
NtRp2903
(dp2904
g74
(dp2905
g101
g102
ssg83
g2894
sg76
(lp2906
S':'
asbag69
(g90
g71
NtRp2907
(dp2908
g74
(dp2909
sg83
g2894
sg76
(lp2910
g69
(g70
g71
NtRp2911
(dp2912
g74
(dp2913
g82
I5
ssg83
g2907
sg76
(lp2914
g69
(g78
g71
NtRp2915
(dp2916
g74
(dp2917
g82
I4
ssg83
Nsg76
(lp2918
g69
(g85
g71
NtRp2919
(dp2920
g74
(dp2921
sg83
g2915
sg76
(lp2922
g69
(g90
g71
NtRp2923
(dp2924
g74
(dp2925
g94
g95
ssg83
g2919
sg76
(lp2926
S'expiration'
p2927
asbag69
(g90
g71
NtRp2928
(dp2929
g74
(dp2930
g101
g102
ssg83
g2919
sg76
(lp2931
S':'
asbag69
(g90
g71
NtRp2932
(dp2933
g74
(dp2934
sg83
g2919
sg76
(lp2935
g69
(g70
g71
NtRp2936
(dp2937
g74
(dp2938
g82
I4
ssg83
g2932
sg76
(lp2939
S'2592000'
p2940
asbasbasbag69
(g85
g71
NtRp2941
(dp2942
g74
(dp2943
sg83
g2915
sg76
(lp2944
g69
(g90
g71
NtRp2945
(dp2946
g74
(dp2947
g94
g95
ssg83
g2941
sg76
(lp2948
S'hmac_key'
p2949
asbag69
(g90
g71
NtRp2950
(dp2951
g74
(dp2952
g101
g102
ssg83
g2941
sg76
(lp2953
S':'
asbag69
(g90
g71
NtRp2954
(dp2955
g74
(dp2956
sg83
g2941
sg76
(lp2957
g69
(g70
g71
NtRp2958
(dp2959
g74
(dp2960
g82
I4
ssg83
g2954
sg76
(lp2961
S'a20f7851-13bb-4806-9ec5-10df723d7f51'
p2962
asbasbasbag69
(g85
g71
NtRp2963
(dp2964
g74
(dp2965
sg83
g2915
sg76
(lp2966
g69
(g90
g71
NtRp2967
(dp2968
g74
(dp2969
g94
g95
ssg83
g2963
sg76
(lp2970
S'last_visit'
p2971
asbag69
(g90
g71
NtRp2972
(dp2973
g74
(dp2974
g101
g102
ssg83
g2963
sg76
(lp2975
S':'
asbag69
(g90
g71
NtRp2976
(dp2977
g74
(dp2978
sg83
g2963
sg76
(lp2979
g69
(g70
g71
NtRp2980
(dp2981
g74
(dp2982
g82
I4
ssg83
g2976
sg76
(lp2983
S'datetime.datetime(2012, 2, 29, 19, 2, 19, 762409)'
p2984
asbasbasbag69
(g85
g71
NtRp2985
(dp2986
g74
(dp2987
sg83
g2915
sg76
(lp2988
g69
(g90
g71
NtRp2989
(dp2990
g74
(dp2991
g94
g95
ssg83
g2985
sg76
(lp2992
S'remember'
p2993
asbag69
(g90
g71
NtRp2994
(dp2995
g74
(dp2996
g101
g102
ssg83
g2985
sg76
(lp2997
S':'
asbag69
(g90
g71
NtRp2998
(dp2999
g74
(dp3000
sg83
g2985
sg76
(lp3001
g69
(g70
g71
NtRp3002
(dp3003
g74
(dp3004
g82
I4
ssg83
g2998
sg76
(lp3005
g112
asbasbasbag69
(g85
g71
NtRp3006
(dp3007
g74
(dp3008
sg83
g2915
sg76
(lp3009
g69
(g90
g71
NtRp3010
(dp3011
g74
(dp3012
g94
g95
ssg83
g3006
sg76
(lp3013
S'user'
p3014
asbag69
(g90
g71
NtRp3015
(dp3016
g74
(dp3017
g101
g102
ssg83
g3006
sg76
(lp3018
S':'
asbag69
(g90
g71
NtRp3019
(dp3020
g74
(dp3021
sg83
g3006
sg76
(lp3022
g69
(g70
g71
NtRp3023
(dp3024
g74
(dp3025
g82
I4
ssg83
g3019
sg76
(lp3026
g69
(g78
g71
NtRp3027
(dp3028
g74
(dp3029
g82
I3
ssg83
Nsg76
(lp3030
g69
(g85
g71
NtRp3031
(dp3032
g74
(dp3033
sg83
g3027
sg76
(lp3034
g69
(g90
g71
NtRp3035
(dp3036
g74
(dp3037
g94
g95
ssg83
g3031
sg76
(lp3038
S'email'
p3039
asbag69
(g90
g71
NtRp3040
(dp3041
g74
(dp3042
g101
g102
ssg83
g3031
sg76
(lp3043
S':'
asbag69
(g90
g71
NtRp3044
(dp3045
g74
(dp3046
sg83
g3031
sg76
(lp3047
g69
(g70
g71
NtRp3048
(dp3049
g74
(dp3050
g82
I3
ssg83
g3044
sg76
(lp3051
S'shezad.khan@durham.ac.uk'
p3052
asbasbasbag69
(g85
g71
NtRp3053
(dp3054
g74
(dp3055
sg83
g3027
sg76
(lp3056
g69
(g90
g71
NtRp3057
(dp3058
g74
(dp3059
g94
g95
ssg83
g3053
sg76
(lp3060
S'first_name'
p3061
asbag69
(g90
g71
NtRp3062
(dp3063
g74
(dp3064
g101
g102
ssg83
g3053
sg76
(lp3065
S':'
asbag69
(g90
g71
NtRp3066
(dp3067
g74
(dp3068
sg83
g3053
sg76
(lp3069
g69
(g70
g71
NtRp3070
(dp3071
g74
(dp3072
g82
I3
ssg83
g3066
sg76
(lp3073
S'Shezad'
p3074
asbasbasbag69
(g85
g71
NtRp3075
(dp3076
g74
(dp3077
sg83
g3027
sg76
(lp3078
g69
(g90
g71
NtRp3079
(dp3080
g74
(dp3081
g94
g95
ssg83
g3075
sg76
(lp3082
S'id'
p3083
asbag69
(g90
g71
NtRp3084
(dp3085
g74
(dp3086
g101
g102
ssg83
g3075
sg76
(lp3087
S':'
asbag69
(g90
g71
NtRp3088
(dp3089
g74
(dp3090
sg83
g3075
sg76
(lp3091
g69
(g70
g71
NtRp3092
(dp3093
g74
(dp3094
g82
I3
ssg83
g3088
sg76
(lp3095
S'1'
asbasbasbag69
(g85
g71
NtRp3096
(dp3097
g74
(dp3098
sg83
g3027
sg76
(lp3099
g69
(g90
g71
NtRp3100
(dp3101
g74
(dp3102
g94
g95
ssg83
g3096
sg76
(lp3103
S'last_name'
p3104
asbag69
(g90
g71
NtRp3105
(dp3106
g74
(dp3107
g101
g102
ssg83
g3096
sg76
(lp3108
S':'
asbag69
(g90
g71
NtRp3109
(dp3110
g74
(dp3111
sg83
g3096
sg76
(lp3112
g69
(g70
g71
NtRp3113
(dp3114
g74
(dp3115
g82
I3
ssg83
g3109
sg76
(lp3116
S'Khan'
p3117
asbasbasbag69
(g85
g71
NtRp3118
(dp3119
g74
(dp3120
sg83
g3027
sg76
(lp3121
g69
(g90
g71
NtRp3122
(dp3123
g74
(dp3124
g94
g95
ssg83
g3118
sg76
(lp3125
S'password'
p3126
asbag69
(g90
g71
NtRp3127
(dp3128
g74
(dp3129
g101
g102
ssg83
g3118
sg76
(lp3130
S':'
asbag69
(g90
g71
NtRp3131
(dp3132
g74
(dp3133
sg83
g3118
sg76
(lp3134
g69
(g70
g71
NtRp3135
(dp3136
g74
(dp3137
g82
I3
ssg83
g3131
sg76
(lp3138
S'f581c052587db26a3fb3708818cf8e4b'
p3139
asbasbasbag69
(g85
g71
NtRp3140
(dp3141
g74
(dp3142
sg83
g3027
sg76
(lp3143
g69
(g90
g71
NtRp3144
(dp3145
g74
(dp3146
g94
g95
ssg83
g3140
sg76
(lp3147
S'registration_id'
p3148
asbag69
(g90
g71
NtRp3149
(dp3150
g74
(dp3151
g101
g102
ssg83
g3140
sg76
(lp3152
S':'
asbag69
(g90
g71
NtRp3153
(dp3154
g74
(dp3155
sg83
g3140
sg76
(lp3156
g69
(g70
g71
NtRp3157
(dp3158
g74
(dp3159
g82
I3
ssg83
g3153
sg76
(lp3160
S''
asbasbasbag69
(g85
g71
NtRp3161
(dp3162
g74
(dp3163
sg83
g3027
sg76
(lp3164
g69
(g90
g71
NtRp3165
(dp3166
g74
(dp3167
g94
g95
ssg83
g3161
sg76
(lp3168
S'registration_key'
p3169
asbag69
(g90
g71
NtRp3170
(dp3171
g74
(dp3172
g101
g102
ssg83
g3161
sg76
(lp3173
S':'
asbag69
(g90
g71
NtRp3174
(dp3175
g74
(dp3176
sg83
g3161
sg76
(lp3177
g69
(g70
g71
NtRp3178
(dp3179
g74
(dp3180
g82
I3
ssg83
g3174
sg76
(lp3181
S''
asbasbasbag69
(g85
g71
NtRp3182
(dp3183
g74
(dp3184
sg83
g3027
sg76
(lp3185
g69
(g90
g71
NtRp3186
(dp3187
g74
(dp3188
g94
g95
ssg83
g3182
sg76
(lp3189
S'reset_password_key'
p3190
asbag69
(g90
g71
NtRp3191
(dp3192
g74
(dp3193
g101
g102
ssg83
g3182
sg76
(lp3194
S':'
asbag69
(g90
g71
NtRp3195
(dp3196
g74
(dp3197
sg83
g3182
sg76
(lp3198
g69
(g70
g71
NtRp3199
(dp3200
g74
(dp3201
g82
I3
ssg83
g3195
sg76
(lp3202
S''
asbasbasbasbasbasbasbasbasbasbasbasbasbsS'etype'
p3203
S"<type 'exceptions.SyntaxError'>"
p3204
sS'date'
p3205
S'Thu Mar  1 00:55:31 2012'
p3206
sS'response'
p3207
g69
(g70
g71
NtRp3208
(dp3209
g74
(dp3210
sg76
(lp3211
g69
(g78
g71
NtRp3212
(dp3213
g74
(dp3214
g82
I5
ssg83
Nsg76
(lp3215
g69
(g85
g71
NtRp3216
(dp3217
g74
(dp3218
sg83
g3212
sg76
(lp3219
g69
(g90
g71
NtRp3220
(dp3221
g74
(dp3222
g94
g95
ssg83
g3216
sg76
(lp3223
g167
asbag69
(g90
g71
NtRp3224
(dp3225
g74
(dp3226
g101
g102
ssg83
g3216
sg76
(lp3227
S':'
asbag69
(g90
g71
NtRp3228
(dp3229
g74
(dp3230
sg83
g3216
sg76
(lp3231
g69
(g70
g71
NtRp3232
(dp3233
g74
(dp3234
g82
I5
ssg83
g3228
sg76
(lp3235
S'<cStringIO.StringO object at 0x9fd9ac0>'
p3236
asbasbasbag69
(g85
g71
NtRp3237
(dp3238
g74
(dp3239
sg83
g3212
sg76
(lp3240
g69
(g90
g71
NtRp3241
(dp3242
g74
(dp3243
g94
g95
ssg83
g3237
sg76
(lp3244
g233
asbag69
(g90
g71
NtRp3245
(dp3246
g74
(dp3247
g101
g102
ssg83
g3237
sg76
(lp3248
S':'
asbag69
(g90
g71
NtRp3249
(dp3250
g74
(dp3251
sg83
g3237
sg76
(lp3252
g69
(g70
g71
NtRp3253
(dp3254
g74
(dp3255
g82
I5
ssg83
g3249
sg76
(lp3256
g69
(g78
g71
NtRp3257
(dp3258
g74
(dp3259
g82
I4
ssg83
Nsg76
(lp3260
g69
(g85
g71
NtRp3261
(dp3262
g74
(dp3263
sg83
g3257
sg76
(lp3264
g69
(g90
g71
NtRp3265
(dp3266
g74
(dp3267
g94
g95
ssg83
g3261
sg76
(lp3268
S'session_id_formalsignup'
p3269
asbag69
(g90
g71
NtRp3270
(dp3271
g74
(dp3272
g101
g102
ssg83
g3261
sg76
(lp3273
S':'
asbag69
(g90
g71
NtRp3274
(dp3275
g74
(dp3276
sg83
g3261
sg76
(lp3277
g69
(g70
g71
NtRp3278
(dp3279
g74
(dp3280
g82
I4
ssg83
g3274
sg76
(lp3281
g69
(g78
g71
NtRp3282
(dp3283
g74
(dp3284
g82
I3
ssg83
Nsg76
(lp3285
g69
(g85
g71
NtRp3286
(dp3287
g74
(dp3288
sg83
g3282
sg76
(lp3289
g69
(g90
g71
NtRp3290
(dp3291
g74
(dp3292
g94
g95
ssg83
g3286
sg76
(lp3293
g283
asbag69
(g90
g71
NtRp3294
(dp3295
g74
(dp3296
g101
g102
ssg83
g3286
sg76
(lp3297
S':'
asbag69
(g90
g71
NtRp3298
(dp3299
g74
(dp3300
sg83
g3286
sg76
(lp3301
g69
(g70
g71
NtRp3302
(dp3303
g74
(dp3304
g82
I3
ssg83
g3298
sg76
(lp3305
S''
asbasbasbag69
(g85
g71
NtRp3306
(dp3307
g74
(dp3308
sg83
g3282
sg76
(lp3309
g69
(g90
g71
NtRp3310
(dp3311
g74
(dp3312
g94
g95
ssg83
g3306
sg76
(lp3313
g304
asbag69
(g90
g71
NtRp3314
(dp3315
g74
(dp3316
g101
g102
ssg83
g3306
sg76
(lp3317
S':'
asbag69
(g90
g71
NtRp3318
(dp3319
g74
(dp3320
sg83
g3306
sg76
(lp3321
g69
(g70
g71
NtRp3322
(dp3323
g74
(dp3324
g82
I3
ssg83
g3318
sg76
(lp3325
S''
asbasbasbag69
(g85
g71
NtRp3326
(dp3327
g74
(dp3328
sg83
g3282
sg76
(lp3329
g69
(g90
g71
NtRp3330
(dp3331
g74
(dp3332
g94
g95
ssg83
g3326
sg76
(lp3333
g325
asbag69
(g90
g71
NtRp3334
(dp3335
g74
(dp3336
g101
g102
ssg83
g3326
sg76
(lp3337
S':'
asbag69
(g90
g71
NtRp3338
(dp3339
g74
(dp3340
sg83
g3326
sg76
(lp3341
g69
(g70
g71
NtRp3342
(dp3343
g74
(dp3344
g82
I3
ssg83
g3338
sg76
(lp3345
S''
asbasbasbag69
(g85
g71
NtRp3346
(dp3347
g74
(dp3348
sg83
g3282
sg76
(lp3349
g69
(g90
g71
NtRp3350
(dp3351
g74
(dp3352
g94
g95
ssg83
g3346
sg76
(lp3353
g346
asbag69
(g90
g71
NtRp3354
(dp3355
g74
(dp3356
g101
g102
ssg83
g3346
sg76
(lp3357
S':'
asbag69
(g90
g71
NtRp3358
(dp3359
g74
(dp3360
sg83
g3346
sg76
(lp3361
g69
(g70
g71
NtRp3362
(dp3363
g74
(dp3364
g82
I3
ssg83
g3358
sg76
(lp3365
S''
asbasbasbag69
(g85
g71
NtRp3366
(dp3367
g74
(dp3368
sg83
g3282
sg76
(lp3369
g69
(g90
g71
NtRp3370
(dp3371
g74
(dp3372
g94
g95
ssg83
g3366
sg76
(lp3373
g367
asbag69
(g90
g71
NtRp3374
(dp3375
g74
(dp3376
g101
g102
ssg83
g3366
sg76
(lp3377
S':'
asbag69
(g90
g71
NtRp3378
(dp3379
g74
(dp3380
sg83
g3366
sg76
(lp3381
g69
(g70
g71
NtRp3382
(dp3383
g74
(dp3384
g82
I3
ssg83
g3378
sg76
(lp3385
S''
asbasbasbag69
(g85
g71
NtRp3386
(dp3387
g74
(dp3388
sg83
g3282
sg76
(lp3389
g69
(g90
g71
NtRp3390
(dp3391
g74
(dp3392
g94
g95
ssg83
g3386
sg76
(lp3393
g388
asbag69
(g90
g71
NtRp3394
(dp3395
g74
(dp3396
g101
g102
ssg83
g3386
sg76
(lp3397
S':'
asbag69
(g90
g71
NtRp3398
(dp3399
g74
(dp3400
sg83
g3386
sg76
(lp3401
g69
(g70
g71
NtRp3402
(dp3403
g74
(dp3404
g82
I3
ssg83
g3398
sg76
(lp3405
S'/'
asbasbasbag69
(g85
g71
NtRp3406
(dp3407
g74
(dp3408
sg83
g3282
sg76
(lp3409
g69
(g90
g71
NtRp3410
(dp3411
g74
(dp3412
g94
g95
ssg83
g3406
sg76
(lp3413
g409
asbag69
(g90
g71
NtRp3414
(dp3415
g74
(dp3416
g101
g102
ssg83
g3406
sg76
(lp3417
S':'
asbag69
(g90
g71
NtRp3418
(dp3419
g74
(dp3420
sg83
g3406
sg76
(lp3421
g69
(g70
g71
NtRp3422
(dp3423
g74
(dp3424
g82
I3
ssg83
g3418
sg76
(lp3425
S''
asbasbasbag69
(g85
g71
NtRp3426
(dp3427
g74
(dp3428
sg83
g3282
sg76
(lp3429
g69
(g90
g71
NtRp3430
(dp3431
g74
(dp3432
g94
g95
ssg83
g3426
sg76
(lp3433
g430
asbag69
(g90
g71
NtRp3434
(dp3435
g74
(dp3436
g101
g102
ssg83
g3426
sg76
(lp3437
S':'
asbag69
(g90
g71
NtRp3438
(dp3439
g74
(dp3440
sg83
g3426
sg76
(lp3441
g69
(g70
g71
NtRp3442
(dp3443
g74
(dp3444
g82
I3
ssg83
g3438
sg76
(lp3445
S''
asbasbasbasbasbasbasbasbasbasbasbag69
(g85
g71
NtRp3446
(dp3447
g74
(dp3448
sg83
g3212
sg76
(lp3449
g69
(g90
g71
NtRp3450
(dp3451
g74
(dp3452
g94
g95
ssg83
g3446
sg76
(lp3453
S'files'
p3454
asbag69
(g90
g71
NtRp3455
(dp3456
g74
(dp3457
g101
g102
ssg83
g3446
sg76
(lp3458
S':'
asbag69
(g90
g71
NtRp3459
(dp3460
g74
(dp3461
sg83
g3446
sg76
(lp3462
g69
(g70
g71
NtRp3463
(dp3464
g74
(dp3465
g82
I5
ssg83
g3459
sg76
(lp3466
g69
(g78
g71
NtRp3467
(dp3468
g74
(dp3469
g82
I4
ssg83
Nsg76
(lp3470
sbasbasbasbag69
(g85
g71
NtRp3471
(dp3472
g74
(dp3473
sg83
g3212
sg76
(lp3474
g69
(g90
g71
NtRp3475
(dp3476
g74
(dp3477
g94
g95
ssg83
g3471
sg76
(lp3478
S'flash'
p3479
asbag69
(g90
g71
NtRp3480
(dp3481
g74
(dp3482
g101
g102
ssg83
g3471
sg76
(lp3483
S':'
asbag69
(g90
g71
NtRp3484
(dp3485
g74
(dp3486
sg83
g3471
sg76
(lp3487
g69
(g70
g71
NtRp3488
(dp3489
g74
(dp3490
g82
I5
ssg83
g3484
sg76
(lp3491
S''
asbasbasbag69
(g85
g71
NtRp3492
(dp3493
g74
(dp3494
sg83
g3212
sg76
(lp3495
g69
(g90
g71
NtRp3496
(dp3497
g74
(dp3498
g94
g95
ssg83
g3492
sg76
(lp3499
S'generic_patterns'
p3500
asbag69
(g90
g71
NtRp3501
(dp3502
g74
(dp3503
g101
g102
ssg83
g3492
sg76
(lp3504
S':'
asbag69
(g90
g71
NtRp3505
(dp3506
g74
(dp3507
sg83
g3492
sg76
(lp3508
g69
(g70
g71
NtRp3509
(dp3510
g74
(dp3511
g82
I5
ssg83
g3505
sg76
(lp3512
g69
(g78
g71
NtRp3513
(dp3514
g74
(dp3515
g82
I4
ssg83
Nsg76
(lp3516
g69
(g85
g71
NtRp3517
(dp3518
g74
(dp3519
sg83
g3513
sg76
(lp3520
g69
(g90
g71
NtRp3521
(dp3522
g74
(dp3523
sg83
g3517
sg76
(lp3524
g69
(g70
g71
NtRp3525
(dp3526
g74
(dp3527
g82
I4
ssg83
g3521
sg76
(lp3528
S'*'
asbasbasbasbasbasbasbag69
(g85
g71
NtRp3529
(dp3530
g74
(dp3531
sg83
g3212
sg76
(lp3532
g69
(g90
g71
NtRp3533
(dp3534
g74
(dp3535
g94
g95
ssg83
g3529
sg76
(lp3536
S'headers'
p3537
asbag69
(g90
g71
NtRp3538
(dp3539
g74
(dp3540
g101
g102
ssg83
g3529
sg76
(lp3541
S':'
asbag69
(g90
g71
NtRp3542
(dp3543
g74
(dp3544
sg83
g3529
sg76
(lp3545
g69
(g70
g71
NtRp3546
(dp3547
g74
(dp3548
g82
I5
ssg83
g3542
sg76
(lp3549
g69
(g78
g71
NtRp3550
(dp3551
g74
(dp3552
g82
I4
ssg83
Nsg76
(lp3553
g69
(g85
g71
NtRp3554
(dp3555
g74
(dp3556
sg83
g3550
sg76
(lp3557
g69
(g90
g71
NtRp3558
(dp3559
g74
(dp3560
g94
g95
ssg83
g3554
sg76
(lp3561
S'Cache-Control'
p3562
asbag69
(g90
g71
NtRp3563
(dp3564
g74
(dp3565
g101
g102
ssg83
g3554
sg76
(lp3566
S':'
asbag69
(g90
g71
NtRp3567
(dp3568
g74
(dp3569
sg83
g3554
sg76
(lp3570
g69
(g70
g71
NtRp3571
(dp3572
g74
(dp3573
g82
I4
ssg83
g3567
sg76
(lp3574
S'no-store, no-cache, must-revalidate, post-check=0, pre-check=0'
p3575
asbasbasbag69
(g85
g71
NtRp3576
(dp3577
g74
(dp3578
sg83
g3550
sg76
(lp3579
g69
(g90
g71
NtRp3580
(dp3581
g74
(dp3582
g94
g95
ssg83
g3576
sg76
(lp3583
S'Content-Type'
p3584
asbag69
(g90
g71
NtRp3585
(dp3586
g74
(dp3587
g101
g102
ssg83
g3576
sg76
(lp3588
S':'
asbag69
(g90
g71
NtRp3589
(dp3590
g74
(dp3591
sg83
g3576
sg76
(lp3592
g69
(g70
g71
NtRp3593
(dp3594
g74
(dp3595
g82
I4
ssg83
g3589
sg76
(lp3596
S'text/html; charset=utf-8'
p3597
asbasbasbag69
(g85
g71
NtRp3598
(dp3599
g74
(dp3600
sg83
g3550
sg76
(lp3601
g69
(g90
g71
NtRp3602
(dp3603
g74
(dp3604
g94
g95
ssg83
g3598
sg76
(lp3605
S'Expires'
p3606
asbag69
(g90
g71
NtRp3607
(dp3608
g74
(dp3609
g101
g102
ssg83
g3598
sg76
(lp3610
S':'
asbag69
(g90
g71
NtRp3611
(dp3612
g74
(dp3613
sg83
g3598
sg76
(lp3614
g69
(g70
g71
NtRp3615
(dp3616
g74
(dp3617
g82
I4
ssg83
g3611
sg76
(lp3618
S'Thu, 01 Mar 2012 00:55:31 GMT'
p3619
asbasbasbag69
(g85
g71
NtRp3620
(dp3621
g74
(dp3622
sg83
g3550
sg76
(lp3623
g69
(g90
g71
NtRp3624
(dp3625
g74
(dp3626
g94
g95
ssg83
g3620
sg76
(lp3627
S'Pragma'
p3628
asbag69
(g90
g71
NtRp3629
(dp3630
g74
(dp3631
g101
g102
ssg83
g3620
sg76
(lp3632
S':'
asbag69
(g90
g71
NtRp3633
(dp3634
g74
(dp3635
sg83
g3620
sg76
(lp3636
g69
(g70
g71
NtRp3637
(dp3638
g74
(dp3639
g82
I4
ssg83
g3633
sg76
(lp3640
S'no-cache'
p3641
asbasbasbag69
(g85
g71
NtRp3642
(dp3643
g74
(dp3644
sg83
g3550
sg76
(lp3645
g69
(g90
g71
NtRp3646
(dp3647
g74
(dp3648
g94
g95
ssg83
g3642
sg76
(lp3649
S'X-Powered-By'
p3650
asbag69
(g90
g71
NtRp3651
(dp3652
g74
(dp3653
g101
g102
ssg83
g3642
sg76
(lp3654
S':'
asbag69
(g90
g71
NtRp3655
(dp3656
g74
(dp3657
sg83
g3642
sg76
(lp3658
g69
(g70
g71
NtRp3659
(dp3660
g74
(dp3661
g82
I4
ssg83
g3655
sg76
(lp3662
S'web2py'
p3663
asbasbasbasbasbasbasbag69
(g85
g71
NtRp3664
(dp3665
g74
(dp3666
sg83
g3212
sg76
(lp3667
g69
(g90
g71
NtRp3668
(dp3669
g74
(dp3670
g94
g95
ssg83
g3664
sg76
(lp3671
S'menu'
p3672
asbag69
(g90
g71
NtRp3673
(dp3674
g74
(dp3675
g101
g102
ssg83
g3664
sg76
(lp3676
S':'
asbag69
(g90
g71
NtRp3677
(dp3678
g74
(dp3679
sg83
g3664
sg76
(lp3680
g69
(g70
g71
NtRp3681
(dp3682
g74
(dp3683
g82
I5
ssg83
g3677
sg76
(lp3684
g69
(g78
g71
NtRp3685
(dp3686
g74
(dp3687
g82
I4
ssg83
Nsg76
(lp3688
g69
(g85
g71
NtRp3689
(dp3690
g74
(dp3691
sg83
g3685
sg76
(lp3692
g69
(g90
g71
NtRp3693
(dp3694
g74
(dp3695
sg83
g3689
sg76
(lp3696
g69
(g70
g71
NtRp3697
(dp3698
g74
(dp3699
g82
I4
ssg83
g3693
sg76
(lp3700
g69
(g78
g71
NtRp3701
(dp3702
g74
(dp3703
g82
I3
ssg83
Nsg76
(lp3704
g69
(g85
g71
NtRp3705
(dp3706
g74
(dp3707
sg83
g3701
sg76
(lp3708
g69
(g90
g71
NtRp3709
(dp3710
g74
(dp3711
sg83
g3705
sg76
(lp3712
g69
(g70
g71
NtRp3713
(dp3714
g74
(dp3715
g82
I3
ssg83
g3709
sg76
(lp3716
cgluon.languages
lazyT_unpickle
p3717
(S't\x04\x00\x00\x00Home'
tRp3718
asbasbasbag69
(g85
g71
NtRp3719
(dp3720
g74
(dp3721
sg83
g3701
sg76
(lp3722
g69
(g90
g71
NtRp3723
(dp3724
g74
(dp3725
sg83
g3719
sg76
(lp3726
g69
(g70
g71
NtRp3727
(dp3728
g74
(dp3729
g82
I3
ssg83
g3723
sg76
(lp3730
g112
asbasbasbag69
(g85
g71
NtRp3731
(dp3732
g74
(dp3733
sg83
g3701
sg76
(lp3734
g69
(g90
g71
NtRp3735
(dp3736
g74
(dp3737
sg83
g3731
sg76
(lp3738
g69
(g70
g71
NtRp3739
(dp3740
g74
(dp3741
g82
I3
ssg83
g3735
sg76
(lp3742
S'/FormalSignUp/default/index'
p3743
asbasbasbag69
(g85
g71
NtRp3744
(dp3745
g74
(dp3746
sg83
g3701
sg76
(lp3747
g69
(g90
g71
NtRp3748
(dp3749
g74
(dp3750
sg83
g3744
sg76
(lp3751
g69
(g70
g71
NtRp3752
(dp3753
g74
(dp3754
g82
I3
ssg83
g3748
sg76
(lp3755
g69
(g78
g71
NtRp3756
(dp3757
g74
(dp3758
g82
I2
ssg83
Nsg76
(lp3759
sbasbasbasbasbasbasbasbag69
(g85
g71
NtRp3760
(dp3761
g74
(dp3762
sg83
g3685
sg76
(lp3763
g69
(g90
g71
NtRp3764
(dp3765
g74
(dp3766
sg83
g3760
sg76
(lp3767
g69
(g70
g71
NtRp3768
(dp3769
g74
(dp3770
g82
I4
ssg83
g3764
sg76
(lp3771
g69
(g78
g71
NtRp3772
(dp3773
g74
(dp3774
g82
I3
ssg83
Nsg76
(lp3775
g69
(g85
g71
NtRp3776
(dp3777
g74
(dp3778
sg83
g3772
sg76
(lp3779
g69
(g90
g71
NtRp3780
(dp3781
g74
(dp3782
sg83
g3776
sg76
(lp3783
g69
(g70
g71
NtRp3784
(dp3785
g74
(dp3786
g82
I3
ssg83
g3780
sg76
(lp3787
g69
(cgluon.html
SPAN
p3788
g71
NtRp3789
(dp3790
g74
(dp3791
g94
S'color:yellow'
p3792
ssg83
Nsg76
(lp3793
g3663
asbasbasbasbag69
(g85
g71
NtRp3794
(dp3795
g74
(dp3796
sg83
g3772
sg76
(lp3797
g69
(g90
g71
NtRp3798
(dp3799
g74
(dp3800
sg83
g3794
sg76
(lp3801
g69
(g70
g71
NtRp3802
(dp3803
g74
(dp3804
g82
I3
ssg83
g3798
sg76
(lp3805
g112
asbasbasbag69
(g85
g71
NtRp3806
(dp3807
g74
(dp3808
sg83
g3772
sg76
(lp3809
g69
(g90
g71
NtRp3810
(dp3811
g74
(dp3812
sg83
g3806
sg76
(lp3813
g69
(g70
g71
NtRp3814
(dp3815
g74
(dp3816
g82
I3
ssg83
g3810
sg76
(lp3817
S'None'
p3818
asbasbasbag69
(g85
g71
NtRp3819
(dp3820
g74
(dp3821
sg83
g3772
sg76
(lp3822
g69
(g90
g71
NtRp3823
(dp3824
g74
(dp3825
sg83
g3819
sg76
(lp3826
g69
(g70
g71
NtRp3827
(dp3828
g74
(dp3829
g82
I3
ssg83
g3823
sg76
(lp3830
g69
(g78
g71
NtRp3831
(dp3832
g74
(dp3833
g82
I2
ssg83
Nsg76
(lp3834
g69
(g85
g71
NtRp3835
(dp3836
g74
(dp3837
sg83
g3831
sg76
(lp3838
g69
(g90
g71
NtRp3839
(dp3840
g74
(dp3841
sg83
g3835
sg76
(lp3842
g69
(g70
g71
NtRp3843
(dp3844
g74
(dp3845
g82
I2
ssg83
g3839
sg76
(lp3846
g69
(g78
g71
NtRp3847
(dp3848
g74
(dp3849
g82
I1
ssg83
Nsg76
(lp3850
g69
(g85
g71
NtRp3851
(dp3852
g74
(dp3853
sg83
g3847
sg76
(lp3854
g69
(g90
g71
NtRp3855
(dp3856
g74
(dp3857
sg83
g3851
sg76
(lp3858
g69
(g70
g71
NtRp3859
(dp3860
g74
(dp3861
g82
I1
ssg83
g3855
sg76
(lp3862
g3717
(S's\x08\x00\x00\x00My Sites'
tRp3863
asbasbasbag69
(g85
g71
NtRp3864
(dp3865
g74
(dp3866
sg83
g3847
sg76
(lp3867
g69
(g90
g71
NtRp3868
(dp3869
g74
(dp3870
sg83
g3864
sg76
(lp3871
g69
(g70
g71
NtRp3872
(dp3873
g74
(dp3874
g82
I1
ssg83
g3868
sg76
(lp3875
I00
asbasbasbag69
(g85
g71
NtRp3876
(dp3877
g74
(dp3878
sg83
g3847
sg76
(lp3879
g69
(g90
g71
NtRp3880
(dp3881
g74
(dp3882
sg83
g3876
sg76
(lp3883
g69
(g70
g71
NtRp3884
(dp3885
g74
(dp3886
g82
I1
ssg83
g3880
sg76
(lp3887
S'/admin/default/site'
p3888
asbasbasbasbasbasbasbag69
(g85
g71
NtRp3889
(dp3890
g74
(dp3891
sg83
g3831
sg76
(lp3892
g69
(g90
g71
NtRp3893
(dp3894
g74
(dp3895
sg83
g3889
sg76
(lp3896
g69
(g70
g71
NtRp3897
(dp3898
g74
(dp3899
g82
I2
ssg83
g3893
sg76
(lp3900
g69
(g78
g71
NtRp3901
(dp3902
g74
(dp3903
g82
I1
ssg83
Nsg76
(lp3904
g69
(g85
g71
NtRp3905
(dp3906
g74
(dp3907
sg83
g3901
sg76
(lp3908
g69
(g90
g71
NtRp3909
(dp3910
g74
(dp3911
sg83
g3905
sg76
(lp3912
g69
(g70
g71
NtRp3913
(dp3914
g74
(dp3915
g82
I1
ssg83
g3909
sg76
(lp3916
g3717
(S's\x08\x00\x00\x00This App'
tRp3917
asbasbasbag69
(g85
g71
NtRp3918
(dp3919
g74
(dp3920
sg83
g3901
sg76
(lp3921
g69
(g90
g71
NtRp3922
(dp3923
g74
(dp3924
sg83
g3918
sg76
(lp3925
g69
(g70
g71
NtRp3926
(dp3927
g74
(dp3928
g82
I1
ssg83
g3922
sg76
(lp3929
I00
asbasbasbag69
(g85
g71
NtRp3930
(dp3931
g74
(dp3932
sg83
g3901
sg76
(lp3933
g69
(g90
g71
NtRp3934
(dp3935
g74
(dp3936
sg83
g3930
sg76
(lp3937
g69
(g70
g71
NtRp3938
(dp3939
g74
(dp3940
g82
I1
ssg83
g3934
sg76
(lp3941
S'/admin/default/design/FormalSignUp'
p3942
asbasbasbag69
(g85
g71
NtRp3943
(dp3944
g74
(dp3945
sg83
g3901
sg76
(lp3946
g69
(g90
g71
NtRp3947
(dp3948
g74
(dp3949
sg83
g3943
sg76
(lp3950
g69
(g70
g71
NtRp3951
(dp3952
g74
(dp3953
g82
I1
ssg83
g3947
sg76
(lp3954
(lp3955
(g3717
(S't\n\x00\x00\x00Controller'
tRp3956
I00
S'/admin/default/edit/FormalSignUp/controllers/default.py'
tp3957
a(g3717
(S't\x04\x00\x00\x00View'
tRp3958
I00
S'/admin/default/edit/FormalSignUp/views/default/index.html'
tp3959
a(g3717
(S't\x06\x00\x00\x00Layout'
tRp3960
I00
S'/admin/default/edit/FormalSignUp/views/layout.html'
tp3961
a(g3717
(S't\n\x00\x00\x00Stylesheet'
tRp3962
I00
S'/admin/default/edit/FormalSignUp/static/css/web2py.css'
tp3963
a(g3717
(S's\x08\x00\x00\x00DB Model'
tRp3964
I00
S'/admin/default/edit/FormalSignUp/models/db.py'
tp3965
a(g3717
(S's\n\x00\x00\x00Menu Model'
tRp3966
I00
S'/admin/default/edit/FormalSignUp/models/menu.py'
tp3967
a(g3717
(S't\x08\x00\x00\x00Database'
tRp3968
I00
S'/FormalSignUp/appadmin/index'
tp3969
a(g3717
(S't\x06\x00\x00\x00Errors'
tRp3970
I00
S'/admin/default/errors/FormalSignUp'
tp3971
a(g3717
(S't\x05\x00\x00\x00About'
tRp3972
I00
S'/admin/default/about/FormalSignUp'
tp3973
aasbasbasbasbasbasbasbag69
(g85
g71
NtRp3974
(dp3975
g74
(dp3976
sg83
g3831
sg76
(lp3977
g69
(g90
g71
NtRp3978
(dp3979
g74
(dp3980
sg83
g3974
sg76
(lp3981
g69
(g70
g71
NtRp3982
(dp3983
g74
(dp3984
g82
I2
ssg83
g3978
sg76
(lp3985
g69
(g78
g71
NtRp3986
(dp3987
g74
(dp3988
g82
I1
ssg83
Nsg76
(lp3989
g69
(g85
g71
NtRp3990
(dp3991
g74
(dp3992
sg83
g3986
sg76
(lp3993
g69
(g90
g71
NtRp3994
(dp3995
g74
(dp3996
sg83
g3990
sg76
(lp3997
g69
(g70
g71
NtRp3998
(dp3999
g74
(dp4000
g82
I1
ssg83
g3994
sg76
(lp4001
S'web2py.com'
p4002
asbasbasbag69
(g85
g71
NtRp4003
(dp4004
g74
(dp4005
sg83
g3986
sg76
(lp4006
g69
(g90
g71
NtRp4007
(dp4008
g74
(dp4009
sg83
g4003
sg76
(lp4010
g69
(g70
g71
NtRp4011
(dp4012
g74
(dp4013
g82
I1
ssg83
g4007
sg76
(lp4014
I00
asbasbasbag69
(g85
g71
NtRp4015
(dp4016
g74
(dp4017
sg83
g3986
sg76
(lp4018
g69
(g90
g71
NtRp4019
(dp4020
g74
(dp4021
sg83
g4015
sg76
(lp4022
g69
(g70
g71
NtRp4023
(dp4024
g74
(dp4025
g82
I1
ssg83
g4019
sg76
(lp4026
S'http://www.web2py.com'
p4027
asbasbasbag69
(g85
g71
NtRp4028
(dp4029
g74
(dp4030
sg83
g3986
sg76
(lp4031
g69
(g90
g71
NtRp4032
(dp4033
g74
(dp4034
sg83
g4028
sg76
(lp4035
g69
(g70
g71
NtRp4036
(dp4037
g74
(dp4038
g82
I1
ssg83
g4032
sg76
(lp4039
(lp4040
(g3717
(S't\x08\x00\x00\x00Download'
tRp4041
I00
S'http://www.web2py.com/examples/default/download'
p4042
tp4043
a(g3717
(S't\x07\x00\x00\x00Support'
tRp4044
I00
S'http://www.web2py.com/examples/default/support'
p4045
tp4046
a(g3717
(S't\x04\x00\x00\x00Demo'
tRp4047
I00
S'http://web2py.com/demo_admin'
p4048
tp4049
a(g3717
(S's\x0e\x00\x00\x00Quick Examples'
tRp4050
I00
S'http://web2py.com/examples/default/examples'
p4051
tp4052
a(g3717
(S't\x03\x00\x00\x00FAQ'
tRp4053
I00
S'http://web2py.com/AlterEgo'
p4054
tp4055
a(g3717
(S't\x06\x00\x00\x00Videos'
tRp4056
I00
S'http://www.web2py.com/examples/default/videos/'
p4057
tp4058
a(g3717
(S's\x11\x00\x00\x00Free Applications'
tRp4059
I00
S'http://web2py.com/appliances'
p4060
tp4061
a(g3717
(S't\x07\x00\x00\x00Plugins'
tRp4062
I00
S'http://web2py.com/plugins'
p4063
tp4064
a(g3717
(S't\x07\x00\x00\x00Layouts'
tRp4065
I00
S'http://web2py.com/layouts'
p4066
tp4067
a(g3717
(S't\x07\x00\x00\x00Recipes'
tRp4068
I00
S'http://web2pyslices.com/'
p4069
tp4070
a(g3717
(S't\x08\x00\x00\x00Semantic'
tRp4071
I00
S'http://web2py.com/semantic'
p4072
tp4073
aasbasbasbasbasbasbasbag69
(g85
g71
NtRp4074
(dp4075
g74
(dp4076
sg83
g3831
sg76
(lp4077
g69
(g90
g71
NtRp4078
(dp4079
g74
(dp4080
sg83
g4074
sg76
(lp4081
g69
(g70
g71
NtRp4082
(dp4083
g74
(dp4084
g82
I2
ssg83
g4078
sg76
(lp4085
g69
(g78
g71
NtRp4086
(dp4087
g74
(dp4088
g82
I1
ssg83
Nsg76
(lp4089
g69
(g85
g71
NtRp4090
(dp4091
g74
(dp4092
sg83
g4086
sg76
(lp4093
g69
(g90
g71
NtRp4094
(dp4095
g74
(dp4096
sg83
g4090
sg76
(lp4097
g69
(g70
g71
NtRp4098
(dp4099
g74
(dp4100
g82
I1
ssg83
g4094
sg76
(lp4101
g3717
(S't\r\x00\x00\x00Documentation'
tRp4102
asbasbasbag69
(g85
g71
NtRp4103
(dp4104
g74
(dp4105
sg83
g4086
sg76
(lp4106
g69
(g90
g71
NtRp4107
(dp4108
g74
(dp4109
sg83
g4103
sg76
(lp4110
g69
(g70
g71
NtRp4111
(dp4112
g74
(dp4113
g82
I1
ssg83
g4107
sg76
(lp4114
I00
asbasbasbag69
(g85
g71
NtRp4115
(dp4116
g74
(dp4117
sg83
g4086
sg76
(lp4118
g69
(g90
g71
NtRp4119
(dp4120
g74
(dp4121
sg83
g4115
sg76
(lp4122
g69
(g70
g71
NtRp4123
(dp4124
g74
(dp4125
g82
I1
ssg83
g4119
sg76
(lp4126
S'http://www.web2py.com/book'
p4127
asbasbasbag69
(g85
g71
NtRp4128
(dp4129
g74
(dp4130
sg83
g4086
sg76
(lp4131
g69
(g90
g71
NtRp4132
(dp4133
g74
(dp4134
sg83
g4128
sg76
(lp4135
g69
(g70
g71
NtRp4136
(dp4137
g74
(dp4138
g82
I1
ssg83
g4132
sg76
(lp4139
(lp4140
(g3717
(S't\x07\x00\x00\x00Preface'
tRp4141
I00
S'http://www.web2py.com/book/default/chapter/00'
p4142
tp4143
a(g3717
(S't\x0c\x00\x00\x00Introduction'
tRp4144
I00
S'http://www.web2py.com/book/default/chapter/01'
p4145
tp4146
a(g3717
(S't\x06\x00\x00\x00Python'
tRp4147
I00
S'http://www.web2py.com/book/default/chapter/02'
p4148
tp4149
a(g3717
(S't\x08\x00\x00\x00Overview'
tRp4150
I00
S'http://www.web2py.com/book/default/chapter/03'
p4151
tp4152
a(g3717
(S's\x08\x00\x00\x00The Core'
tRp4153
I00
S'http://www.web2py.com/book/default/chapter/04'
p4154
tp4155
a(g3717
(S's\t\x00\x00\x00The Views'
tRp4156
I00
S'http://www.web2py.com/book/default/chapter/05'
p4157
tp4158
a(g3717
(S't\x08\x00\x00\x00Database'
tRp4159
I00
S'http://www.web2py.com/book/default/chapter/06'
p4160
tp4161
a(g3717
(S's\x14\x00\x00\x00Forms and Validators'
tRp4162
I00
S'http://www.web2py.com/book/default/chapter/07'
p4163
tp4164
a(g3717
(S's\r\x00\x00\x00Email and SMS'
tRp4165
I00
S'http://www.web2py.com/book/default/chapter/08'
p4166
tp4167
a(g3717
(S's\x0e\x00\x00\x00Access Control'
tRp4168
I00
S'http://www.web2py.com/book/default/chapter/09'
p4169
tp4170
a(g3717
(S't\x08\x00\x00\x00Services'
tRp4171
I00
S'http://www.web2py.com/book/default/chapter/10'
p4172
tp4173
a(g3717
(S's\x0c\x00\x00\x00Ajax Recipes'
tRp4174
I00
S'http://www.web2py.com/book/default/chapter/11'
p4175
tp4176
a(g3717
(S's\x16\x00\x00\x00Components and Plugins'
tRp4177
I00
S'http://www.web2py.com/book/default/chapter/12'
p4178
tp4179
a(g3717
(S's\x12\x00\x00\x00Deployment Recipes'
tRp4180
I00
S'http://www.web2py.com/book/default/chapter/13'
p4181
tp4182
a(g3717
(S's\r\x00\x00\x00Other Recipes'
tRp4183
I00
S'http://www.web2py.com/book/default/chapter/14'
p4184
tp4185
a(g3717
(S's\r\x00\x00\x00Buy this book'
tRp4186
I00
S'http://stores.lulu.com/web2py'
p4187
tp4188
aasbasbasbasbasbasbasbag69
(g85
g71
NtRp4189
(dp4190
g74
(dp4191
sg83
g3831
sg76
(lp4192
g69
(g90
g71
NtRp4193
(dp4194
g74
(dp4195
sg83
g4189
sg76
(lp4196
g69
(g70
g71
NtRp4197
(dp4198
g74
(dp4199
g82
I2
ssg83
g4193
sg76
(lp4200
g69
(g78
g71
NtRp4201
(dp4202
g74
(dp4203
g82
I1
ssg83
Nsg76
(lp4204
g69
(g85
g71
NtRp4205
(dp4206
g74
(dp4207
sg83
g4201
sg76
(lp4208
g69
(g90
g71
NtRp4209
(dp4210
g74
(dp4211
sg83
g4205
sg76
(lp4212
g69
(g70
g71
NtRp4213
(dp4214
g74
(dp4215
g82
I1
ssg83
g4209
sg76
(lp4216
g3717
(S't\t\x00\x00\x00Community'
tRp4217
asbasbasbag69
(g85
g71
NtRp4218
(dp4219
g74
(dp4220
sg83
g4201
sg76
(lp4221
g69
(g90
g71
NtRp4222
(dp4223
g74
(dp4224
sg83
g4218
sg76
(lp4225
g69
(g70
g71
NtRp4226
(dp4227
g74
(dp4228
g82
I1
ssg83
g4222
sg76
(lp4229
I00
asbasbasbag69
(g85
g71
NtRp4230
(dp4231
g74
(dp4232
sg83
g4201
sg76
(lp4233
g69
(g90
g71
NtRp4234
(dp4235
g74
(dp4236
sg83
g4230
sg76
(lp4237
g69
(g70
g71
NtRp4238
(dp4239
g74
(dp4240
g82
I1
ssg83
g4234
sg76
(lp4241
Nasbasbasbag69
(g85
g71
NtRp4242
(dp4243
g74
(dp4244
sg83
g4201
sg76
(lp4245
g69
(g90
g71
NtRp4246
(dp4247
g74
(dp4248
sg83
g4242
sg76
(lp4249
g69
(g70
g71
NtRp4250
(dp4251
g74
(dp4252
g82
I1
ssg83
g4246
sg76
(lp4253
(lp4254
(g3717
(S't\x06\x00\x00\x00Groups'
tRp4255
I00
S'http://www.web2py.com/examples/default/usergroups'
p4256
tp4257
a(g3717
(S't\x07\x00\x00\x00Twitter'
tRp4258
I00
S'http://twitter.com/web2py'
p4259
tp4260
a(g3717
(S's\t\x00\x00\x00Live Chat'
tRp4261
I00
S'http://webchat.freenode.net/?channels=web2py'
p4262
tp4263
aasbasbasbasbasbasbasbag69
(g85
g71
NtRp4264
(dp4265
g74
(dp4266
sg83
g3831
sg76
(lp4267
g69
(g90
g71
NtRp4268
(dp4269
g74
(dp4270
sg83
g4264
sg76
(lp4271
g69
(g70
g71
NtRp4272
(dp4273
g74
(dp4274
g82
I2
ssg83
g4268
sg76
(lp4275
g69
(g78
g71
NtRp4276
(dp4277
g74
(dp4278
g82
I1
ssg83
Nsg76
(lp4279
g69
(g85
g71
NtRp4280
(dp4281
g74
(dp4282
sg83
g4276
sg76
(lp4283
g69
(g90
g71
NtRp4284
(dp4285
g74
(dp4286
sg83
g4280
sg76
(lp4287
g69
(g70
g71
NtRp4288
(dp4289
g74
(dp4290
g82
I1
ssg83
g4284
sg76
(lp4291
g3717
(S't\x07\x00\x00\x00Plugins'
tRp4292
asbasbasbag69
(g85
g71
NtRp4293
(dp4294
g74
(dp4295
sg83
g4276
sg76
(lp4296
g69
(g90
g71
NtRp4297
(dp4298
g74
(dp4299
sg83
g4293
sg76
(lp4300
g69
(g70
g71
NtRp4301
(dp4302
g74
(dp4303
g82
I1
ssg83
g4297
sg76
(lp4304
I00
asbasbasbag69
(g85
g71
NtRp4305
(dp4306
g74
(dp4307
sg83
g4276
sg76
(lp4308
g69
(g90
g71
NtRp4309
(dp4310
g74
(dp4311
sg83
g4305
sg76
(lp4312
g69
(g70
g71
NtRp4313
(dp4314
g74
(dp4315
g82
I1
ssg83
g4309
sg76
(lp4316
Nasbasbasbag69
(g85
g71
NtRp4317
(dp4318
g74
(dp4319
sg83
g4276
sg76
(lp4320
g69
(g90
g71
NtRp4321
(dp4322
g74
(dp4323
sg83
g4317
sg76
(lp4324
g69
(g70
g71
NtRp4325
(dp4326
g74
(dp4327
g82
I1
ssg83
g4321
sg76
(lp4328
(lp4329
(S'plugin_wiki'
p4330
I00
S'http://web2py.com/examples/default/download'
p4331
tp4332
a(g3717
(S's\r\x00\x00\x00Other Plugins'
tRp4333
I00
g4063
tp4334
a(g3717
(S's\x0e\x00\x00\x00Layout Plugins'
tRp4335
I00
g4066
tp4336
aasbasbasbasbasbasbasbasbasbasbasbasbasbasbasbasbasbasbasbag69
(g85
g71
NtRp4337
(dp4338
g74
(dp4339
sg83
g3212
sg76
(lp4340
g69
(g90
g71
NtRp4341
(dp4342
g74
(dp4343
g94
g95
ssg83
g4337
sg76
(lp4344
S'meta'
p4345
asbag69
(g90
g71
NtRp4346
(dp4347
g74
(dp4348
g101
g102
ssg83
g4337
sg76
(lp4349
S':'
asbag69
(g90
g71
NtRp4350
(dp4351
g74
(dp4352
sg83
g4337
sg76
(lp4353
g69
(g70
g71
NtRp4354
(dp4355
g74
(dp4356
g82
I5
ssg83
g4350
sg76
(lp4357
g69
(g78
g71
NtRp4358
(dp4359
g74
(dp4360
g82
I4
ssg83
Nsg76
(lp4361
g69
(g85
g71
NtRp4362
(dp4363
g74
(dp4364
sg83
g4358
sg76
(lp4365
g69
(g90
g71
NtRp4366
(dp4367
g74
(dp4368
g94
g95
ssg83
g4362
sg76
(lp4369
S'author'
p4370
asbag69
(g90
g71
NtRp4371
(dp4372
g74
(dp4373
g101
g102
ssg83
g4362
sg76
(lp4374
S':'
asbag69
(g90
g71
NtRp4375
(dp4376
g74
(dp4377
sg83
g4362
sg76
(lp4378
g69
(g70
g71
NtRp4379
(dp4380
g74
(dp4381
g82
I4
ssg83
g4375
sg76
(lp4382
S'Your Name <you@example.com>'
p4383
asbasbasbag69
(g85
g71
NtRp4384
(dp4385
g74
(dp4386
sg83
g4358
sg76
(lp4387
g69
(g90
g71
NtRp4388
(dp4389
g74
(dp4390
g94
g95
ssg83
g4384
sg76
(lp4391
S'copyright'
p4392
asbag69
(g90
g71
NtRp4393
(dp4394
g74
(dp4395
g101
g102
ssg83
g4384
sg76
(lp4396
S':'
asbag69
(g90
g71
NtRp4397
(dp4398
g74
(dp4399
sg83
g4384
sg76
(lp4400
g69
(g70
g71
NtRp4401
(dp4402
g74
(dp4403
g82
I4
ssg83
g4397
sg76
(lp4404
S'Copyright 2011'
p4405
asbasbasbag69
(g85
g71
NtRp4406
(dp4407
g74
(dp4408
sg83
g4358
sg76
(lp4409
g69
(g90
g71
NtRp4410
(dp4411
g74
(dp4412
g94
g95
ssg83
g4406
sg76
(lp4413
S'description'
p4414
asbag69
(g90
g71
NtRp4415
(dp4416
g74
(dp4417
g101
g102
ssg83
g4406
sg76
(lp4418
S':'
asbag69
(g90
g71
NtRp4419
(dp4420
g74
(dp4421
sg83
g4406
sg76
(lp4422
g69
(g70
g71
NtRp4423
(dp4424
g74
(dp4425
g82
I4
ssg83
g4419
sg76
(lp4426
S'a cool new app'
p4427
asbasbasbag69
(g85
g71
NtRp4428
(dp4429
g74
(dp4430
sg83
g4358
sg76
(lp4431
g69
(g90
g71
NtRp4432
(dp4433
g74
(dp4434
g94
g95
ssg83
g4428
sg76
(lp4435
S'generator'
p4436
asbag69
(g90
g71
NtRp4437
(dp4438
g74
(dp4439
g101
g102
ssg83
g4428
sg76
(lp4440
S':'
asbag69
(g90
g71
NtRp4441
(dp4442
g74
(dp4443
sg83
g4428
sg76
(lp4444
g69
(g70
g71
NtRp4445
(dp4446
g74
(dp4447
g82
I4
ssg83
g4441
sg76
(lp4448
S'Web2py Web Framework'
p4449
asbasbasbag69
(g85
g71
NtRp4450
(dp4451
g74
(dp4452
sg83
g4358
sg76
(lp4453
g69
(g90
g71
NtRp4454
(dp4455
g74
(dp4456
g94
g95
ssg83
g4450
sg76
(lp4457
S'keywords'
p4458
asbag69
(g90
g71
NtRp4459
(dp4460
g74
(dp4461
g101
g102
ssg83
g4450
sg76
(lp4462
S':'
asbag69
(g90
g71
NtRp4463
(dp4464
g74
(dp4465
sg83
g4450
sg76
(lp4466
g69
(g70
g71
NtRp4467
(dp4468
g74
(dp4469
g82
I4
ssg83
g4463
sg76
(lp4470
S'web2py, python, framework'
p4471
asbasbasbasbasbasbasbag69
(g85
g71
NtRp4472
(dp4473
g74
(dp4474
sg83
g3212
sg76
(lp4475
g69
(g90
g71
NtRp4476
(dp4477
g74
(dp4478
g94
g95
ssg83
g4472
sg76
(lp4479
S'postprocessing'
p4480
asbag69
(g90
g71
NtRp4481
(dp4482
g74
(dp4483
g101
g102
ssg83
g4472
sg76
(lp4484
S':'
asbag69
(g90
g71
NtRp4485
(dp4486
g74
(dp4487
sg83
g4472
sg76
(lp4488
g69
(g70
g71
NtRp4489
(dp4490
g74
(dp4491
g82
I5
ssg83
g4485
sg76
(lp4492
g69
(g78
g71
NtRp4493
(dp4494
g74
(dp4495
g82
I4
ssg83
Nsg76
(lp4496
sbasbasbasbag69
(g85
g71
NtRp4497
(dp4498
g74
(dp4499
sg83
g3212
sg76
(lp4500
g69
(g90
g71
NtRp4501
(dp4502
g74
(dp4503
g94
g95
ssg83
g4497
sg76
(lp4504
S'session_file'
p4505
asbag69
(g90
g71
NtRp4506
(dp4507
g74
(dp4508
g101
g102
ssg83
g4497
sg76
(lp4509
S':'
asbag69
(g90
g71
NtRp4510
(dp4511
g74
(dp4512
sg83
g4497
sg76
(lp4513
g69
(g70
g71
NtRp4514
(dp4515
g74
(dp4516
g82
I5
ssg83
g4510
sg76
(lp4517
S"<open file '/home/shaz/Documents/Development/web2py/applications/FormalSignUp/sessions/127.0.0.1-8e485235-b1a7-4d7c-ac78-8aa950c2fff5', mode 'rb+' at 0xa059860>"
p4518
asbasbasbag69
(g85
g71
NtRp4519
(dp4520
g74
(dp4521
sg83
g3212
sg76
(lp4522
g69
(g90
g71
NtRp4523
(dp4524
g74
(dp4525
g94
g95
ssg83
g4519
sg76
(lp4526
S'session_filename'
p4527
asbag69
(g90
g71
NtRp4528
(dp4529
g74
(dp4530
g101
g102
ssg83
g4519
sg76
(lp4531
S':'
asbag69
(g90
g71
NtRp4532
(dp4533
g74
(dp4534
sg83
g4519
sg76
(lp4535
g69
(g70
g71
NtRp4536
(dp4537
g74
(dp4538
g82
I5
ssg83
g4532
sg76
(lp4539
S'/home/shaz/Documents/Development/web2py/applications/FormalSignUp/sessions/127.0.0.1-8e485235-b1a7-4d7c-ac78-8aa950c2fff5'
p4540
asbasbasbag69
(g85
g71
NtRp4541
(dp4542
g74
(dp4543
sg83
g3212
sg76
(lp4544
g69
(g90
g71
NtRp4545
(dp4546
g74
(dp4547
g94
g95
ssg83
g4541
sg76
(lp4548
S'session_id'
p4549
asbag69
(g90
g71
NtRp4550
(dp4551
g74
(dp4552
g101
g102
ssg83
g4541
sg76
(lp4553
S':'
asbag69
(g90
g71
NtRp4554
(dp4555
g74
(dp4556
sg83
g4541
sg76
(lp4557
g69
(g70
g71
NtRp4558
(dp4559
g74
(dp4560
g82
I5
ssg83
g4554
sg76
(lp4561
S'127.0.0.1-8e485235-b1a7-4d7c-ac78-8aa950c2fff5'
p4562
asbasbasbag69
(g85
g71
NtRp4563
(dp4564
g74
(dp4565
sg83
g3212
sg76
(lp4566
g69
(g90
g71
NtRp4567
(dp4568
g74
(dp4569
g94
g95
ssg83
g4563
sg76
(lp4570
S'session_id_name'
p4571
asbag69
(g90
g71
NtRp4572
(dp4573
g74
(dp4574
g101
g102
ssg83
g4563
sg76
(lp4575
S':'
asbag69
(g90
g71
NtRp4576
(dp4577
g74
(dp4578
sg83
g4563
sg76
(lp4579
g69
(g70
g71
NtRp4580
(dp4581
g74
(dp4582
g82
I5
ssg83
g4576
sg76
(lp4583
g3269
asbasbasbag69
(g85
g71
NtRp4584
(dp4585
g74
(dp4586
sg83
g3212
sg76
(lp4587
g69
(g90
g71
NtRp4588
(dp4589
g74
(dp4590
g94
g95
ssg83
g4584
sg76
(lp4591
S'session_locked'
p4592
asbag69
(g90
g71
NtRp4593
(dp4594
g74
(dp4595
g101
g102
ssg83
g4584
sg76
(lp4596
S':'
asbag69
(g90
g71
NtRp4597
(dp4598
g74
(dp4599
sg83
g4584
sg76
(lp4600
g69
(g70
g71
NtRp4601
(dp4602
g74
(dp4603
g82
I5
ssg83
g4597
sg76
(lp4604
g1505
asbasbasbag69
(g85
g71
NtRp4605
(dp4606
g74
(dp4607
sg83
g3212
sg76
(lp4608
g69
(g90
g71
NtRp4609
(dp4610
g74
(dp4611
g94
g95
ssg83
g4605
sg76
(lp4612
S'session_new'
p4613
asbag69
(g90
g71
NtRp4614
(dp4615
g74
(dp4616
g101
g102
ssg83
g4605
sg76
(lp4617
S':'
asbag69
(g90
g71
NtRp4618
(dp4619
g74
(dp4620
sg83
g4605
sg76
(lp4621
g69
(g70
g71
NtRp4622
(dp4623
g74
(dp4624
g82
I5
ssg83
g4618
sg76
(lp4625
g112
asbasbasbag69
(g85
g71
NtRp4626
(dp4627
g74
(dp4628
sg83
g3212
sg76
(lp4629
g69
(g90
g71
NtRp4630
(dp4631
g74
(dp4632
g94
g95
ssg83
g4626
sg76
(lp4633
S'status'
p4634
asbag69
(g90
g71
NtRp4635
(dp4636
g74
(dp4637
g101
g102
ssg83
g4626
sg76
(lp4638
S':'
asbag69
(g90
g71
NtRp4639
(dp4640
g74
(dp4641
sg83
g4626
sg76
(lp4642
g69
(g70
g71
NtRp4643
(dp4644
g74
(dp4645
g82
I5
ssg83
g4639
sg76
(lp4646
S'200'
p4647
asbasbasbag69
(g85
g71
NtRp4648
(dp4649
g74
(dp4650
sg83
g3212
sg76
(lp4651
g69
(g90
g71
NtRp4652
(dp4653
g74
(dp4654
g94
g95
ssg83
g4648
sg76
(lp4655
S'subtitle'
p4656
asbag69
(g90
g71
NtRp4657
(dp4658
g74
(dp4659
g101
g102
ssg83
g4648
sg76
(lp4660
S':'
asbag69
(g90
g71
NtRp4661
(dp4662
g74
(dp4663
sg83
g4648
sg76
(lp4664
g69
(g70
g71
NtRp4665
(dp4666
g74
(dp4667
g82
I5
ssg83
g4661
sg76
(lp4668
g3717
(S's\r\x00\x00\x00customize me!'
tRp4669
asbasbasbag69
(g85
g71
NtRp4670
(dp4671
g74
(dp4672
sg83
g3212
sg76
(lp4673
g69
(g90
g71
NtRp4674
(dp4675
g74
(dp4676
g94
g95
ssg83
g4670
sg76
(lp4677
S'title'
p4678
asbag69
(g90
g71
NtRp4679
(dp4680
g74
(dp4681
g101
g102
ssg83
g4670
sg76
(lp4682
S':'
asbag69
(g90
g71
NtRp4683
(dp4684
g74
(dp4685
sg83
g4670
sg76
(lp4686
g69
(g70
g71
NtRp4687
(dp4688
g74
(dp4689
g82
I5
ssg83
g4683
sg76
(lp4690
S'Formalsignup'
p4691
asbasbasbag69
(g85
g71
NtRp4692
(dp4693
g74
(dp4694
sg83
g3212
sg76
(lp4695
g69
(g90
g71
NtRp4696
(dp4697
g74
(dp4698
g94
g95
ssg83
g4692
sg76
(lp4699
g2169
asbag69
(g90
g71
NtRp4700
(dp4701
g74
(dp4702
g101
g102
ssg83
g4692
sg76
(lp4703
S':'
asbag69
(g90
g71
NtRp4704
(dp4705
g74
(dp4706
sg83
g4692
sg76
(lp4707
g69
(g70
g71
NtRp4708
(dp4709
g74
(dp4710
g82
I5
ssg83
g4704
sg76
(lp4711
g2182
asbasbasbag69
(g85
g71
NtRp4712
(dp4713
g74
(dp4714
sg83
g3212
sg76
(lp4715
g69
(g90
g71
NtRp4716
(dp4717
g74
(dp4718
g94
g95
ssg83
g4712
sg76
(lp4719
S'view'
p4720
asbag69
(g90
g71
NtRp4721
(dp4722
g74
(dp4723
g101
g102
ssg83
g4712
sg76
(lp4724
S':'
asbag69
(g90
g71
NtRp4725
(dp4726
g74
(dp4727
sg83
g4712
sg76
(lp4728
g69
(g70
g71
NtRp4729
(dp4730
g74
(dp4731
g82
I5
ssg83
g4725
sg76
(lp4732
S'default/index.html'
p4733
asbasbasbasbasbsS'locals'
p4734
(dp4735
g4
S"'/home/shaz/Documents/Development/web2py/applications/FormalSignUp/views/default/index.html'"
p4736
sg6
S'\'response.write(\\\'<!DOCTYPE html>\\\\n<html lang="en"...ite(\\\' -->\\\\n\\\\n  </body>\\\\n</html>\\\\n\\\', escape=False)\''
p4737
sssS'traceback'
p4738
S'Traceback (most recent call last):\n  File "/home/shaz/Documents/Development/web2py/gluon/restricted.py", line 203, in restricted\n    ccode = compile2(code,layer)\n  File "/home/shaz/Documents/Development/web2py/gluon/restricted.py", line 189, in compile2\n    return compile(code.rstrip().replace(\'\\r\\n\',\'\\n\')+\'\\n\', layer, \'exec\')\n  File "/home/shaz/Documents/Development/web2py/applications/FormalSignUp/views/default/index.html", line 37\n    response.write(\'\\n\', escape=False)\n           ^\nSyntaxError: invalid syntax\n'
p4739
s.