(dp1
S'output'
p2
S"<type 'exceptions.SyntaxError'> invalid syntax (index.html, line 36)"
p3
sS'layer'
p4
S'/home/shaz/Documents/Development/web2py/applications/FormalSignUp/views/default/index.html'
p5
sS'code'
p6
S'response.write(\'<!DOCTYPE html>\\n<html lang="en">\\n  <head>\\n    <meta charset="utf-8">\\n    <title>Rude Apps</title>\\n    <meta name="description" content="">\\n    <meta name="author" content="">\\n\\n    <!-- Le HTML5 shim, for IE6-8 support of HTML elements -->\\n    <!--[if lt IE 9]>\\n      <script src="http://html5shim.googlecode.com/svn/trunk/html5.js"></script>\\n    <![endif]-->\\n\\n    <!-- Le styles -->\\n\\n      \', escape=False)\nresponse.files.append(URL(\'static\',\'css/bootstrap.css\'))\nresponse.files.append(URL(\'static\',\'css/custom.css\'))\nresponse.files.append(URL(\'static\',\'css/superfish.css\'))\nresponse.files.append(URL(\'static\',\'js/superfish.js\'))\nresponse.files.append(URL(\'static\',\'js/superfish.js\'))\nresponse.files.append(URL(\'static\',\'js/bootstrap-transition.js\'))\nresponse.files.append(URL(\'static\',\'js/bootstrap-alert.js\'))\nresponse.files.append(URL(\'static\',\'js/bootstrap-modal.js\'))\nresponse.files.append(URL(\'static\',\'js/bootstrap-dropdown.js\'))\nresponse.files.append(URL(\'static\',\'js/bootstrap-tab.js.js\'))\nresponse.files.append(URL(\'static\',\'js/bootstrap-popover.js\'))\nresponse.files.append(URL(\'static\',\'js/bootstrap-button.js\'))\nresponse.files.append(URL(\'static\',\'js/bootstrap-collapse.js\'))\nresponse.files.append(URL(\'static\',\'js/bootstrap-carousel.js\'))\nresponse.files.append(URL(\'static\',\'js/bootstrap-typeahead.js\'))\nresponse.write(\'\\n\\n  \', escape=False)\nresponse.write(\'<script type="text/javascript"><!--\\n    // These variables are used by the web2py_ajax_init function in web2py_ajax.js (which is loaded below).\\n    var w2p_ajax_confirm_message = "\', escape=False)\nresponse.write(T(\'Are you sure you want to delete this object?\'))\nresponse.write(\'";\\n    var w2p_ajax_date_format = "\', escape=False)\nresponse.write(T(\'%Y-%m-%d\'))\nresponse.write(\'";\\n    var w2p_ajax_datetime_format = "\', escape=False)\nresponse.write(T(\'%Y-%m-%d %H:%M:%S\'))\nresponse.write(\'";\\n    //--></script>\\n\', escape=False)\nresponse.files.insert(0,URL(\'static\',\'js/jquery.js\'))\nresponse.files.insert(1,URL(\'static\',\'css/calendar.css\'))\nresponse.files.insert(2,URL(\'static\',\'js/calendar.js\'))\nresponse.files.insert(3,URL(\'static\',\'js/web2py.js\'))\nresponse.include_meta()\nresponse.include_files()\nresponse.write(\'\\n\', escape=False)\nresponse.write(\'\\n\\n    <!-- <link href="css/bootstrap.css" rel="stylesheet">\\n    <link href="css/custom.css" rel="stylesheet">\\n    <link href="css/bootstrap-responsive.css" rel="stylesheet"> -->\\n    <style>\\n    body{\\n      padding-top:62px;\\n    }\\n\\n    div.row small{\\n      padding-left: 22px;\\n      color:#eee;\\n      text-decoration:bold;\\n    }\\n    </style>\\n\\n  </head>\\n\\n  <body>\\n\\n    <div class="container">\\n\\n\\n      <div class="row">\\n\\n        <div class="span6 offset3">\\n\\n          <div class="row">\\n                <small></small><a class="btn btn-small pull-right" href="/logout">\\n            <i class="icon-off"></i>&nbsp;Logout</a>\\n          </div>\\n          <div class="well shadow nav-pad">\\n                \', escape=False)\nresponse.write(\'\\n<h2>Current Formals</h2>\\n\\n<hr />\\n<div class="row">\\n  <div class="span4">\\n    <h3>FORMAL 1</h3>\\n  </div>\\n  <div class="span1">\\n   <!--  <% if @f_places > 0 %>\\n      <button class="btn btn-success" data-toggle="modal" href="#commitModal">Available!</button>\\n    <% else %>\\n      <button class="btn btn-danger" data-toggle="modal" href="#sorryModal">It\\\'s&nbsp;Full!</button>\\n    <% end %> -->\\n  </div>\\n</div>\\n<p><span class="label label-warning">Opens at</span>&nbsp;SIGNUP DATETIME</p>\\n<br />\\n\\n\', escape=False)\nfor formal in formals:\n    response.write(\'\\n\', escape=False)\n    <div class="row">\n    <div class="span4">\n    <h3>FORMAL 1</h3>\n    </div>\n    <div class="span1">\n    <!--  <% if @f_places > 0 %>\n    <button class="btn btn-success" data-toggle="modal" href="#commitModal">Available!</button>\n    <% else %>\n    <button class="btn btn-danger" data-toggle="modal" href="#sorryModal">It\'s&nbsp;Full!</button>\n    <% end %> -->\n    </div>\n    </div>\n    <p><span class="label label-warning">Opens at</span>&nbsp;SIGNUP DATETIME</p>\n    <br />\n    response.write(\'\\n\', escape=False)\n    pass\nresponse.write(\'\\n\\n<div class="row">\\n  <div class="span4">\\n    <h3>FORMAL 2</h3>\\n  </div>\\n  <div class="span1">\\n   <!--  <% if @f_places > 0 %>\\n      <button class="btn btn-success" data-toggle="modal" href="#commitModal">Available!</button>\\n    <% else %>\\n      <button class="btn btn-danger" data-toggle="modal" href="#sorryModal">It\\\'s&nbsp;Full!</button>\\n    <% end %> -->\\n  </div>\\n</div>\\n<p><span class="label label-warning">Opens at</span>&nbsp;SIGNUP DATETIME</p>\\n<br />\\n\\n<!-- MODALS -->\\n  <!-- #commitModal -->\\n    <div class="modal hide fade" id="commitModal">\\n      <div class="modal-header">\\n        <a class="close" data-dismiss="modal">\\xc3\\x97</a>\\n        <h3>FORMAL DATE</h3>\\n      </div>\\n      <div class="modal-body">\\n        <h4>FORMAL_PLACES_NUMBER places left!</h4>\\n        <br />\\n        <strong>are you ready for a commitment?</strong>\\n        <br />\\n        <p>Sign up opens at <strong>SIGNUP DATETIME</strong>.</p>\\n      </div>\\n      <div class="modal-footer">\\n        <a href="#" class="btn btn-success">Commit</a>\\n        <a href="#" class="btn btn-warning" data-dismiss="modal">Cancel</a>\\n      </div>\\n    </div>\\n  <!-- END #commitModal -->\\n  \\n  <!-- #sorryModal -->\\n    <div class="modal hide fade" id="sorryModal">\\n      <div class="modal-header">\\n        <a class="close" data-dismiss="modal">\\xc3\\x97</a>\\n        <h3>sorry...</h3>\\n      </div>\\n      <div class="modal-body">\\n        <strong><em>you\\\'re too late!</em></strong>\\n      </div>\\n      <div class="modal-footer">\\n        <a href="#" class="btn" data-dismiss="modal">Close</a>\\n      </div>\\n    </div>\\n  <!-- END #sorryModal -->\\n\\n<br />\\n</div>\', escape=False)\nresponse.write(\'\\n          </div>\\n        </div>\\n\\n\\n        <footer>\\n        <p>Designed and developed by <a href="http://twitter.com/yewchoontay">@yewchoontay</a> and <a href="http://twitter.com/khan_shezad">@khan_shezad</a>.</p>\\n      </footer>\\n\\n    </div> <!-- /container -->\\n\\n    <!-- Le javascript\\n    ================================================== -->\\n    <!-- Placed at the end of the document so the pages load faster -->\\n    // <script src="https://ajax.googleapis.com/ajax/libs/jquery/1.7.1/jquery.min.js"></script>\\n    <!-- // <script src="js/bootstrap-transition.js"></script>\\n    // <script src="js/bootstrap-alert.js"></script>\\n    // <script src="js/bootstrap-modal.js"></script>\\n    // <script src="js/bootstrap-dropdown.js"></script>\\n    // <script src="js/bootstrap-scrollspy.js"></script>\\n    // <script src="js/bootstrap-tab.js"></script>\\n    // <script src="js/bootstrap-tooltip.js"></script>\\n    // <script src="js/bootstrap-popover.js"></script>\\n    // <script src="js/bootstrap-button.js"></script>\\n    // <script src="js/bootstrap-collapse.js"></script>\\n    // <script src="js/bootstrap-carousel.js"></script>\\n    // <script src="js/bootstrap-typeahead.js"></script> -->\\n\\n    <!-- \', escape=False)\nresponse.files.append(URL(\'static\',\'js/superfish.js\'))\nresponse.files.append(URL(\'static\',\'js/bootstrap-transition.js\'))\nresponse.files.append(URL(\'static\',\'js/bootstrap-alert.js\'))\nresponse.files.append(URL(\'static\',\'js/bootstrap-modal.js\'))\nresponse.files.append(URL(\'static\',\'js/bootstrap-dropdown.js\'))\nresponse.files.append(URL(\'static\',\'js/bootstrap-tab.js.js\'))\nresponse.files.append(URL(\'static\',\'js/bootstrap-popover.js\'))\nresponse.files.append(URL(\'static\',\'js/bootstrap-button.js\'))\nresponse.files.append(URL(\'static\',\'js/bootstrap-collapse.js\'))\nresponse.files.append(URL(\'static\',\'js/bootstrap-carousel.js\'))\nresponse.files.append(URL(\'static\',\'js/bootstrap-typeahead.js\'))\nresponse.write(\' -->\\n\\n  </body>\\n</html>\\n\', escape=False)'
p7
sS'snapshot'
p8
(dp9
S'exception'
p10
(dp11
S'__getslice__'
p12
S"<method-wrapper '__getslice__' of exceptions.SyntaxError object>"
p13
sS'text'
p14
S'\'    <div class="row">\\n\''
p15
sS'__str__'
p16
S"<method-wrapper '__str__' of exceptions.SyntaxError object>"
p17
sS'__reduce__'
p18
S'<built-in method __reduce__ of exceptions.SyntaxError object>'
p19
sS'__dict__'
p20
S'{}'
p21
sS'__sizeof__'
p22
S'<built-in method __sizeof__ of exceptions.SyntaxError object>'
p23
sS'__init__'
p24
S"<method-wrapper '__init__' of exceptions.SyntaxError object>"
p25
sS'__setattr__'
p26
S"<method-wrapper '__setattr__' of exceptions.SyntaxError object>"
p27
sS'__reduce_ex__'
p28
S'<built-in method __reduce_ex__ of exceptions.SyntaxError object>'
p29
sS'__new__'
p30
S'<built-in method __new__ of type object>'
p31
sS'__format__'
p32
S'<built-in method __format__ of exceptions.SyntaxError object>'
p33
sS'__class__'
p34
S"<type 'exceptions.SyntaxError'>"
p35
sS'filename'
p36
S"'/home/shaz/Documents/Development/web2py/applications/FormalSignUp/views/default/index.html'"
p37
sS'lineno'
p38
S'36'
p39
sS'msg'
p40
S"'invalid syntax'"
p41
sS'__doc__'
p42
S"'Invalid syntax.'"
p43
sS'__getitem__'
p44
S"<method-wrapper '__getitem__' of exceptions.SyntaxError object>"
p45
sS'__setstate__'
p46
S'<built-in method __setstate__ of exceptions.SyntaxError object>'
p47
sS'__getattribute__'
p48
S"<method-wrapper '__getattribute__' of exceptions.SyntaxError object>"
p49
sS'print_file_and_line'
p50
S'None'
p51
sS'args'
p52
S'(\'invalid syntax\', (\'/home/shaz/Documents/Development/web2py/applications/FormalSignUp/views/default/index.html\', 36, 5, \'    <div class="row">\\n\'))'
p53
sS'__subclasshook__'
p54
S'<built-in method __subclasshook__ of type object>'
p55
sS'offset'
p56
S'5'
sS'__unicode__'
p57
S'<built-in method __unicode__ of exceptions.SyntaxError object>'
p58
sS'__delattr__'
p59
S"<method-wrapper '__delattr__' of exceptions.SyntaxError object>"
p60
sS'__repr__'
p61
S"<method-wrapper '__repr__' of exceptions.SyntaxError object>"
p62
sS'__hash__'
p63
S"<method-wrapper '__hash__' of exceptions.SyntaxError object>"
p64
ssS'evalue'
p65
S'invalid syntax (index.html, line 36)'
p66
sS'request'
p67
ccopy_reg
_reconstructor
p68
(cgluon.html
BEAUTIFY
p69
c__builtin__
object
p70
NtRp71
(dp72
S'attributes'
p73
(dp74
sS'components'
p75
(lp76
g68
(cgluon.html
TABLE
p77
g70
NtRp78
(dp79
g73
(dp80
S'level'
p81
I5
ssS'parent'
p82
Nsg75
(lp83
g68
(cgluon.html
TR
p84
g70
NtRp85
(dp86
g73
(dp87
sg82
g78
sg75
(lp88
g68
(cgluon.html
TD
p89
g70
NtRp90
(dp91
g73
(dp92
S'_style'
p93
S'font-weight:bold;vertical-align:top'
p94
ssg82
g85
sg75
(lp95
S'ajax'
p96
asbag68
(g89
g70
NtRp97
(dp98
g73
(dp99
S'_valign'
p100
S'top'
p101
ssg82
g85
sg75
(lp102
S':'
asbag68
(g89
g70
NtRp103
(dp104
g73
(dp105
sg82
g85
sg75
(lp106
g68
(g69
g70
NtRp107
(dp108
g73
(dp109
g81
I5
ssg82
g103
sg75
(lp110
S'False'
p111
asbasbasbag68
(g84
g70
NtRp112
(dp113
g73
(dp114
sg82
g78
sg75
(lp115
g68
(g89
g70
NtRp116
(dp117
g73
(dp118
g93
g94
ssg82
g112
sg75
(lp119
S'application'
p120
asbag68
(g89
g70
NtRp121
(dp122
g73
(dp123
g100
g101
ssg82
g112
sg75
(lp124
S':'
asbag68
(g89
g70
NtRp125
(dp126
g73
(dp127
sg82
g112
sg75
(lp128
g68
(g69
g70
NtRp129
(dp130
g73
(dp131
g81
I5
ssg82
g125
sg75
(lp132
S'FormalSignUp'
p133
asbasbasbag68
(g84
g70
NtRp134
(dp135
g73
(dp136
sg82
g78
sg75
(lp137
g68
(g89
g70
NtRp138
(dp139
g73
(dp140
g93
g94
ssg82
g134
sg75
(lp141
g52
asbag68
(g89
g70
NtRp142
(dp143
g73
(dp144
g100
g101
ssg82
g134
sg75
(lp145
S':'
asbag68
(g89
g70
NtRp146
(dp147
g73
(dp148
sg82
g134
sg75
(lp149
g68
(g69
g70
NtRp150
(dp151
g73
(dp152
g81
I5
ssg82
g146
sg75
(lp153
g68
(g77
g70
NtRp154
(dp155
g73
(dp156
g81
I4
ssg82
Nsg75
(lp157
sbasbasbasbag68
(g84
g70
NtRp158
(dp159
g73
(dp160
sg82
g78
sg75
(lp161
g68
(g89
g70
NtRp162
(dp163
g73
(dp164
g93
g94
ssg82
g158
sg75
(lp165
S'body'
p166
asbag68
(g89
g70
NtRp167
(dp168
g73
(dp169
g100
g101
ssg82
g158
sg75
(lp170
S':'
asbag68
(g89
g70
NtRp171
(dp172
g73
(dp173
sg82
g158
sg75
(lp174
g68
(g69
g70
NtRp175
(dp176
g73
(dp177
g81
I5
ssg82
g171
sg75
(lp178
S'<cStringIO.StringO object at 0x9f88ce0>'
p179
asbasbasbag68
(g84
g70
NtRp180
(dp181
g73
(dp182
sg82
g78
sg75
(lp183
g68
(g89
g70
NtRp184
(dp185
g73
(dp186
g93
g94
ssg82
g180
sg75
(lp187
S'client'
p188
asbag68
(g89
g70
NtRp189
(dp190
g73
(dp191
g100
g101
ssg82
g180
sg75
(lp192
S':'
asbag68
(g89
g70
NtRp193
(dp194
g73
(dp195
sg82
g180
sg75
(lp196
g68
(g69
g70
NtRp197
(dp198
g73
(dp199
g81
I5
ssg82
g193
sg75
(lp200
S'127.0.0.1'
p201
asbasbasbag68
(g84
g70
NtRp202
(dp203
g73
(dp204
sg82
g78
sg75
(lp205
g68
(g89
g70
NtRp206
(dp207
g73
(dp208
g93
g94
ssg82
g202
sg75
(lp209
S'controller'
p210
asbag68
(g89
g70
NtRp211
(dp212
g73
(dp213
g100
g101
ssg82
g202
sg75
(lp214
S':'
asbag68
(g89
g70
NtRp215
(dp216
g73
(dp217
sg82
g202
sg75
(lp218
g68
(g69
g70
NtRp219
(dp220
g73
(dp221
g81
I5
ssg82
g215
sg75
(lp222
S'default'
p223
asbasbasbag68
(g84
g70
NtRp224
(dp225
g73
(dp226
sg82
g78
sg75
(lp227
g68
(g89
g70
NtRp228
(dp229
g73
(dp230
g93
g94
ssg82
g224
sg75
(lp231
S'cookies'
p232
asbag68
(g89
g70
NtRp233
(dp234
g73
(dp235
g100
g101
ssg82
g224
sg75
(lp236
S':'
asbag68
(g89
g70
NtRp237
(dp238
g73
(dp239
sg82
g224
sg75
(lp240
g68
(g69
g70
NtRp241
(dp242
g73
(dp243
g81
I5
ssg82
g237
sg75
(lp244
g68
(g77
g70
NtRp245
(dp246
g73
(dp247
g81
I4
ssg82
Nsg75
(lp248
g68
(g84
g70
NtRp249
(dp250
g73
(dp251
sg82
g245
sg75
(lp252
g68
(g89
g70
NtRp253
(dp254
g73
(dp255
g93
g94
ssg82
g249
sg75
(lp256
S'session_id_admin'
p257
asbag68
(g89
g70
NtRp258
(dp259
g73
(dp260
g100
g101
ssg82
g249
sg75
(lp261
S':'
asbag68
(g89
g70
NtRp262
(dp263
g73
(dp264
sg82
g249
sg75
(lp265
g68
(g69
g70
NtRp266
(dp267
g73
(dp268
g81
I4
ssg82
g262
sg75
(lp269
g68
(g77
g70
NtRp270
(dp271
g73
(dp272
g81
I3
ssg82
Nsg75
(lp273
g68
(g84
g70
NtRp274
(dp275
g73
(dp276
sg82
g270
sg75
(lp277
g68
(g89
g70
NtRp278
(dp279
g73
(dp280
g93
g94
ssg82
g274
sg75
(lp281
S'comment'
p282
asbag68
(g89
g70
NtRp283
(dp284
g73
(dp285
g100
g101
ssg82
g274
sg75
(lp286
S':'
asbag68
(g89
g70
NtRp287
(dp288
g73
(dp289
sg82
g274
sg75
(lp290
g68
(g69
g70
NtRp291
(dp292
g73
(dp293
g81
I3
ssg82
g287
sg75
(lp294
S''
asbasbasbag68
(g84
g70
NtRp295
(dp296
g73
(dp297
sg82
g270
sg75
(lp298
g68
(g89
g70
NtRp299
(dp300
g73
(dp301
g93
g94
ssg82
g295
sg75
(lp302
S'domain'
p303
asbag68
(g89
g70
NtRp304
(dp305
g73
(dp306
g100
g101
ssg82
g295
sg75
(lp307
S':'
asbag68
(g89
g70
NtRp308
(dp309
g73
(dp310
sg82
g295
sg75
(lp311
g68
(g69
g70
NtRp312
(dp313
g73
(dp314
g81
I3
ssg82
g308
sg75
(lp315
S''
asbasbasbag68
(g84
g70
NtRp316
(dp317
g73
(dp318
sg82
g270
sg75
(lp319
g68
(g89
g70
NtRp320
(dp321
g73
(dp322
g93
g94
ssg82
g316
sg75
(lp323
S'expires'
p324
asbag68
(g89
g70
NtRp325
(dp326
g73
(dp327
g100
g101
ssg82
g316
sg75
(lp328
S':'
asbag68
(g89
g70
NtRp329
(dp330
g73
(dp331
sg82
g316
sg75
(lp332
g68
(g69
g70
NtRp333
(dp334
g73
(dp335
g81
I3
ssg82
g329
sg75
(lp336
S''
asbasbasbag68
(g84
g70
NtRp337
(dp338
g73
(dp339
sg82
g270
sg75
(lp340
g68
(g89
g70
NtRp341
(dp342
g73
(dp343
g93
g94
ssg82
g337
sg75
(lp344
S'httponly'
p345
asbag68
(g89
g70
NtRp346
(dp347
g73
(dp348
g100
g101
ssg82
g337
sg75
(lp349
S':'
asbag68
(g89
g70
NtRp350
(dp351
g73
(dp352
sg82
g337
sg75
(lp353
g68
(g69
g70
NtRp354
(dp355
g73
(dp356
g81
I3
ssg82
g350
sg75
(lp357
S''
asbasbasbag68
(g84
g70
NtRp358
(dp359
g73
(dp360
sg82
g270
sg75
(lp361
g68
(g89
g70
NtRp362
(dp363
g73
(dp364
g93
g94
ssg82
g358
sg75
(lp365
S'max-age'
p366
asbag68
(g89
g70
NtRp367
(dp368
g73
(dp369
g100
g101
ssg82
g358
sg75
(lp370
S':'
asbag68
(g89
g70
NtRp371
(dp372
g73
(dp373
sg82
g358
sg75
(lp374
g68
(g69
g70
NtRp375
(dp376
g73
(dp377
g81
I3
ssg82
g371
sg75
(lp378
S''
asbasbasbag68
(g84
g70
NtRp379
(dp380
g73
(dp381
sg82
g270
sg75
(lp382
g68
(g89
g70
NtRp383
(dp384
g73
(dp385
g93
g94
ssg82
g379
sg75
(lp386
S'path'
p387
asbag68
(g89
g70
NtRp388
(dp389
g73
(dp390
g100
g101
ssg82
g379
sg75
(lp391
S':'
asbag68
(g89
g70
NtRp392
(dp393
g73
(dp394
sg82
g379
sg75
(lp395
g68
(g69
g70
NtRp396
(dp397
g73
(dp398
g81
I3
ssg82
g392
sg75
(lp399
S''
asbasbasbag68
(g84
g70
NtRp400
(dp401
g73
(dp402
sg82
g270
sg75
(lp403
g68
(g89
g70
NtRp404
(dp405
g73
(dp406
g93
g94
ssg82
g400
sg75
(lp407
S'secure'
p408
asbag68
(g89
g70
NtRp409
(dp410
g73
(dp411
g100
g101
ssg82
g400
sg75
(lp412
S':'
asbag68
(g89
g70
NtRp413
(dp414
g73
(dp415
sg82
g400
sg75
(lp416
g68
(g69
g70
NtRp417
(dp418
g73
(dp419
g81
I3
ssg82
g413
sg75
(lp420
S''
asbasbasbag68
(g84
g70
NtRp421
(dp422
g73
(dp423
sg82
g270
sg75
(lp424
g68
(g89
g70
NtRp425
(dp426
g73
(dp427
g93
g94
ssg82
g421
sg75
(lp428
S'version'
p429
asbag68
(g89
g70
NtRp430
(dp431
g73
(dp432
g100
g101
ssg82
g421
sg75
(lp433
S':'
asbag68
(g89
g70
NtRp434
(dp435
g73
(dp436
sg82
g421
sg75
(lp437
g68
(g69
g70
NtRp438
(dp439
g73
(dp440
g81
I3
ssg82
g434
sg75
(lp441
S''
asbasbasbasbasbasbasbag68
(g84
g70
NtRp442
(dp443
g73
(dp444
sg82
g245
sg75
(lp445
g68
(g89
g70
NtRp446
(dp447
g73
(dp448
g93
g94
ssg82
g442
sg75
(lp449
S'session_id_formalsignup'
p450
asbag68
(g89
g70
NtRp451
(dp452
g73
(dp453
g100
g101
ssg82
g442
sg75
(lp454
S':'
asbag68
(g89
g70
NtRp455
(dp456
g73
(dp457
sg82
g442
sg75
(lp458
g68
(g69
g70
NtRp459
(dp460
g73
(dp461
g81
I4
ssg82
g455
sg75
(lp462
g68
(g77
g70
NtRp463
(dp464
g73
(dp465
g81
I3
ssg82
Nsg75
(lp466
g68
(g84
g70
NtRp467
(dp468
g73
(dp469
sg82
g463
sg75
(lp470
g68
(g89
g70
NtRp471
(dp472
g73
(dp473
g93
g94
ssg82
g467
sg75
(lp474
g282
asbag68
(g89
g70
NtRp475
(dp476
g73
(dp477
g100
g101
ssg82
g467
sg75
(lp478
S':'
asbag68
(g89
g70
NtRp479
(dp480
g73
(dp481
sg82
g467
sg75
(lp482
g68
(g69
g70
NtRp483
(dp484
g73
(dp485
g81
I3
ssg82
g479
sg75
(lp486
S''
asbasbasbag68
(g84
g70
NtRp487
(dp488
g73
(dp489
sg82
g463
sg75
(lp490
g68
(g89
g70
NtRp491
(dp492
g73
(dp493
g93
g94
ssg82
g487
sg75
(lp494
g303
asbag68
(g89
g70
NtRp495
(dp496
g73
(dp497
g100
g101
ssg82
g487
sg75
(lp498
S':'
asbag68
(g89
g70
NtRp499
(dp500
g73
(dp501
sg82
g487
sg75
(lp502
g68
(g69
g70
NtRp503
(dp504
g73
(dp505
g81
I3
ssg82
g499
sg75
(lp506
S''
asbasbasbag68
(g84
g70
NtRp507
(dp508
g73
(dp509
sg82
g463
sg75
(lp510
g68
(g89
g70
NtRp511
(dp512
g73
(dp513
g93
g94
ssg82
g507
sg75
(lp514
g324
asbag68
(g89
g70
NtRp515
(dp516
g73
(dp517
g100
g101
ssg82
g507
sg75
(lp518
S':'
asbag68
(g89
g70
NtRp519
(dp520
g73
(dp521
sg82
g507
sg75
(lp522
g68
(g69
g70
NtRp523
(dp524
g73
(dp525
g81
I3
ssg82
g519
sg75
(lp526
S''
asbasbasbag68
(g84
g70
NtRp527
(dp528
g73
(dp529
sg82
g463
sg75
(lp530
g68
(g89
g70
NtRp531
(dp532
g73
(dp533
g93
g94
ssg82
g527
sg75
(lp534
g345
asbag68
(g89
g70
NtRp535
(dp536
g73
(dp537
g100
g101
ssg82
g527
sg75
(lp538
S':'
asbag68
(g89
g70
NtRp539
(dp540
g73
(dp541
sg82
g527
sg75
(lp542
g68
(g69
g70
NtRp543
(dp544
g73
(dp545
g81
I3
ssg82
g539
sg75
(lp546
S''
asbasbasbag68
(g84
g70
NtRp547
(dp548
g73
(dp549
sg82
g463
sg75
(lp550
g68
(g89
g70
NtRp551
(dp552
g73
(dp553
g93
g94
ssg82
g547
sg75
(lp554
g366
asbag68
(g89
g70
NtRp555
(dp556
g73
(dp557
g100
g101
ssg82
g547
sg75
(lp558
S':'
asbag68
(g89
g70
NtRp559
(dp560
g73
(dp561
sg82
g547
sg75
(lp562
g68
(g69
g70
NtRp563
(dp564
g73
(dp565
g81
I3
ssg82
g559
sg75
(lp566
S''
asbasbasbag68
(g84
g70
NtRp567
(dp568
g73
(dp569
sg82
g463
sg75
(lp570
g68
(g89
g70
NtRp571
(dp572
g73
(dp573
g93
g94
ssg82
g567
sg75
(lp574
g387
asbag68
(g89
g70
NtRp575
(dp576
g73
(dp577
g100
g101
ssg82
g567
sg75
(lp578
S':'
asbag68
(g89
g70
NtRp579
(dp580
g73
(dp581
sg82
g567
sg75
(lp582
g68
(g69
g70
NtRp583
(dp584
g73
(dp585
g81
I3
ssg82
g579
sg75
(lp586
S''
asbasbasbag68
(g84
g70
NtRp587
(dp588
g73
(dp589
sg82
g463
sg75
(lp590
g68
(g89
g70
NtRp591
(dp592
g73
(dp593
g93
g94
ssg82
g587
sg75
(lp594
g408
asbag68
(g89
g70
NtRp595
(dp596
g73
(dp597
g100
g101
ssg82
g587
sg75
(lp598
S':'
asbag68
(g89
g70
NtRp599
(dp600
g73
(dp601
sg82
g587
sg75
(lp602
g68
(g69
g70
NtRp603
(dp604
g73
(dp605
g81
I3
ssg82
g599
sg75
(lp606
S''
asbasbasbag68
(g84
g70
NtRp607
(dp608
g73
(dp609
sg82
g463
sg75
(lp610
g68
(g89
g70
NtRp611
(dp612
g73
(dp613
g93
g94
ssg82
g607
sg75
(lp614
g429
asbag68
(g89
g70
NtRp615
(dp616
g73
(dp617
g100
g101
ssg82
g607
sg75
(lp618
S':'
asbag68
(g89
g70
NtRp619
(dp620
g73
(dp621
sg82
g607
sg75
(lp622
g68
(g69
g70
NtRp623
(dp624
g73
(dp625
g81
I3
ssg82
g619
sg75
(lp626
S''
asbasbasbasbasbasbasbasbasbasbasbag68
(g84
g70
NtRp627
(dp628
g73
(dp629
sg82
g78
sg75
(lp630
g68
(g89
g70
NtRp631
(dp632
g73
(dp633
g93
g94
ssg82
g627
sg75
(lp634
S'env'
p635
asbag68
(g89
g70
NtRp636
(dp637
g73
(dp638
g100
g101
ssg82
g627
sg75
(lp639
S':'
asbag68
(g89
g70
NtRp640
(dp641
g73
(dp642
sg82
g627
sg75
(lp643
g68
(g69
g70
NtRp644
(dp645
g73
(dp646
g81
I5
ssg82
g640
sg75
(lp647
g68
(g77
g70
NtRp648
(dp649
g73
(dp650
g81
I4
ssg82
Nsg75
(lp651
g68
(g84
g70
NtRp652
(dp653
g73
(dp654
sg82
g648
sg75
(lp655
g68
(g89
g70
NtRp656
(dp657
g73
(dp658
g93
g94
ssg82
g652
sg75
(lp659
S'app_folders'
p660
asbag68
(g89
g70
NtRp661
(dp662
g73
(dp663
g100
g101
ssg82
g652
sg75
(lp664
S':'
asbag68
(g89
g70
NtRp665
(dp666
g73
(dp667
sg82
g652
sg75
(lp668
g68
(g69
g70
NtRp669
(dp670
g73
(dp671
g81
I4
ssg82
g665
sg75
(lp672
S"set(['/home/shaz/Documents/Development/web2py/applications/FormalSignUp/'])"
p673
asbasbasbag68
(g84
g70
NtRp674
(dp675
g73
(dp676
sg82
g648
sg75
(lp677
g68
(g89
g70
NtRp678
(dp679
g73
(dp680
g93
g94
ssg82
g674
sg75
(lp681
S'applications_parent'
p682
asbag68
(g89
g70
NtRp683
(dp684
g73
(dp685
g100
g101
ssg82
g674
sg75
(lp686
S':'
asbag68
(g89
g70
NtRp687
(dp688
g73
(dp689
sg82
g674
sg75
(lp690
g68
(g69
g70
NtRp691
(dp692
g73
(dp693
g81
I4
ssg82
g687
sg75
(lp694
S'/home/shaz/Documents/Development/web2py'
p695
asbasbasbag68
(g84
g70
NtRp696
(dp697
g73
(dp698
sg82
g648
sg75
(lp699
g68
(g89
g70
NtRp700
(dp701
g73
(dp702
g93
g94
ssg82
g696
sg75
(lp703
S'cmd_args'
p704
asbag68
(g89
g70
NtRp705
(dp706
g73
(dp707
g100
g101
ssg82
g696
sg75
(lp708
S':'
asbag68
(g89
g70
NtRp709
(dp710
g73
(dp711
sg82
g696
sg75
(lp712
g68
(g69
g70
NtRp713
(dp714
g73
(dp715
g81
I4
ssg82
g709
sg75
(lp716
g68
(g77
g70
NtRp717
(dp718
g73
(dp719
g81
I3
ssg82
Nsg75
(lp720
sbasbasbasbag68
(g84
g70
NtRp721
(dp722
g73
(dp723
sg82
g648
sg75
(lp724
g68
(g89
g70
NtRp725
(dp726
g73
(dp727
g93
g94
ssg82
g721
sg75
(lp728
S'cmd_options'
p729
asbag68
(g89
g70
NtRp730
(dp731
g73
(dp732
g100
g101
ssg82
g721
sg75
(lp733
S':'
asbag68
(g89
g70
NtRp734
(dp735
g73
(dp736
sg82
g721
sg75
(lp737
g68
(g69
g70
NtRp738
(dp739
g73
(dp740
g81
I4
ssg82
g734
sg75
(lp741
S"<Values at 0x9f139ac: {'verbose': False, 'ip': '127.0.0.1', 'shutdown_timeout': 5, 'taskbar': False, 'nocron': False, 'pid_filename': 'httpserver.pid', 'maxthreads': None, 'softcron': False, 'server_name': 'ubuntu', 'bpython': False, 'nogui': False, 'port': 8000, 'extcron': False, 'debuglevel': 30, 'test': None, 'folder': '/home/shaz/Documents/Development/web2py', 'config': '', 'import_models': False, 'winservice': '', 'shell': None, 'run': '', 'log_filename': 'httpserver.log', 'args': [''], 'socket_timeout': 1, 'ssl_ca_certificate': None, 'scheduler': None, 'profiler_filename': None, 'ssl_private_key': '', 'password': 'shaz', 'request_queue_size': 5, 'ssl_certificate': '', 'cronjob': False, 'numthreads': None, 'quiet': False, 'interfaces': None, 'minthreads': None, 'timeout': 10, 'plain': False, 'nobanner': False}>"
p742
asbasbasbag68
(g84
g70
NtRp743
(dp744
g73
(dp745
sg82
g648
sg75
(lp746
g68
(g89
g70
NtRp747
(dp748
g73
(dp749
g93
g94
ssg82
g743
sg75
(lp750
S'db_sessions'
p751
asbag68
(g89
g70
NtRp752
(dp753
g73
(dp754
g100
g101
ssg82
g743
sg75
(lp755
S':'
asbag68
(g89
g70
NtRp756
(dp757
g73
(dp758
sg82
g743
sg75
(lp759
g68
(g69
g70
NtRp760
(dp761
g73
(dp762
g81
I4
ssg82
g756
sg75
(lp763
S'set([])'
p764
asbasbasbag68
(g84
g70
NtRp765
(dp766
g73
(dp767
sg82
g648
sg75
(lp768
g68
(g89
g70
NtRp769
(dp770
g73
(dp771
g93
g94
ssg82
g765
sg75
(lp772
S'debugging'
p773
asbag68
(g89
g70
NtRp774
(dp775
g73
(dp776
g100
g101
ssg82
g765
sg75
(lp777
S':'
asbag68
(g89
g70
NtRp778
(dp779
g73
(dp780
sg82
g765
sg75
(lp781
g68
(g69
g70
NtRp782
(dp783
g73
(dp784
g81
I4
ssg82
g778
sg75
(lp785
g111
asbasbasbag68
(g84
g70
NtRp786
(dp787
g73
(dp788
sg82
g648
sg75
(lp789
g68
(g89
g70
NtRp790
(dp791
g73
(dp792
g93
g94
ssg82
g786
sg75
(lp793
S'gluon_parent'
p794
asbag68
(g89
g70
NtRp795
(dp796
g73
(dp797
g100
g101
ssg82
g786
sg75
(lp798
S':'
asbag68
(g89
g70
NtRp799
(dp800
g73
(dp801
sg82
g786
sg75
(lp802
g68
(g69
g70
NtRp803
(dp804
g73
(dp805
g81
I4
ssg82
g799
sg75
(lp806
S'/home/shaz/Documents/Development/web2py'
p807
asbasbasbag68
(g84
g70
NtRp808
(dp809
g73
(dp810
sg82
g648
sg75
(lp811
g68
(g89
g70
NtRp812
(dp813
g73
(dp814
g93
g94
ssg82
g808
sg75
(lp815
S'http_accept'
p816
asbag68
(g89
g70
NtRp817
(dp818
g73
(dp819
g100
g101
ssg82
g808
sg75
(lp820
S':'
asbag68
(g89
g70
NtRp821
(dp822
g73
(dp823
sg82
g808
sg75
(lp824
g68
(g69
g70
NtRp825
(dp826
g73
(dp827
g81
I4
ssg82
g821
sg75
(lp828
S'text/html,application/xhtml+xml,application/xml;q=0.9,*/*;q=0.8'
p829
asbasbasbag68
(g84
g70
NtRp830
(dp831
g73
(dp832
sg82
g648
sg75
(lp833
g68
(g89
g70
NtRp834
(dp835
g73
(dp836
g93
g94
ssg82
g830
sg75
(lp837
S'http_accept_charset'
p838
asbag68
(g89
g70
NtRp839
(dp840
g73
(dp841
g100
g101
ssg82
g830
sg75
(lp842
S':'
asbag68
(g89
g70
NtRp843
(dp844
g73
(dp845
sg82
g830
sg75
(lp846
g68
(g69
g70
NtRp847
(dp848
g73
(dp849
g81
I4
ssg82
g843
sg75
(lp850
S'ISO-8859-1,utf-8;q=0.7,*;q=0.3'
p851
asbasbasbag68
(g84
g70
NtRp852
(dp853
g73
(dp854
sg82
g648
sg75
(lp855
g68
(g89
g70
NtRp856
(dp857
g73
(dp858
g93
g94
ssg82
g852
sg75
(lp859
S'http_accept_encoding'
p860
asbag68
(g89
g70
NtRp861
(dp862
g73
(dp863
g100
g101
ssg82
g852
sg75
(lp864
S':'
asbag68
(g89
g70
NtRp865
(dp866
g73
(dp867
sg82
g852
sg75
(lp868
g68
(g69
g70
NtRp869
(dp870
g73
(dp871
g81
I4
ssg82
g865
sg75
(lp872
S'gzip,deflate,sdch'
p873
asbasbasbag68
(g84
g70
NtRp874
(dp875
g73
(dp876
sg82
g648
sg75
(lp877
g68
(g89
g70
NtRp878
(dp879
g73
(dp880
g93
g94
ssg82
g874
sg75
(lp881
S'http_accept_language'
p882
asbag68
(g89
g70
NtRp883
(dp884
g73
(dp885
g100
g101
ssg82
g874
sg75
(lp886
S':'
asbag68
(g89
g70
NtRp887
(dp888
g73
(dp889
sg82
g874
sg75
(lp890
g68
(g69
g70
NtRp891
(dp892
g73
(dp893
g81
I4
ssg82
g887
sg75
(lp894
S'en-GB,en-US;q=0.8,en;q=0.6'
p895
asbasbasbag68
(g84
g70
NtRp896
(dp897
g73
(dp898
sg82
g648
sg75
(lp899
g68
(g89
g70
NtRp900
(dp901
g73
(dp902
g93
g94
ssg82
g896
sg75
(lp903
S'http_cache_control'
p904
asbag68
(g89
g70
NtRp905
(dp906
g73
(dp907
g100
g101
ssg82
g896
sg75
(lp908
S':'
asbag68
(g89
g70
NtRp909
(dp910
g73
(dp911
sg82
g896
sg75
(lp912
g68
(g69
g70
NtRp913
(dp914
g73
(dp915
g81
I4
ssg82
g909
sg75
(lp916
S'max-age=0'
p917
asbasbasbag68
(g84
g70
NtRp918
(dp919
g73
(dp920
sg82
g648
sg75
(lp921
g68
(g89
g70
NtRp922
(dp923
g73
(dp924
g93
g94
ssg82
g918
sg75
(lp925
S'http_connection'
p926
asbag68
(g89
g70
NtRp927
(dp928
g73
(dp929
g100
g101
ssg82
g918
sg75
(lp930
S':'
asbag68
(g89
g70
NtRp931
(dp932
g73
(dp933
sg82
g918
sg75
(lp934
g68
(g69
g70
NtRp935
(dp936
g73
(dp937
g81
I4
ssg82
g931
sg75
(lp938
S'keep-alive'
p939
asbasbasbag68
(g84
g70
NtRp940
(dp941
g73
(dp942
sg82
g648
sg75
(lp943
g68
(g89
g70
NtRp944
(dp945
g73
(dp946
g93
g94
ssg82
g940
sg75
(lp947
S'http_cookie'
p948
asbag68
(g89
g70
NtRp949
(dp950
g73
(dp951
g100
g101
ssg82
g940
sg75
(lp952
S':'
asbag68
(g89
g70
NtRp953
(dp954
g73
(dp955
sg82
g940
sg75
(lp956
g68
(g69
g70
NtRp957
(dp958
g73
(dp959
g81
I4
ssg82
g953
sg75
(lp960
S'session_id_admin=127.0.0.1-15cfc998-cc48-4369-8acd-47166cf62198; session_id_formalsignup=127.0.0.1-8e485235-b1a7-4d7c-ac78-8aa950c2fff5'
p961
asbasbasbag68
(g84
g70
NtRp962
(dp963
g73
(dp964
sg82
g648
sg75
(lp965
g68
(g89
g70
NtRp966
(dp967
g73
(dp968
g93
g94
ssg82
g962
sg75
(lp969
S'http_host'
p970
asbag68
(g89
g70
NtRp971
(dp972
g73
(dp973
g100
g101
ssg82
g962
sg75
(lp974
S':'
asbag68
(g89
g70
NtRp975
(dp976
g73
(dp977
sg82
g962
sg75
(lp978
g68
(g69
g70
NtRp979
(dp980
g73
(dp981
g81
I4
ssg82
g975
sg75
(lp982
S'127.0.0.1:8000'
p983
asbasbasbag68
(g84
g70
NtRp984
(dp985
g73
(dp986
sg82
g648
sg75
(lp987
g68
(g89
g70
NtRp988
(dp989
g73
(dp990
g93
g94
ssg82
g984
sg75
(lp991
S'http_user_agent'
p992
asbag68
(g89
g70
NtRp993
(dp994
g73
(dp995
g100
g101
ssg82
g984
sg75
(lp996
S':'
asbag68
(g89
g70
NtRp997
(dp998
g73
(dp999
sg82
g984
sg75
(lp1000
g68
(g69
g70
NtRp1001
(dp1002
g73
(dp1003
g81
I4
ssg82
g997
sg75
(lp1004
S'Mozilla/5.0 (X11; Linux i686) AppleWebKit/535.11 (KHTML, like Gecko) Chrome/17.0.963.56 Safari/535.11'
p1005
asbasbasbag68
(g84
g70
NtRp1006
(dp1007
g73
(dp1008
sg82
g648
sg75
(lp1009
g68
(g89
g70
NtRp1010
(dp1011
g73
(dp1012
g93
g94
ssg82
g1006
sg75
(lp1013
S'is_jython'
p1014
asbag68
(g89
g70
NtRp1015
(dp1016
g73
(dp1017
g100
g101
ssg82
g1006
sg75
(lp1018
S':'
asbag68
(g89
g70
NtRp1019
(dp1020
g73
(dp1021
sg82
g1006
sg75
(lp1022
g68
(g69
g70
NtRp1023
(dp1024
g73
(dp1025
g81
I4
ssg82
g1019
sg75
(lp1026
g111
asbasbasbag68
(g84
g70
NtRp1027
(dp1028
g73
(dp1029
sg82
g648
sg75
(lp1030
g68
(g89
g70
NtRp1031
(dp1032
g73
(dp1033
g93
g94
ssg82
g1027
sg75
(lp1034
S'is_pypy'
p1035
asbag68
(g89
g70
NtRp1036
(dp1037
g73
(dp1038
g100
g101
ssg82
g1027
sg75
(lp1039
S':'
asbag68
(g89
g70
NtRp1040
(dp1041
g73
(dp1042
sg82
g1027
sg75
(lp1043
g68
(g69
g70
NtRp1044
(dp1045
g73
(dp1046
g81
I4
ssg82
g1040
sg75
(lp1047
g111
asbasbasbag68
(g84
g70
NtRp1048
(dp1049
g73
(dp1050
sg82
g648
sg75
(lp1051
g68
(g89
g70
NtRp1052
(dp1053
g73
(dp1054
g93
g94
ssg82
g1048
sg75
(lp1055
S'path_info'
p1056
asbag68
(g89
g70
NtRp1057
(dp1058
g73
(dp1059
g100
g101
ssg82
g1048
sg75
(lp1060
S':'
asbag68
(g89
g70
NtRp1061
(dp1062
g73
(dp1063
sg82
g1048
sg75
(lp1064
g68
(g69
g70
NtRp1065
(dp1066
g73
(dp1067
g81
I4
ssg82
g1061
sg75
(lp1068
S'/FormalSignUp/'
p1069
asbasbasbag68
(g84
g70
NtRp1070
(dp1071
g73
(dp1072
sg82
g648
sg75
(lp1073
g68
(g89
g70
NtRp1074
(dp1075
g73
(dp1076
g93
g94
ssg82
g1070
sg75
(lp1077
S'query_string'
p1078
asbag68
(g89
g70
NtRp1079
(dp1080
g73
(dp1081
g100
g101
ssg82
g1070
sg75
(lp1082
S':'
asbag68
(g89
g70
NtRp1083
(dp1084
g73
(dp1085
sg82
g1070
sg75
(lp1086
g68
(g69
g70
NtRp1087
(dp1088
g73
(dp1089
g81
I4
ssg82
g1083
sg75
(lp1090
S''
asbasbasbag68
(g84
g70
NtRp1091
(dp1092
g73
(dp1093
sg82
g648
sg75
(lp1094
g68
(g89
g70
NtRp1095
(dp1096
g73
(dp1097
g93
g94
ssg82
g1091
sg75
(lp1098
S'remote_addr'
p1099
asbag68
(g89
g70
NtRp1100
(dp1101
g73
(dp1102
g100
g101
ssg82
g1091
sg75
(lp1103
S':'
asbag68
(g89
g70
NtRp1104
(dp1105
g73
(dp1106
sg82
g1091
sg75
(lp1107
g68
(g69
g70
NtRp1108
(dp1109
g73
(dp1110
g81
I4
ssg82
g1104
sg75
(lp1111
g201
asbasbasbag68
(g84
g70
NtRp1112
(dp1113
g73
(dp1114
sg82
g648
sg75
(lp1115
g68
(g89
g70
NtRp1116
(dp1117
g73
(dp1118
g93
g94
ssg82
g1112
sg75
(lp1119
S'remote_port'
p1120
asbag68
(g89
g70
NtRp1121
(dp1122
g73
(dp1123
g100
g101
ssg82
g1112
sg75
(lp1124
S':'
asbag68
(g89
g70
NtRp1125
(dp1126
g73
(dp1127
sg82
g1112
sg75
(lp1128
g68
(g69
g70
NtRp1129
(dp1130
g73
(dp1131
g81
I4
ssg82
g1125
sg75
(lp1132
S'53911'
p1133
asbasbasbag68
(g84
g70
NtRp1134
(dp1135
g73
(dp1136
sg82
g648
sg75
(lp1137
g68
(g89
g70
NtRp1138
(dp1139
g73
(dp1140
g93
g94
ssg82
g1134
sg75
(lp1141
S'request_method'
p1142
asbag68
(g89
g70
NtRp1143
(dp1144
g73
(dp1145
g100
g101
ssg82
g1134
sg75
(lp1146
S':'
asbag68
(g89
g70
NtRp1147
(dp1148
g73
(dp1149
sg82
g1134
sg75
(lp1150
g68
(g69
g70
NtRp1151
(dp1152
g73
(dp1153
g81
I4
ssg82
g1147
sg75
(lp1154
S'GET'
p1155
asbasbasbag68
(g84
g70
NtRp1156
(dp1157
g73
(dp1158
sg82
g648
sg75
(lp1159
g68
(g89
g70
NtRp1160
(dp1161
g73
(dp1162
g93
g94
ssg82
g1156
sg75
(lp1163
S'script_name'
p1164
asbag68
(g89
g70
NtRp1165
(dp1166
g73
(dp1167
g100
g101
ssg82
g1156
sg75
(lp1168
S':'
asbag68
(g89
g70
NtRp1169
(dp1170
g73
(dp1171
sg82
g1156
sg75
(lp1172
g68
(g69
g70
NtRp1173
(dp1174
g73
(dp1175
g81
I4
ssg82
g1169
sg75
(lp1176
S''
asbasbasbag68
(g84
g70
NtRp1177
(dp1178
g73
(dp1179
sg82
g648
sg75
(lp1180
g68
(g89
g70
NtRp1181
(dp1182
g73
(dp1183
g93
g94
ssg82
g1177
sg75
(lp1184
S'server_name'
p1185
asbag68
(g89
g70
NtRp1186
(dp1187
g73
(dp1188
g100
g101
ssg82
g1177
sg75
(lp1189
S':'
asbag68
(g89
g70
NtRp1190
(dp1191
g73
(dp1192
sg82
g1177
sg75
(lp1193
g68
(g69
g70
NtRp1194
(dp1195
g73
(dp1196
g81
I4
ssg82
g1190
sg75
(lp1197
S'ubuntu'
p1198
asbasbasbag68
(g84
g70
NtRp1199
(dp1200
g73
(dp1201
sg82
g648
sg75
(lp1202
g68
(g89
g70
NtRp1203
(dp1204
g73
(dp1205
g93
g94
ssg82
g1199
sg75
(lp1206
S'server_port'
p1207
asbag68
(g89
g70
NtRp1208
(dp1209
g73
(dp1210
g100
g101
ssg82
g1199
sg75
(lp1211
S':'
asbag68
(g89
g70
NtRp1212
(dp1213
g73
(dp1214
sg82
g1199
sg75
(lp1215
g68
(g69
g70
NtRp1216
(dp1217
g73
(dp1218
g81
I4
ssg82
g1212
sg75
(lp1219
S'8000'
p1220
asbasbasbag68
(g84
g70
NtRp1221
(dp1222
g73
(dp1223
sg82
g648
sg75
(lp1224
g68
(g89
g70
NtRp1225
(dp1226
g73
(dp1227
g93
g94
ssg82
g1221
sg75
(lp1228
S'server_protocol'
p1229
asbag68
(g89
g70
NtRp1230
(dp1231
g73
(dp1232
g100
g101
ssg82
g1221
sg75
(lp1233
S':'
asbag68
(g89
g70
NtRp1234
(dp1235
g73
(dp1236
sg82
g1221
sg75
(lp1237
g68
(g69
g70
NtRp1238
(dp1239
g73
(dp1240
g81
I4
ssg82
g1234
sg75
(lp1241
S'HTTP/1.1'
p1242
asbasbasbag68
(g84
g70
NtRp1243
(dp1244
g73
(dp1245
sg82
g648
sg75
(lp1246
g68
(g89
g70
NtRp1247
(dp1248
g73
(dp1249
g93
g94
ssg82
g1243
sg75
(lp1250
S'server_software'
p1251
asbag68
(g89
g70
NtRp1252
(dp1253
g73
(dp1254
g100
g101
ssg82
g1243
sg75
(lp1255
S':'
asbag68
(g89
g70
NtRp1256
(dp1257
g73
(dp1258
sg82
g1243
sg75
(lp1259
g68
(g69
g70
NtRp1260
(dp1261
g73
(dp1262
g81
I4
ssg82
g1256
sg75
(lp1263
S'Rocket 1.2.4'
p1264
asbasbasbag68
(g84
g70
NtRp1265
(dp1266
g73
(dp1267
sg82
g648
sg75
(lp1268
g68
(g89
g70
NtRp1269
(dp1270
g73
(dp1271
g93
g94
ssg82
g1265
sg75
(lp1272
S'web2py_crontype'
p1273
asbag68
(g89
g70
NtRp1274
(dp1275
g73
(dp1276
g100
g101
ssg82
g1265
sg75
(lp1277
S':'
asbag68
(g89
g70
NtRp1278
(dp1279
g73
(dp1280
sg82
g1265
sg75
(lp1281
g68
(g69
g70
NtRp1282
(dp1283
g73
(dp1284
g81
I4
ssg82
g1278
sg75
(lp1285
S'hard'
p1286
asbasbasbag68
(g84
g70
NtRp1287
(dp1288
g73
(dp1289
sg82
g648
sg75
(lp1290
g68
(g89
g70
NtRp1291
(dp1292
g73
(dp1293
g93
g94
ssg82
g1287
sg75
(lp1294
S'web2py_path'
p1295
asbag68
(g89
g70
NtRp1296
(dp1297
g73
(dp1298
g100
g101
ssg82
g1287
sg75
(lp1299
S':'
asbag68
(g89
g70
NtRp1300
(dp1301
g73
(dp1302
sg82
g1287
sg75
(lp1303
g68
(g69
g70
NtRp1304
(dp1305
g73
(dp1306
g81
I4
ssg82
g1300
sg75
(lp1307
g695
asbasbasbag68
(g84
g70
NtRp1308
(dp1309
g73
(dp1310
sg82
g648
sg75
(lp1311
g68
(g89
g70
NtRp1312
(dp1313
g73
(dp1314
g93
g94
ssg82
g1308
sg75
(lp1315
S'web2py_version'
p1316
asbag68
(g89
g70
NtRp1317
(dp1318
g73
(dp1319
g100
g101
ssg82
g1308
sg75
(lp1320
S':'
asbag68
(g89
g70
NtRp1321
(dp1322
g73
(dp1323
sg82
g1308
sg75
(lp1324
g68
(g69
g70
NtRp1325
(dp1326
g73
(dp1327
g81
I4
ssg82
g1321
sg75
(lp1328
g68
(g77
g70
NtRp1329
(dp1330
g73
(dp1331
g81
I3
ssg82
Nsg75
(lp1332
g68
(g84
g70
NtRp1333
(dp1334
g73
(dp1335
sg82
g1329
sg75
(lp1336
g68
(g89
g70
NtRp1337
(dp1338
g73
(dp1339
sg82
g1333
sg75
(lp1340
g68
(g69
g70
NtRp1341
(dp1342
g73
(dp1343
g81
I3
ssg82
g1337
sg75
(lp1344
S'1'
asbasbasbag68
(g84
g70
NtRp1345
(dp1346
g73
(dp1347
sg82
g1329
sg75
(lp1348
g68
(g89
g70
NtRp1349
(dp1350
g73
(dp1351
sg82
g1345
sg75
(lp1352
g68
(g69
g70
NtRp1353
(dp1354
g73
(dp1355
g81
I3
ssg82
g1349
sg75
(lp1356
S'99'
p1357
asbasbasbag68
(g84
g70
NtRp1358
(dp1359
g73
(dp1360
sg82
g1329
sg75
(lp1361
g68
(g89
g70
NtRp1362
(dp1363
g73
(dp1364
sg82
g1358
sg75
(lp1365
g68
(g69
g70
NtRp1366
(dp1367
g73
(dp1368
g81
I3
ssg82
g1362
sg75
(lp1369
S'4'
asbasbasbag68
(g84
g70
NtRp1370
(dp1371
g73
(dp1372
sg82
g1329
sg75
(lp1373
g68
(g89
g70
NtRp1374
(dp1375
g73
(dp1376
sg82
g1370
sg75
(lp1377
g68
(g69
g70
NtRp1378
(dp1379
g73
(dp1380
g81
I3
ssg82
g1374
sg75
(lp1381
S'datetime.datetime(2011, 12, 14, 14, 46, 14)'
p1382
asbasbasbag68
(g84
g70
NtRp1383
(dp1384
g73
(dp1385
sg82
g1329
sg75
(lp1386
g68
(g89
g70
NtRp1387
(dp1388
g73
(dp1389
sg82
g1383
sg75
(lp1390
g68
(g69
g70
NtRp1391
(dp1392
g73
(dp1393
g81
I3
ssg82
g1387
sg75
(lp1394
S'stable'
p1395
asbasbasbasbasbasbasbag68
(g84
g70
NtRp1396
(dp1397
g73
(dp1398
sg82
g648
sg75
(lp1399
g68
(g89
g70
NtRp1400
(dp1401
g73
(dp1402
g93
g94
ssg82
g1396
sg75
(lp1403
S'wsgi_errors'
p1404
asbag68
(g89
g70
NtRp1405
(dp1406
g73
(dp1407
g100
g101
ssg82
g1396
sg75
(lp1408
S':'
asbag68
(g89
g70
NtRp1409
(dp1410
g73
(dp1411
sg82
g1396
sg75
(lp1412
g68
(g69
g70
NtRp1413
(dp1414
g73
(dp1415
g81
I4
ssg82
g1409
sg75
(lp1416
S"<open file '<stderr>', mode 'w' at 0xb731e0d0>"
p1417
asbasbasbag68
(g84
g70
NtRp1418
(dp1419
g73
(dp1420
sg82
g648
sg75
(lp1421
g68
(g89
g70
NtRp1422
(dp1423
g73
(dp1424
g93
g94
ssg82
g1418
sg75
(lp1425
S'wsgi_file_wrapper'
p1426
asbag68
(g89
g70
NtRp1427
(dp1428
g73
(dp1429
g100
g101
ssg82
g1418
sg75
(lp1430
S':'
asbag68
(g89
g70
NtRp1431
(dp1432
g73
(dp1433
sg82
g1418
sg75
(lp1434
g68
(g69
g70
NtRp1435
(dp1436
g73
(dp1437
g81
I4
ssg82
g1431
sg75
(lp1438
S'<class wsgiref.util.FileWrapper at 0x9ebe2cc>'
p1439
asbasbasbag68
(g84
g70
NtRp1440
(dp1441
g73
(dp1442
sg82
g648
sg75
(lp1443
g68
(g89
g70
NtRp1444
(dp1445
g73
(dp1446
g93
g94
ssg82
g1440
sg75
(lp1447
S'wsgi_input'
p1448
asbag68
(g89
g70
NtRp1449
(dp1450
g73
(dp1451
g100
g101
ssg82
g1440
sg75
(lp1452
S':'
asbag68
(g89
g70
NtRp1453
(dp1454
g73
(dp1455
sg82
g1440
sg75
(lp1456
g68
(g69
g70
NtRp1457
(dp1458
g73
(dp1459
g81
I4
ssg82
g1453
sg75
(lp1460
S'<socket._fileobject object at 0xa27b16c>'
p1461
asbasbasbag68
(g84
g70
NtRp1462
(dp1463
g73
(dp1464
sg82
g648
sg75
(lp1465
g68
(g89
g70
NtRp1466
(dp1467
g73
(dp1468
g93
g94
ssg82
g1462
sg75
(lp1469
S'wsgi_multiprocess'
p1470
asbag68
(g89
g70
NtRp1471
(dp1472
g73
(dp1473
g100
g101
ssg82
g1462
sg75
(lp1474
S':'
asbag68
(g89
g70
NtRp1475
(dp1476
g73
(dp1477
sg82
g1462
sg75
(lp1478
g68
(g69
g70
NtRp1479
(dp1480
g73
(dp1481
g81
I4
ssg82
g1475
sg75
(lp1482
g111
asbasbasbag68
(g84
g70
NtRp1483
(dp1484
g73
(dp1485
sg82
g648
sg75
(lp1486
g68
(g89
g70
NtRp1487
(dp1488
g73
(dp1489
g93
g94
ssg82
g1483
sg75
(lp1490
S'wsgi_multithread'
p1491
asbag68
(g89
g70
NtRp1492
(dp1493
g73
(dp1494
g100
g101
ssg82
g1483
sg75
(lp1495
S':'
asbag68
(g89
g70
NtRp1496
(dp1497
g73
(dp1498
sg82
g1483
sg75
(lp1499
g68
(g69
g70
NtRp1500
(dp1501
g73
(dp1502
g81
I4
ssg82
g1496
sg75
(lp1503
S'True'
p1504
asbasbasbag68
(g84
g70
NtRp1505
(dp1506
g73
(dp1507
sg82
g648
sg75
(lp1508
g68
(g89
g70
NtRp1509
(dp1510
g73
(dp1511
g93
g94
ssg82
g1505
sg75
(lp1512
S'wsgi_run_once'
p1513
asbag68
(g89
g70
NtRp1514
(dp1515
g73
(dp1516
g100
g101
ssg82
g1505
sg75
(lp1517
S':'
asbag68
(g89
g70
NtRp1518
(dp1519
g73
(dp1520
sg82
g1505
sg75
(lp1521
g68
(g69
g70
NtRp1522
(dp1523
g73
(dp1524
g81
I4
ssg82
g1518
sg75
(lp1525
g111
asbasbasbag68
(g84
g70
NtRp1526
(dp1527
g73
(dp1528
sg82
g648
sg75
(lp1529
g68
(g89
g70
NtRp1530
(dp1531
g73
(dp1532
g93
g94
ssg82
g1526
sg75
(lp1533
S'wsgi_url_scheme'
p1534
asbag68
(g89
g70
NtRp1535
(dp1536
g73
(dp1537
g100
g101
ssg82
g1526
sg75
(lp1538
S':'
asbag68
(g89
g70
NtRp1539
(dp1540
g73
(dp1541
sg82
g1526
sg75
(lp1542
g68
(g69
g70
NtRp1543
(dp1544
g73
(dp1545
g81
I4
ssg82
g1539
sg75
(lp1546
S'http'
p1547
asbasbasbag68
(g84
g70
NtRp1548
(dp1549
g73
(dp1550
sg82
g648
sg75
(lp1551
g68
(g89
g70
NtRp1552
(dp1553
g73
(dp1554
g93
g94
ssg82
g1548
sg75
(lp1555
S'wsgi_version'
p1556
asbag68
(g89
g70
NtRp1557
(dp1558
g73
(dp1559
g100
g101
ssg82
g1548
sg75
(lp1560
S':'
asbag68
(g89
g70
NtRp1561
(dp1562
g73
(dp1563
sg82
g1548
sg75
(lp1564
g68
(g69
g70
NtRp1565
(dp1566
g73
(dp1567
g81
I4
ssg82
g1561
sg75
(lp1568
g68
(g77
g70
NtRp1569
(dp1570
g73
(dp1571
g81
I3
ssg82
Nsg75
(lp1572
g68
(g84
g70
NtRp1573
(dp1574
g73
(dp1575
sg82
g1569
sg75
(lp1576
g68
(g89
g70
NtRp1577
(dp1578
g73
(dp1579
sg82
g1573
sg75
(lp1580
g68
(g69
g70
NtRp1581
(dp1582
g73
(dp1583
g81
I3
ssg82
g1577
sg75
(lp1584
S'1'
asbasbasbag68
(g84
g70
NtRp1585
(dp1586
g73
(dp1587
sg82
g1569
sg75
(lp1588
g68
(g89
g70
NtRp1589
(dp1590
g73
(dp1591
sg82
g1585
sg75
(lp1592
g68
(g69
g70
NtRp1593
(dp1594
g73
(dp1595
g81
I3
ssg82
g1589
sg75
(lp1596
S'0'
asbasbasbasbasbasbasbasbasbasbasbag68
(g84
g70
NtRp1597
(dp1598
g73
(dp1599
sg82
g78
sg75
(lp1600
g68
(g89
g70
NtRp1601
(dp1602
g73
(dp1603
g93
g94
ssg82
g1597
sg75
(lp1604
S'extension'
p1605
asbag68
(g89
g70
NtRp1606
(dp1607
g73
(dp1608
g100
g101
ssg82
g1597
sg75
(lp1609
S':'
asbag68
(g89
g70
NtRp1610
(dp1611
g73
(dp1612
sg82
g1597
sg75
(lp1613
g68
(g69
g70
NtRp1614
(dp1615
g73
(dp1616
g81
I5
ssg82
g1610
sg75
(lp1617
S'html'
p1618
asbasbasbag68
(g84
g70
NtRp1619
(dp1620
g73
(dp1621
sg82
g78
sg75
(lp1622
g68
(g89
g70
NtRp1623
(dp1624
g73
(dp1625
g93
g94
ssg82
g1619
sg75
(lp1626
S'folder'
p1627
asbag68
(g89
g70
NtRp1628
(dp1629
g73
(dp1630
g100
g101
ssg82
g1619
sg75
(lp1631
S':'
asbag68
(g89
g70
NtRp1632
(dp1633
g73
(dp1634
sg82
g1619
sg75
(lp1635
g68
(g69
g70
NtRp1636
(dp1637
g73
(dp1638
g81
I5
ssg82
g1632
sg75
(lp1639
S'/home/shaz/Documents/Development/web2py/applications/FormalSignUp/'
p1640
asbasbasbag68
(g84
g70
NtRp1641
(dp1642
g73
(dp1643
sg82
g78
sg75
(lp1644
g68
(g89
g70
NtRp1645
(dp1646
g73
(dp1647
g93
g94
ssg82
g1641
sg75
(lp1648
S'function'
p1649
asbag68
(g89
g70
NtRp1650
(dp1651
g73
(dp1652
g100
g101
ssg82
g1641
sg75
(lp1653
S':'
asbag68
(g89
g70
NtRp1654
(dp1655
g73
(dp1656
sg82
g1641
sg75
(lp1657
g68
(g69
g70
NtRp1658
(dp1659
g73
(dp1660
g81
I5
ssg82
g1654
sg75
(lp1661
S'index'
p1662
asbasbasbag68
(g84
g70
NtRp1663
(dp1664
g73
(dp1665
sg82
g78
sg75
(lp1666
g68
(g89
g70
NtRp1667
(dp1668
g73
(dp1669
g93
g94
ssg82
g1663
sg75
(lp1670
S'get_vars'
p1671
asbag68
(g89
g70
NtRp1672
(dp1673
g73
(dp1674
g100
g101
ssg82
g1663
sg75
(lp1675
S':'
asbag68
(g89
g70
NtRp1676
(dp1677
g73
(dp1678
sg82
g1663
sg75
(lp1679
g68
(g69
g70
NtRp1680
(dp1681
g73
(dp1682
g81
I5
ssg82
g1676
sg75
(lp1683
g68
(g77
g70
NtRp1684
(dp1685
g73
(dp1686
g81
I4
ssg82
Nsg75
(lp1687
sbasbasbasbag68
(g84
g70
NtRp1688
(dp1689
g73
(dp1690
sg82
g78
sg75
(lp1691
g68
(g89
g70
NtRp1692
(dp1693
g73
(dp1694
g93
g94
ssg82
g1688
sg75
(lp1695
S'global_settings'
p1696
asbag68
(g89
g70
NtRp1697
(dp1698
g73
(dp1699
g100
g101
ssg82
g1688
sg75
(lp1700
S':'
asbag68
(g89
g70
NtRp1701
(dp1702
g73
(dp1703
sg82
g1688
sg75
(lp1704
g68
(g69
g70
NtRp1705
(dp1706
g73
(dp1707
g81
I5
ssg82
g1701
sg75
(lp1708
g68
(g77
g70
NtRp1709
(dp1710
g73
(dp1711
g81
I4
ssg82
Nsg75
(lp1712
g68
(g84
g70
NtRp1713
(dp1714
g73
(dp1715
sg82
g1709
sg75
(lp1716
g68
(g89
g70
NtRp1717
(dp1718
g73
(dp1719
g93
g94
ssg82
g1713
sg75
(lp1720
g660
asbag68
(g89
g70
NtRp1721
(dp1722
g73
(dp1723
g100
g101
ssg82
g1713
sg75
(lp1724
S':'
asbag68
(g89
g70
NtRp1725
(dp1726
g73
(dp1727
sg82
g1713
sg75
(lp1728
g68
(g69
g70
NtRp1729
(dp1730
g73
(dp1731
g81
I4
ssg82
g1725
sg75
(lp1732
S"set(['/home/shaz/Documents/Development/web2py/applications/FormalSignUp/'])"
p1733
asbasbasbag68
(g84
g70
NtRp1734
(dp1735
g73
(dp1736
sg82
g1709
sg75
(lp1737
g68
(g89
g70
NtRp1738
(dp1739
g73
(dp1740
g93
g94
ssg82
g1734
sg75
(lp1741
g682
asbag68
(g89
g70
NtRp1742
(dp1743
g73
(dp1744
g100
g101
ssg82
g1734
sg75
(lp1745
S':'
asbag68
(g89
g70
NtRp1746
(dp1747
g73
(dp1748
sg82
g1734
sg75
(lp1749
g68
(g69
g70
NtRp1750
(dp1751
g73
(dp1752
g81
I4
ssg82
g1746
sg75
(lp1753
g695
asbasbasbag68
(g84
g70
NtRp1754
(dp1755
g73
(dp1756
sg82
g1709
sg75
(lp1757
g68
(g89
g70
NtRp1758
(dp1759
g73
(dp1760
g93
g94
ssg82
g1754
sg75
(lp1761
g704
asbag68
(g89
g70
NtRp1762
(dp1763
g73
(dp1764
g100
g101
ssg82
g1754
sg75
(lp1765
S':'
asbag68
(g89
g70
NtRp1766
(dp1767
g73
(dp1768
sg82
g1754
sg75
(lp1769
g68
(g69
g70
NtRp1770
(dp1771
g73
(dp1772
g81
I4
ssg82
g1766
sg75
(lp1773
g68
(g77
g70
NtRp1774
(dp1775
g73
(dp1776
g81
I3
ssg82
Nsg75
(lp1777
sbasbasbasbag68
(g84
g70
NtRp1778
(dp1779
g73
(dp1780
sg82
g1709
sg75
(lp1781
g68
(g89
g70
NtRp1782
(dp1783
g73
(dp1784
g93
g94
ssg82
g1778
sg75
(lp1785
g729
asbag68
(g89
g70
NtRp1786
(dp1787
g73
(dp1788
g100
g101
ssg82
g1778
sg75
(lp1789
S':'
asbag68
(g89
g70
NtRp1790
(dp1791
g73
(dp1792
sg82
g1778
sg75
(lp1793
g68
(g69
g70
NtRp1794
(dp1795
g73
(dp1796
g81
I4
ssg82
g1790
sg75
(lp1797
S"<Values at 0x9f139ac: {'verbose': False, 'ip': '127.0.0.1', 'shutdown_timeout': 5, 'taskbar': False, 'nocron': False, 'pid_filename': 'httpserver.pid', 'maxthreads': None, 'softcron': False, 'server_name': 'ubuntu', 'bpython': False, 'nogui': False, 'port': 8000, 'extcron': False, 'debuglevel': 30, 'test': None, 'folder': '/home/shaz/Documents/Development/web2py', 'config': '', 'import_models': False, 'winservice': '', 'shell': None, 'run': '', 'log_filename': 'httpserver.log', 'args': [''], 'socket_timeout': 1, 'ssl_ca_certificate': None, 'scheduler': None, 'profiler_filename': None, 'ssl_private_key': '', 'password': 'shaz', 'request_queue_size': 5, 'ssl_certificate': '', 'cronjob': False, 'numthreads': None, 'quiet': False, 'interfaces': None, 'minthreads': None, 'timeout': 10, 'plain': False, 'nobanner': False}>"
p1798
asbasbasbag68
(g84
g70
NtRp1799
(dp1800
g73
(dp1801
sg82
g1709
sg75
(lp1802
g68
(g89
g70
NtRp1803
(dp1804
g73
(dp1805
g93
g94
ssg82
g1799
sg75
(lp1806
g751
asbag68
(g89
g70
NtRp1807
(dp1808
g73
(dp1809
g100
g101
ssg82
g1799
sg75
(lp1810
S':'
asbag68
(g89
g70
NtRp1811
(dp1812
g73
(dp1813
sg82
g1799
sg75
(lp1814
g68
(g69
g70
NtRp1815
(dp1816
g73
(dp1817
g81
I4
ssg82
g1811
sg75
(lp1818
S'set([])'
p1819
asbasbasbag68
(g84
g70
NtRp1820
(dp1821
g73
(dp1822
sg82
g1709
sg75
(lp1823
g68
(g89
g70
NtRp1824
(dp1825
g73
(dp1826
g93
g94
ssg82
g1820
sg75
(lp1827
g773
asbag68
(g89
g70
NtRp1828
(dp1829
g73
(dp1830
g100
g101
ssg82
g1820
sg75
(lp1831
S':'
asbag68
(g89
g70
NtRp1832
(dp1833
g73
(dp1834
sg82
g1820
sg75
(lp1835
g68
(g69
g70
NtRp1836
(dp1837
g73
(dp1838
g81
I4
ssg82
g1832
sg75
(lp1839
g111
asbasbasbag68
(g84
g70
NtRp1840
(dp1841
g73
(dp1842
sg82
g1709
sg75
(lp1843
g68
(g89
g70
NtRp1844
(dp1845
g73
(dp1846
g93
g94
ssg82
g1840
sg75
(lp1847
g794
asbag68
(g89
g70
NtRp1848
(dp1849
g73
(dp1850
g100
g101
ssg82
g1840
sg75
(lp1851
S':'
asbag68
(g89
g70
NtRp1852
(dp1853
g73
(dp1854
sg82
g1840
sg75
(lp1855
g68
(g69
g70
NtRp1856
(dp1857
g73
(dp1858
g81
I4
ssg82
g1852
sg75
(lp1859
g807
asbasbasbag68
(g84
g70
NtRp1860
(dp1861
g73
(dp1862
sg82
g1709
sg75
(lp1863
g68
(g89
g70
NtRp1864
(dp1865
g73
(dp1866
g93
g94
ssg82
g1860
sg75
(lp1867
g1014
asbag68
(g89
g70
NtRp1868
(dp1869
g73
(dp1870
g100
g101
ssg82
g1860
sg75
(lp1871
S':'
asbag68
(g89
g70
NtRp1872
(dp1873
g73
(dp1874
sg82
g1860
sg75
(lp1875
g68
(g69
g70
NtRp1876
(dp1877
g73
(dp1878
g81
I4
ssg82
g1872
sg75
(lp1879
g111
asbasbasbag68
(g84
g70
NtRp1880
(dp1881
g73
(dp1882
sg82
g1709
sg75
(lp1883
g68
(g89
g70
NtRp1884
(dp1885
g73
(dp1886
g93
g94
ssg82
g1880
sg75
(lp1887
g1035
asbag68
(g89
g70
NtRp1888
(dp1889
g73
(dp1890
g100
g101
ssg82
g1880
sg75
(lp1891
S':'
asbag68
(g89
g70
NtRp1892
(dp1893
g73
(dp1894
sg82
g1880
sg75
(lp1895
g68
(g69
g70
NtRp1896
(dp1897
g73
(dp1898
g81
I4
ssg82
g1892
sg75
(lp1899
g111
asbasbasbag68
(g84
g70
NtRp1900
(dp1901
g73
(dp1902
sg82
g1709
sg75
(lp1903
g68
(g89
g70
NtRp1904
(dp1905
g73
(dp1906
g93
g94
ssg82
g1900
sg75
(lp1907
g1273
asbag68
(g89
g70
NtRp1908
(dp1909
g73
(dp1910
g100
g101
ssg82
g1900
sg75
(lp1911
S':'
asbag68
(g89
g70
NtRp1912
(dp1913
g73
(dp1914
sg82
g1900
sg75
(lp1915
g68
(g69
g70
NtRp1916
(dp1917
g73
(dp1918
g81
I4
ssg82
g1912
sg75
(lp1919
g1286
asbasbasbag68
(g84
g70
NtRp1920
(dp1921
g73
(dp1922
sg82
g1709
sg75
(lp1923
g68
(g89
g70
NtRp1924
(dp1925
g73
(dp1926
g93
g94
ssg82
g1920
sg75
(lp1927
g1316
asbag68
(g89
g70
NtRp1928
(dp1929
g73
(dp1930
g100
g101
ssg82
g1920
sg75
(lp1931
S':'
asbag68
(g89
g70
NtRp1932
(dp1933
g73
(dp1934
sg82
g1920
sg75
(lp1935
g68
(g69
g70
NtRp1936
(dp1937
g73
(dp1938
g81
I4
ssg82
g1932
sg75
(lp1939
g68
(g77
g70
NtRp1940
(dp1941
g73
(dp1942
g81
I3
ssg82
Nsg75
(lp1943
g68
(g84
g70
NtRp1944
(dp1945
g73
(dp1946
sg82
g1940
sg75
(lp1947
g68
(g89
g70
NtRp1948
(dp1949
g73
(dp1950
sg82
g1944
sg75
(lp1951
g68
(g69
g70
NtRp1952
(dp1953
g73
(dp1954
g81
I3
ssg82
g1948
sg75
(lp1955
S'1'
asbasbasbag68
(g84
g70
NtRp1956
(dp1957
g73
(dp1958
sg82
g1940
sg75
(lp1959
g68
(g89
g70
NtRp1960
(dp1961
g73
(dp1962
sg82
g1956
sg75
(lp1963
g68
(g69
g70
NtRp1964
(dp1965
g73
(dp1966
g81
I3
ssg82
g1960
sg75
(lp1967
S'99'
p1968
asbasbasbag68
(g84
g70
NtRp1969
(dp1970
g73
(dp1971
sg82
g1940
sg75
(lp1972
g68
(g89
g70
NtRp1973
(dp1974
g73
(dp1975
sg82
g1969
sg75
(lp1976
g68
(g69
g70
NtRp1977
(dp1978
g73
(dp1979
g81
I3
ssg82
g1973
sg75
(lp1980
S'4'
asbasbasbag68
(g84
g70
NtRp1981
(dp1982
g73
(dp1983
sg82
g1940
sg75
(lp1984
g68
(g89
g70
NtRp1985
(dp1986
g73
(dp1987
sg82
g1981
sg75
(lp1988
g68
(g69
g70
NtRp1989
(dp1990
g73
(dp1991
g81
I3
ssg82
g1985
sg75
(lp1992
S'datetime.datetime(2011, 12, 14, 14, 46, 14)'
p1993
asbasbasbag68
(g84
g70
NtRp1994
(dp1995
g73
(dp1996
sg82
g1940
sg75
(lp1997
g68
(g89
g70
NtRp1998
(dp1999
g73
(dp2000
sg82
g1994
sg75
(lp2001
g68
(g69
g70
NtRp2002
(dp2003
g73
(dp2004
g81
I3
ssg82
g1998
sg75
(lp2005
g1395
asbasbasbasbasbasbasbasbasbasbasbag68
(g84
g70
NtRp2006
(dp2007
g73
(dp2008
sg82
g78
sg75
(lp2009
g68
(g89
g70
NtRp2010
(dp2011
g73
(dp2012
g93
g94
ssg82
g2006
sg75
(lp2013
S'is_https'
p2014
asbag68
(g89
g70
NtRp2015
(dp2016
g73
(dp2017
g100
g101
ssg82
g2006
sg75
(lp2018
S':'
asbag68
(g89
g70
NtRp2019
(dp2020
g73
(dp2021
sg82
g2006
sg75
(lp2022
g68
(g69
g70
NtRp2023
(dp2024
g73
(dp2025
g81
I5
ssg82
g2019
sg75
(lp2026
g111
asbasbasbag68
(g84
g70
NtRp2027
(dp2028
g73
(dp2029
sg82
g78
sg75
(lp2030
g68
(g89
g70
NtRp2031
(dp2032
g73
(dp2033
g93
g94
ssg82
g2027
sg75
(lp2034
S'is_local'
p2035
asbag68
(g89
g70
NtRp2036
(dp2037
g73
(dp2038
g100
g101
ssg82
g2027
sg75
(lp2039
S':'
asbag68
(g89
g70
NtRp2040
(dp2041
g73
(dp2042
sg82
g2027
sg75
(lp2043
g68
(g69
g70
NtRp2044
(dp2045
g73
(dp2046
g81
I5
ssg82
g2040
sg75
(lp2047
g1504
asbasbasbag68
(g84
g70
NtRp2048
(dp2049
g73
(dp2050
sg82
g78
sg75
(lp2051
g68
(g89
g70
NtRp2052
(dp2053
g73
(dp2054
g93
g94
ssg82
g2048
sg75
(lp2055
S'is_restful'
p2056
asbag68
(g89
g70
NtRp2057
(dp2058
g73
(dp2059
g100
g101
ssg82
g2048
sg75
(lp2060
S':'
asbag68
(g89
g70
NtRp2061
(dp2062
g73
(dp2063
sg82
g2048
sg75
(lp2064
g68
(g69
g70
NtRp2065
(dp2066
g73
(dp2067
g81
I5
ssg82
g2061
sg75
(lp2068
g111
asbasbasbag68
(g84
g70
NtRp2069
(dp2070
g73
(dp2071
sg82
g78
sg75
(lp2072
g68
(g89
g70
NtRp2073
(dp2074
g73
(dp2075
g93
g94
ssg82
g2069
sg75
(lp2076
S'now'
p2077
asbag68
(g89
g70
NtRp2078
(dp2079
g73
(dp2080
g100
g101
ssg82
g2069
sg75
(lp2081
S':'
asbag68
(g89
g70
NtRp2082
(dp2083
g73
(dp2084
sg82
g2069
sg75
(lp2085
g68
(g69
g70
NtRp2086
(dp2087
g73
(dp2088
g81
I5
ssg82
g2082
sg75
(lp2089
S'datetime.datetime(2012, 3, 1, 0, 53, 49, 859928)'
p2090
asbasbasbag68
(g84
g70
NtRp2091
(dp2092
g73
(dp2093
sg82
g78
sg75
(lp2094
g68
(g89
g70
NtRp2095
(dp2096
g73
(dp2097
g93
g94
ssg82
g2091
sg75
(lp2098
S'post_vars'
p2099
asbag68
(g89
g70
NtRp2100
(dp2101
g73
(dp2102
g100
g101
ssg82
g2091
sg75
(lp2103
S':'
asbag68
(g89
g70
NtRp2104
(dp2105
g73
(dp2106
sg82
g2091
sg75
(lp2107
g68
(g69
g70
NtRp2108
(dp2109
g73
(dp2110
g81
I5
ssg82
g2104
sg75
(lp2111
g68
(g77
g70
NtRp2112
(dp2113
g73
(dp2114
g81
I4
ssg82
Nsg75
(lp2115
sbasbasbasbag68
(g84
g70
NtRp2116
(dp2117
g73
(dp2118
sg82
g78
sg75
(lp2119
g68
(g89
g70
NtRp2120
(dp2121
g73
(dp2122
g93
g94
ssg82
g2116
sg75
(lp2123
S'url'
p2124
asbag68
(g89
g70
NtRp2125
(dp2126
g73
(dp2127
g100
g101
ssg82
g2116
sg75
(lp2128
S':'
asbag68
(g89
g70
NtRp2129
(dp2130
g73
(dp2131
sg82
g2116
sg75
(lp2132
g68
(g69
g70
NtRp2133
(dp2134
g73
(dp2135
g81
I5
ssg82
g2129
sg75
(lp2136
S'/FormalSignUp/default/index'
p2137
asbasbasbag68
(g84
g70
NtRp2138
(dp2139
g73
(dp2140
sg82
g78
sg75
(lp2141
g68
(g89
g70
NtRp2142
(dp2143
g73
(dp2144
g93
g94
ssg82
g2138
sg75
(lp2145
S'utcnow'
p2146
asbag68
(g89
g70
NtRp2147
(dp2148
g73
(dp2149
g100
g101
ssg82
g2138
sg75
(lp2150
S':'
asbag68
(g89
g70
NtRp2151
(dp2152
g73
(dp2153
sg82
g2138
sg75
(lp2154
g68
(g69
g70
NtRp2155
(dp2156
g73
(dp2157
g81
I5
ssg82
g2151
sg75
(lp2158
S'datetime.datetime(2012, 3, 1, 0, 53, 49, 859945)'
p2159
asbasbasbag68
(g84
g70
NtRp2160
(dp2161
g73
(dp2162
sg82
g78
sg75
(lp2163
g68
(g89
g70
NtRp2164
(dp2165
g73
(dp2166
g93
g94
ssg82
g2160
sg75
(lp2167
S'uuid'
p2168
asbag68
(g89
g70
NtRp2169
(dp2170
g73
(dp2171
g100
g101
ssg82
g2160
sg75
(lp2172
S':'
asbag68
(g89
g70
NtRp2173
(dp2174
g73
(dp2175
sg82
g2160
sg75
(lp2176
g68
(g69
g70
NtRp2177
(dp2178
g73
(dp2179
g81
I5
ssg82
g2173
sg75
(lp2180
S'FormalSignUp/127.0.0.1.2012-03-01.00-53-49.51dae2a0-dc81-4b06-b768-92a923fb8b10'
p2181
asbasbasbag68
(g84
g70
NtRp2182
(dp2183
g73
(dp2184
sg82
g78
sg75
(lp2185
g68
(g89
g70
NtRp2186
(dp2187
g73
(dp2188
g93
g94
ssg82
g2182
sg75
(lp2189
S'vars'
p2190
asbag68
(g89
g70
NtRp2191
(dp2192
g73
(dp2193
g100
g101
ssg82
g2182
sg75
(lp2194
S':'
asbag68
(g89
g70
NtRp2195
(dp2196
g73
(dp2197
sg82
g2182
sg75
(lp2198
g68
(g69
g70
NtRp2199
(dp2200
g73
(dp2201
g81
I5
ssg82
g2195
sg75
(lp2202
g68
(g77
g70
NtRp2203
(dp2204
g73
(dp2205
g81
I4
ssg82
Nsg75
(lp2206
sbasbasbasbag68
(g84
g70
NtRp2207
(dp2208
g73
(dp2209
sg82
g78
sg75
(lp2210
g68
(g89
g70
NtRp2211
(dp2212
g73
(dp2213
g93
g94
ssg82
g2207
sg75
(lp2214
S'wsgi'
p2215
asbag68
(g89
g70
NtRp2216
(dp2217
g73
(dp2218
g100
g101
ssg82
g2207
sg75
(lp2219
S':'
asbag68
(g89
g70
NtRp2220
(dp2221
g73
(dp2222
sg82
g2207
sg75
(lp2223
g68
(g69
g70
NtRp2224
(dp2225
g73
(dp2226
g81
I5
ssg82
g2220
sg75
(lp2227
g68
(g77
g70
NtRp2228
(dp2229
g73
(dp2230
g81
I4
ssg82
Nsg75
(lp2231
g68
(g84
g70
NtRp2232
(dp2233
g73
(dp2234
sg82
g2228
sg75
(lp2235
g68
(g89
g70
NtRp2236
(dp2237
g73
(dp2238
g93
g94
ssg82
g2232
sg75
(lp2239
S'environ'
p2240
asbag68
(g89
g70
NtRp2241
(dp2242
g73
(dp2243
g100
g101
ssg82
g2232
sg75
(lp2244
S':'
asbag68
(g89
g70
NtRp2245
(dp2246
g73
(dp2247
sg82
g2232
sg75
(lp2248
g68
(g69
g70
NtRp2249
(dp2250
g73
(dp2251
g81
I4
ssg82
g2245
sg75
(lp2252
g68
(g77
g70
NtRp2253
(dp2254
g73
(dp2255
g81
I3
ssg82
Nsg75
(lp2256
g68
(g84
g70
NtRp2257
(dp2258
g73
(dp2259
sg82
g2253
sg75
(lp2260
g68
(g89
g70
NtRp2261
(dp2262
g73
(dp2263
g93
g94
ssg82
g2257
sg75
(lp2264
S'HTTP_ACCEPT'
p2265
asbag68
(g89
g70
NtRp2266
(dp2267
g73
(dp2268
g100
g101
ssg82
g2257
sg75
(lp2269
S':'
asbag68
(g89
g70
NtRp2270
(dp2271
g73
(dp2272
sg82
g2257
sg75
(lp2273
g68
(g69
g70
NtRp2274
(dp2275
g73
(dp2276
g81
I3
ssg82
g2270
sg75
(lp2277
g829
asbasbasbag68
(g84
g70
NtRp2278
(dp2279
g73
(dp2280
sg82
g2253
sg75
(lp2281
g68
(g89
g70
NtRp2282
(dp2283
g73
(dp2284
g93
g94
ssg82
g2278
sg75
(lp2285
S'HTTP_ACCEPT_CHARSET'
p2286
asbag68
(g89
g70
NtRp2287
(dp2288
g73
(dp2289
g100
g101
ssg82
g2278
sg75
(lp2290
S':'
asbag68
(g89
g70
NtRp2291
(dp2292
g73
(dp2293
sg82
g2278
sg75
(lp2294
g68
(g69
g70
NtRp2295
(dp2296
g73
(dp2297
g81
I3
ssg82
g2291
sg75
(lp2298
g851
asbasbasbag68
(g84
g70
NtRp2299
(dp2300
g73
(dp2301
sg82
g2253
sg75
(lp2302
g68
(g89
g70
NtRp2303
(dp2304
g73
(dp2305
g93
g94
ssg82
g2299
sg75
(lp2306
S'HTTP_ACCEPT_ENCODING'
p2307
asbag68
(g89
g70
NtRp2308
(dp2309
g73
(dp2310
g100
g101
ssg82
g2299
sg75
(lp2311
S':'
asbag68
(g89
g70
NtRp2312
(dp2313
g73
(dp2314
sg82
g2299
sg75
(lp2315
g68
(g69
g70
NtRp2316
(dp2317
g73
(dp2318
g81
I3
ssg82
g2312
sg75
(lp2319
g873
asbasbasbag68
(g84
g70
NtRp2320
(dp2321
g73
(dp2322
sg82
g2253
sg75
(lp2323
g68
(g89
g70
NtRp2324
(dp2325
g73
(dp2326
g93
g94
ssg82
g2320
sg75
(lp2327
S'HTTP_ACCEPT_LANGUAGE'
p2328
asbag68
(g89
g70
NtRp2329
(dp2330
g73
(dp2331
g100
g101
ssg82
g2320
sg75
(lp2332
S':'
asbag68
(g89
g70
NtRp2333
(dp2334
g73
(dp2335
sg82
g2320
sg75
(lp2336
g68
(g69
g70
NtRp2337
(dp2338
g73
(dp2339
g81
I3
ssg82
g2333
sg75
(lp2340
g895
asbasbasbag68
(g84
g70
NtRp2341
(dp2342
g73
(dp2343
sg82
g2253
sg75
(lp2344
g68
(g89
g70
NtRp2345
(dp2346
g73
(dp2347
g93
g94
ssg82
g2341
sg75
(lp2348
S'HTTP_CACHE_CONTROL'
p2349
asbag68
(g89
g70
NtRp2350
(dp2351
g73
(dp2352
g100
g101
ssg82
g2341
sg75
(lp2353
S':'
asbag68
(g89
g70
NtRp2354
(dp2355
g73
(dp2356
sg82
g2341
sg75
(lp2357
g68
(g69
g70
NtRp2358
(dp2359
g73
(dp2360
g81
I3
ssg82
g2354
sg75
(lp2361
g917
asbasbasbag68
(g84
g70
NtRp2362
(dp2363
g73
(dp2364
sg82
g2253
sg75
(lp2365
g68
(g89
g70
NtRp2366
(dp2367
g73
(dp2368
g93
g94
ssg82
g2362
sg75
(lp2369
S'HTTP_CONNECTION'
p2370
asbag68
(g89
g70
NtRp2371
(dp2372
g73
(dp2373
g100
g101
ssg82
g2362
sg75
(lp2374
S':'
asbag68
(g89
g70
NtRp2375
(dp2376
g73
(dp2377
sg82
g2362
sg75
(lp2378
g68
(g69
g70
NtRp2379
(dp2380
g73
(dp2381
g81
I3
ssg82
g2375
sg75
(lp2382
g939
asbasbasbag68
(g84
g70
NtRp2383
(dp2384
g73
(dp2385
sg82
g2253
sg75
(lp2386
g68
(g89
g70
NtRp2387
(dp2388
g73
(dp2389
g93
g94
ssg82
g2383
sg75
(lp2390
S'HTTP_COOKIE'
p2391
asbag68
(g89
g70
NtRp2392
(dp2393
g73
(dp2394
g100
g101
ssg82
g2383
sg75
(lp2395
S':'
asbag68
(g89
g70
NtRp2396
(dp2397
g73
(dp2398
sg82
g2383
sg75
(lp2399
g68
(g69
g70
NtRp2400
(dp2401
g73
(dp2402
g81
I3
ssg82
g2396
sg75
(lp2403
g961
asbasbasbag68
(g84
g70
NtRp2404
(dp2405
g73
(dp2406
sg82
g2253
sg75
(lp2407
g68
(g89
g70
NtRp2408
(dp2409
g73
(dp2410
g93
g94
ssg82
g2404
sg75
(lp2411
S'HTTP_HOST'
p2412
asbag68
(g89
g70
NtRp2413
(dp2414
g73
(dp2415
g100
g101
ssg82
g2404
sg75
(lp2416
S':'
asbag68
(g89
g70
NtRp2417
(dp2418
g73
(dp2419
sg82
g2404
sg75
(lp2420
g68
(g69
g70
NtRp2421
(dp2422
g73
(dp2423
g81
I3
ssg82
g2417
sg75
(lp2424
g983
asbasbasbag68
(g84
g70
NtRp2425
(dp2426
g73
(dp2427
sg82
g2253
sg75
(lp2428
g68
(g89
g70
NtRp2429
(dp2430
g73
(dp2431
g93
g94
ssg82
g2425
sg75
(lp2432
S'HTTP_USER_AGENT'
p2433
asbag68
(g89
g70
NtRp2434
(dp2435
g73
(dp2436
g100
g101
ssg82
g2425
sg75
(lp2437
S':'
asbag68
(g89
g70
NtRp2438
(dp2439
g73
(dp2440
sg82
g2425
sg75
(lp2441
g68
(g69
g70
NtRp2442
(dp2443
g73
(dp2444
g81
I3
ssg82
g2438
sg75
(lp2445
g1005
asbasbasbag68
(g84
g70
NtRp2446
(dp2447
g73
(dp2448
sg82
g2253
sg75
(lp2449
g68
(g89
g70
NtRp2450
(dp2451
g73
(dp2452
g93
g94
ssg82
g2446
sg75
(lp2453
S'PATH_INFO'
p2454
asbag68
(g89
g70
NtRp2455
(dp2456
g73
(dp2457
g100
g101
ssg82
g2446
sg75
(lp2458
S':'
asbag68
(g89
g70
NtRp2459
(dp2460
g73
(dp2461
sg82
g2446
sg75
(lp2462
g68
(g69
g70
NtRp2463
(dp2464
g73
(dp2465
g81
I3
ssg82
g2459
sg75
(lp2466
g1069
asbasbasbag68
(g84
g70
NtRp2467
(dp2468
g73
(dp2469
sg82
g2253
sg75
(lp2470
g68
(g89
g70
NtRp2471
(dp2472
g73
(dp2473
g93
g94
ssg82
g2467
sg75
(lp2474
S'QUERY_STRING'
p2475
asbag68
(g89
g70
NtRp2476
(dp2477
g73
(dp2478
g100
g101
ssg82
g2467
sg75
(lp2479
S':'
asbag68
(g89
g70
NtRp2480
(dp2481
g73
(dp2482
sg82
g2467
sg75
(lp2483
g68
(g69
g70
NtRp2484
(dp2485
g73
(dp2486
g81
I3
ssg82
g2480
sg75
(lp2487
S''
asbasbasbag68
(g84
g70
NtRp2488
(dp2489
g73
(dp2490
sg82
g2253
sg75
(lp2491
g68
(g89
g70
NtRp2492
(dp2493
g73
(dp2494
g93
g94
ssg82
g2488
sg75
(lp2495
S'REMOTE_ADDR'
p2496
asbag68
(g89
g70
NtRp2497
(dp2498
g73
(dp2499
g100
g101
ssg82
g2488
sg75
(lp2500
S':'
asbag68
(g89
g70
NtRp2501
(dp2502
g73
(dp2503
sg82
g2488
sg75
(lp2504
g68
(g69
g70
NtRp2505
(dp2506
g73
(dp2507
g81
I3
ssg82
g2501
sg75
(lp2508
g201
asbasbasbag68
(g84
g70
NtRp2509
(dp2510
g73
(dp2511
sg82
g2253
sg75
(lp2512
g68
(g89
g70
NtRp2513
(dp2514
g73
(dp2515
g93
g94
ssg82
g2509
sg75
(lp2516
S'REMOTE_PORT'
p2517
asbag68
(g89
g70
NtRp2518
(dp2519
g73
(dp2520
g100
g101
ssg82
g2509
sg75
(lp2521
S':'
asbag68
(g89
g70
NtRp2522
(dp2523
g73
(dp2524
sg82
g2509
sg75
(lp2525
g68
(g69
g70
NtRp2526
(dp2527
g73
(dp2528
g81
I3
ssg82
g2522
sg75
(lp2529
g1133
asbasbasbag68
(g84
g70
NtRp2530
(dp2531
g73
(dp2532
sg82
g2253
sg75
(lp2533
g68
(g89
g70
NtRp2534
(dp2535
g73
(dp2536
g93
g94
ssg82
g2530
sg75
(lp2537
S'REQUEST_METHOD'
p2538
asbag68
(g89
g70
NtRp2539
(dp2540
g73
(dp2541
g100
g101
ssg82
g2530
sg75
(lp2542
S':'
asbag68
(g89
g70
NtRp2543
(dp2544
g73
(dp2545
sg82
g2530
sg75
(lp2546
g68
(g69
g70
NtRp2547
(dp2548
g73
(dp2549
g81
I3
ssg82
g2543
sg75
(lp2550
g1155
asbasbasbag68
(g84
g70
NtRp2551
(dp2552
g73
(dp2553
sg82
g2253
sg75
(lp2554
g68
(g89
g70
NtRp2555
(dp2556
g73
(dp2557
g93
g94
ssg82
g2551
sg75
(lp2558
S'SCRIPT_NAME'
p2559
asbag68
(g89
g70
NtRp2560
(dp2561
g73
(dp2562
g100
g101
ssg82
g2551
sg75
(lp2563
S':'
asbag68
(g89
g70
NtRp2564
(dp2565
g73
(dp2566
sg82
g2551
sg75
(lp2567
g68
(g69
g70
NtRp2568
(dp2569
g73
(dp2570
g81
I3
ssg82
g2564
sg75
(lp2571
S''
asbasbasbag68
(g84
g70
NtRp2572
(dp2573
g73
(dp2574
sg82
g2253
sg75
(lp2575
g68
(g89
g70
NtRp2576
(dp2577
g73
(dp2578
g93
g94
ssg82
g2572
sg75
(lp2579
S'SERVER_NAME'
p2580
asbag68
(g89
g70
NtRp2581
(dp2582
g73
(dp2583
g100
g101
ssg82
g2572
sg75
(lp2584
S':'
asbag68
(g89
g70
NtRp2585
(dp2586
g73
(dp2587
sg82
g2572
sg75
(lp2588
g68
(g69
g70
NtRp2589
(dp2590
g73
(dp2591
g81
I3
ssg82
g2585
sg75
(lp2592
g1198
asbasbasbag68
(g84
g70
NtRp2593
(dp2594
g73
(dp2595
sg82
g2253
sg75
(lp2596
g68
(g89
g70
NtRp2597
(dp2598
g73
(dp2599
g93
g94
ssg82
g2593
sg75
(lp2600
S'SERVER_PORT'
p2601
asbag68
(g89
g70
NtRp2602
(dp2603
g73
(dp2604
g100
g101
ssg82
g2593
sg75
(lp2605
S':'
asbag68
(g89
g70
NtRp2606
(dp2607
g73
(dp2608
sg82
g2593
sg75
(lp2609
g68
(g69
g70
NtRp2610
(dp2611
g73
(dp2612
g81
I3
ssg82
g2606
sg75
(lp2613
g1220
asbasbasbag68
(g84
g70
NtRp2614
(dp2615
g73
(dp2616
sg82
g2253
sg75
(lp2617
g68
(g89
g70
NtRp2618
(dp2619
g73
(dp2620
g93
g94
ssg82
g2614
sg75
(lp2621
S'SERVER_PROTOCOL'
p2622
asbag68
(g89
g70
NtRp2623
(dp2624
g73
(dp2625
g100
g101
ssg82
g2614
sg75
(lp2626
S':'
asbag68
(g89
g70
NtRp2627
(dp2628
g73
(dp2629
sg82
g2614
sg75
(lp2630
g68
(g69
g70
NtRp2631
(dp2632
g73
(dp2633
g81
I3
ssg82
g2627
sg75
(lp2634
g1242
asbasbasbag68
(g84
g70
NtRp2635
(dp2636
g73
(dp2637
sg82
g2253
sg75
(lp2638
g68
(g89
g70
NtRp2639
(dp2640
g73
(dp2641
g93
g94
ssg82
g2635
sg75
(lp2642
S'SERVER_SOFTWARE'
p2643
asbag68
(g89
g70
NtRp2644
(dp2645
g73
(dp2646
g100
g101
ssg82
g2635
sg75
(lp2647
S':'
asbag68
(g89
g70
NtRp2648
(dp2649
g73
(dp2650
sg82
g2635
sg75
(lp2651
g68
(g69
g70
NtRp2652
(dp2653
g73
(dp2654
g81
I3
ssg82
g2648
sg75
(lp2655
g1264
asbasbasbag68
(g84
g70
NtRp2656
(dp2657
g73
(dp2658
sg82
g2253
sg75
(lp2659
g68
(g89
g70
NtRp2660
(dp2661
g73
(dp2662
g93
g94
ssg82
g2656
sg75
(lp2663
S'wsgi.errors'
p2664
asbag68
(g89
g70
NtRp2665
(dp2666
g73
(dp2667
g100
g101
ssg82
g2656
sg75
(lp2668
S':'
asbag68
(g89
g70
NtRp2669
(dp2670
g73
(dp2671
sg82
g2656
sg75
(lp2672
g68
(g69
g70
NtRp2673
(dp2674
g73
(dp2675
g81
I3
ssg82
g2669
sg75
(lp2676
S"<open file '<stderr>', mode 'w' at 0xb731e0d0>"
p2677
asbasbasbag68
(g84
g70
NtRp2678
(dp2679
g73
(dp2680
sg82
g2253
sg75
(lp2681
g68
(g89
g70
NtRp2682
(dp2683
g73
(dp2684
g93
g94
ssg82
g2678
sg75
(lp2685
S'wsgi.file_wrapper'
p2686
asbag68
(g89
g70
NtRp2687
(dp2688
g73
(dp2689
g100
g101
ssg82
g2678
sg75
(lp2690
S':'
asbag68
(g89
g70
NtRp2691
(dp2692
g73
(dp2693
sg82
g2678
sg75
(lp2694
g68
(g69
g70
NtRp2695
(dp2696
g73
(dp2697
g81
I3
ssg82
g2691
sg75
(lp2698
S'<class wsgiref.util.FileWrapper at 0x9ebe2cc>'
p2699
asbasbasbag68
(g84
g70
NtRp2700
(dp2701
g73
(dp2702
sg82
g2253
sg75
(lp2703
g68
(g89
g70
NtRp2704
(dp2705
g73
(dp2706
g93
g94
ssg82
g2700
sg75
(lp2707
S'wsgi.input'
p2708
asbag68
(g89
g70
NtRp2709
(dp2710
g73
(dp2711
g100
g101
ssg82
g2700
sg75
(lp2712
S':'
asbag68
(g89
g70
NtRp2713
(dp2714
g73
(dp2715
sg82
g2700
sg75
(lp2716
g68
(g69
g70
NtRp2717
(dp2718
g73
(dp2719
g81
I3
ssg82
g2713
sg75
(lp2720
S'<cStringIO.StringO object at 0x9f88ce0>'
p2721
asbasbasbag68
(g84
g70
NtRp2722
(dp2723
g73
(dp2724
sg82
g2253
sg75
(lp2725
g68
(g89
g70
NtRp2726
(dp2727
g73
(dp2728
g93
g94
ssg82
g2722
sg75
(lp2729
S'wsgi.multiprocess'
p2730
asbag68
(g89
g70
NtRp2731
(dp2732
g73
(dp2733
g100
g101
ssg82
g2722
sg75
(lp2734
S':'
asbag68
(g89
g70
NtRp2735
(dp2736
g73
(dp2737
sg82
g2722
sg75
(lp2738
g68
(g69
g70
NtRp2739
(dp2740
g73
(dp2741
g81
I3
ssg82
g2735
sg75
(lp2742
g111
asbasbasbag68
(g84
g70
NtRp2743
(dp2744
g73
(dp2745
sg82
g2253
sg75
(lp2746
g68
(g89
g70
NtRp2747
(dp2748
g73
(dp2749
g93
g94
ssg82
g2743
sg75
(lp2750
S'wsgi.multithread'
p2751
asbag68
(g89
g70
NtRp2752
(dp2753
g73
(dp2754
g100
g101
ssg82
g2743
sg75
(lp2755
S':'
asbag68
(g89
g70
NtRp2756
(dp2757
g73
(dp2758
sg82
g2743
sg75
(lp2759
g68
(g69
g70
NtRp2760
(dp2761
g73
(dp2762
g81
I3
ssg82
g2756
sg75
(lp2763
g1504
asbasbasbag68
(g84
g70
NtRp2764
(dp2765
g73
(dp2766
sg82
g2253
sg75
(lp2767
g68
(g89
g70
NtRp2768
(dp2769
g73
(dp2770
g93
g94
ssg82
g2764
sg75
(lp2771
S'wsgi.run_once'
p2772
asbag68
(g89
g70
NtRp2773
(dp2774
g73
(dp2775
g100
g101
ssg82
g2764
sg75
(lp2776
S':'
asbag68
(g89
g70
NtRp2777
(dp2778
g73
(dp2779
sg82
g2764
sg75
(lp2780
g68
(g69
g70
NtRp2781
(dp2782
g73
(dp2783
g81
I3
ssg82
g2777
sg75
(lp2784
g111
asbasbasbag68
(g84
g70
NtRp2785
(dp2786
g73
(dp2787
sg82
g2253
sg75
(lp2788
g68
(g89
g70
NtRp2789
(dp2790
g73
(dp2791
g93
g94
ssg82
g2785
sg75
(lp2792
S'wsgi.url_scheme'
p2793
asbag68
(g89
g70
NtRp2794
(dp2795
g73
(dp2796
g100
g101
ssg82
g2785
sg75
(lp2797
S':'
asbag68
(g89
g70
NtRp2798
(dp2799
g73
(dp2800
sg82
g2785
sg75
(lp2801
g68
(g69
g70
NtRp2802
(dp2803
g73
(dp2804
g81
I3
ssg82
g2798
sg75
(lp2805
g1547
asbasbasbag68
(g84
g70
NtRp2806
(dp2807
g73
(dp2808
sg82
g2253
sg75
(lp2809
g68
(g89
g70
NtRp2810
(dp2811
g73
(dp2812
g93
g94
ssg82
g2806
sg75
(lp2813
S'wsgi.version'
p2814
asbag68
(g89
g70
NtRp2815
(dp2816
g73
(dp2817
g100
g101
ssg82
g2806
sg75
(lp2818
S':'
asbag68
(g89
g70
NtRp2819
(dp2820
g73
(dp2821
sg82
g2806
sg75
(lp2822
g68
(g69
g70
NtRp2823
(dp2824
g73
(dp2825
g81
I3
ssg82
g2819
sg75
(lp2826
S'1'
asbasbasbasbasbasbasbasbasbasbasbasbasbsS'frames'
p2827
(lp2828
(dp2829
S'file'
p2830
S'/home/shaz/Documents/Development/web2py/gluon/restricted.py'
p2831
sS'dump'
p2832
(dp2833
S'code'
p2834
S'\'response.write(\\\'<!DOCTYPE html>\\\\n<html lang="en"...ite(\\\' -->\\\\n\\\\n  </body>\\\\n</html>\\\\n\\\', escape=False)\''
p2835
sS'layer'
p2836
S"'/home/shaz/Documents/Development/web2py/applications/FormalSignUp/views/default/index.html'"
p2837
sS'global compile2'
p2838
S'<function compile2>'
p2839
sS'ccode'
p2840
S'undefined'
p2841
ssS'lnum'
p2842
I203
sS'lines'
p2843
(dp2844
I198
S"    environment['__file__'] = layer"
p2845
sI199
S'    try:'
p2846
sI200
S'        if type(code) == types.CodeType:'
p2847
sI201
S'            ccode = code'
p2848
sI202
S'        else:'
p2849
sI203
S'            ccode = compile2(code,layer)'
p2850
sI204
S'        exec ccode in environment'
p2851
sI205
S'    except HTTP:'
p2852
sI206
S'        raise'
p2853
sI207
S'    except RestrictedError:'
p2854
ssS'call'
p2855
S'(code=\'response.write(\\\'<!DOCTYPE html>\\\\n<html lang="en"...ite(\\\' -->\\\\n\\\\n  </body>\\\\n</html>\\\\n\\\', escape=False)\', environment={\'A\': <class \'gluon.html.A\'>, \'Auth\': <class \'gluon.tools.Auth\'>, \'B\': <class \'gluon.html.B\'>, \'BEAUTIFY\': <class \'gluon.html.BEAUTIFY\'>, \'BODY\': <class \'gluon.html.BODY\'>, \'BR\': <class \'gluon.html.BR\'>, \'BUTTON\': <class \'gluon.html.BUTTON\'>, \'CAT\': <class \'gluon.html.CAT\'>, \'CENTER\': <class \'gluon.html.CENTER\'>, \'CLEANUP\': <class \'gluon.validators.CLEANUP\'>, ...}, layer=\'/home/shaz/Documents/Development/web2py/applications/FormalSignUp/views/default/index.html\')'
p2856
sS'func'
p2857
S'restricted'
p2858
sa(dp2859
g2830
S'/home/shaz/Documents/Development/web2py/gluon/restricted.py'
p2860
sg2832
(dp2861
S'builtincompile'
p2862
S'<built-in function compile>'
p2863
sS'code'
p2864
S'\'response.write(\\\'<!DOCTYPE html>\\\\n<html lang="en"...ite(\\\' -->\\\\n\\\\n  </body>\\\\n</html>\\\\n\\\', escape=False)\''
p2865
sS'code.rstrip'
p2866
S'<built-in method rstrip of str object>'
p2867
sS').replace'
p2868
g2841
sS'layer'
p2869
S"'/home/shaz/Documents/Development/web2py/applications/FormalSignUp/views/default/index.html'"
p2870
ssg2842
I189
sg2843
(dp2871
I192
S'    """'
p2872
sI193
S'    runs code in environment and returns the output. if an exception occurs'
p2873
sI184
S''
sI185
S'def compile2(code,layer):'
p2874
sI186
S'    """'
p2875
sI187
S"    The +'\\n' is necessary else compile fails when code ends in a comment."
p2876
sI188
S'    """'
p2877
sI189
S"    return compile(code.rstrip().replace('\\r\\n','\\n')+'\\n', layer, 'exec')"
p2878
sI190
S''
sI191
S"def restricted(code, environment=None, layer='Unknown'):"
p2879
ssg2855
S'(code=\'response.write(\\\'<!DOCTYPE html>\\\\n<html lang="en"...ite(\\\' -->\\\\n\\\\n  </body>\\\\n</html>\\\\n\\\', escape=False)\', layer=\'/home/shaz/Documents/Development/web2py/applications/FormalSignUp/views/default/index.html\')'
p2880
sg2857
S'compile2'
p2881
sasS'pyver'
p2882
S'Python 2.7.2+: /usr/bin/python'
p2883
sS'session'
p2884
g68
(g69
g70
NtRp2885
(dp2886
g73
(dp2887
sg75
(lp2888
g68
(g77
g70
NtRp2889
(dp2890
g73
(dp2891
g81
I5
ssg82
Nsg75
(lp2892
g68
(g84
g70
NtRp2893
(dp2894
g73
(dp2895
sg82
g2889
sg75
(lp2896
g68
(g89
g70
NtRp2897
(dp2898
g73
(dp2899
g93
g94
ssg82
g2893
sg75
(lp2900
S'auth'
p2901
asbag68
(g89
g70
NtRp2902
(dp2903
g73
(dp2904
g100
g101
ssg82
g2893
sg75
(lp2905
S':'
asbag68
(g89
g70
NtRp2906
(dp2907
g73
(dp2908
sg82
g2893
sg75
(lp2909
g68
(g69
g70
NtRp2910
(dp2911
g73
(dp2912
g81
I5
ssg82
g2906
sg75
(lp2913
g68
(g77
g70
NtRp2914
(dp2915
g73
(dp2916
g81
I4
ssg82
Nsg75
(lp2917
g68
(g84
g70
NtRp2918
(dp2919
g73
(dp2920
sg82
g2914
sg75
(lp2921
g68
(g89
g70
NtRp2922
(dp2923
g73
(dp2924
g93
g94
ssg82
g2918
sg75
(lp2925
S'expiration'
p2926
asbag68
(g89
g70
NtRp2927
(dp2928
g73
(dp2929
g100
g101
ssg82
g2918
sg75
(lp2930
S':'
asbag68
(g89
g70
NtRp2931
(dp2932
g73
(dp2933
sg82
g2918
sg75
(lp2934
g68
(g69
g70
NtRp2935
(dp2936
g73
(dp2937
g81
I4
ssg82
g2931
sg75
(lp2938
S'2592000'
p2939
asbasbasbag68
(g84
g70
NtRp2940
(dp2941
g73
(dp2942
sg82
g2914
sg75
(lp2943
g68
(g89
g70
NtRp2944
(dp2945
g73
(dp2946
g93
g94
ssg82
g2940
sg75
(lp2947
S'hmac_key'
p2948
asbag68
(g89
g70
NtRp2949
(dp2950
g73
(dp2951
g100
g101
ssg82
g2940
sg75
(lp2952
S':'
asbag68
(g89
g70
NtRp2953
(dp2954
g73
(dp2955
sg82
g2940
sg75
(lp2956
g68
(g69
g70
NtRp2957
(dp2958
g73
(dp2959
g81
I4
ssg82
g2953
sg75
(lp2960
S'a20f7851-13bb-4806-9ec5-10df723d7f51'
p2961
asbasbasbag68
(g84
g70
NtRp2962
(dp2963
g73
(dp2964
sg82
g2914
sg75
(lp2965
g68
(g89
g70
NtRp2966
(dp2967
g73
(dp2968
g93
g94
ssg82
g2962
sg75
(lp2969
S'last_visit'
p2970
asbag68
(g89
g70
NtRp2971
(dp2972
g73
(dp2973
g100
g101
ssg82
g2962
sg75
(lp2974
S':'
asbag68
(g89
g70
NtRp2975
(dp2976
g73
(dp2977
sg82
g2962
sg75
(lp2978
g68
(g69
g70
NtRp2979
(dp2980
g73
(dp2981
g81
I4
ssg82
g2975
sg75
(lp2982
S'datetime.datetime(2012, 2, 29, 19, 2, 19, 762409)'
p2983
asbasbasbag68
(g84
g70
NtRp2984
(dp2985
g73
(dp2986
sg82
g2914
sg75
(lp2987
g68
(g89
g70
NtRp2988
(dp2989
g73
(dp2990
g93
g94
ssg82
g2984
sg75
(lp2991
S'remember'
p2992
asbag68
(g89
g70
NtRp2993
(dp2994
g73
(dp2995
g100
g101
ssg82
g2984
sg75
(lp2996
S':'
asbag68
(g89
g70
NtRp2997
(dp2998
g73
(dp2999
sg82
g2984
sg75
(lp3000
g68
(g69
g70
NtRp3001
(dp3002
g73
(dp3003
g81
I4
ssg82
g2997
sg75
(lp3004
g111
asbasbasbag68
(g84
g70
NtRp3005
(dp3006
g73
(dp3007
sg82
g2914
sg75
(lp3008
g68
(g89
g70
NtRp3009
(dp3010
g73
(dp3011
g93
g94
ssg82
g3005
sg75
(lp3012
S'user'
p3013
asbag68
(g89
g70
NtRp3014
(dp3015
g73
(dp3016
g100
g101
ssg82
g3005
sg75
(lp3017
S':'
asbag68
(g89
g70
NtRp3018
(dp3019
g73
(dp3020
sg82
g3005
sg75
(lp3021
g68
(g69
g70
NtRp3022
(dp3023
g73
(dp3024
g81
I4
ssg82
g3018
sg75
(lp3025
g68
(g77
g70
NtRp3026
(dp3027
g73
(dp3028
g81
I3
ssg82
Nsg75
(lp3029
g68
(g84
g70
NtRp3030
(dp3031
g73
(dp3032
sg82
g3026
sg75
(lp3033
g68
(g89
g70
NtRp3034
(dp3035
g73
(dp3036
g93
g94
ssg82
g3030
sg75
(lp3037
S'email'
p3038
asbag68
(g89
g70
NtRp3039
(dp3040
g73
(dp3041
g100
g101
ssg82
g3030
sg75
(lp3042
S':'
asbag68
(g89
g70
NtRp3043
(dp3044
g73
(dp3045
sg82
g3030
sg75
(lp3046
g68
(g69
g70
NtRp3047
(dp3048
g73
(dp3049
g81
I3
ssg82
g3043
sg75
(lp3050
S'shezad.khan@durham.ac.uk'
p3051
asbasbasbag68
(g84
g70
NtRp3052
(dp3053
g73
(dp3054
sg82
g3026
sg75
(lp3055
g68
(g89
g70
NtRp3056
(dp3057
g73
(dp3058
g93
g94
ssg82
g3052
sg75
(lp3059
S'first_name'
p3060
asbag68
(g89
g70
NtRp3061
(dp3062
g73
(dp3063
g100
g101
ssg82
g3052
sg75
(lp3064
S':'
asbag68
(g89
g70
NtRp3065
(dp3066
g73
(dp3067
sg82
g3052
sg75
(lp3068
g68
(g69
g70
NtRp3069
(dp3070
g73
(dp3071
g81
I3
ssg82
g3065
sg75
(lp3072
S'Shezad'
p3073
asbasbasbag68
(g84
g70
NtRp3074
(dp3075
g73
(dp3076
sg82
g3026
sg75
(lp3077
g68
(g89
g70
NtRp3078
(dp3079
g73
(dp3080
g93
g94
ssg82
g3074
sg75
(lp3081
S'id'
p3082
asbag68
(g89
g70
NtRp3083
(dp3084
g73
(dp3085
g100
g101
ssg82
g3074
sg75
(lp3086
S':'
asbag68
(g89
g70
NtRp3087
(dp3088
g73
(dp3089
sg82
g3074
sg75
(lp3090
g68
(g69
g70
NtRp3091
(dp3092
g73
(dp3093
g81
I3
ssg82
g3087
sg75
(lp3094
S'1'
asbasbasbag68
(g84
g70
NtRp3095
(dp3096
g73
(dp3097
sg82
g3026
sg75
(lp3098
g68
(g89
g70
NtRp3099
(dp3100
g73
(dp3101
g93
g94
ssg82
g3095
sg75
(lp3102
S'last_name'
p3103
asbag68
(g89
g70
NtRp3104
(dp3105
g73
(dp3106
g100
g101
ssg82
g3095
sg75
(lp3107
S':'
asbag68
(g89
g70
NtRp3108
(dp3109
g73
(dp3110
sg82
g3095
sg75
(lp3111
g68
(g69
g70
NtRp3112
(dp3113
g73
(dp3114
g81
I3
ssg82
g3108
sg75
(lp3115
S'Khan'
p3116
asbasbasbag68
(g84
g70
NtRp3117
(dp3118
g73
(dp3119
sg82
g3026
sg75
(lp3120
g68
(g89
g70
NtRp3121
(dp3122
g73
(dp3123
g93
g94
ssg82
g3117
sg75
(lp3124
S'password'
p3125
asbag68
(g89
g70
NtRp3126
(dp3127
g73
(dp3128
g100
g101
ssg82
g3117
sg75
(lp3129
S':'
asbag68
(g89
g70
NtRp3130
(dp3131
g73
(dp3132
sg82
g3117
sg75
(lp3133
g68
(g69
g70
NtRp3134
(dp3135
g73
(dp3136
g81
I3
ssg82
g3130
sg75
(lp3137
S'f581c052587db26a3fb3708818cf8e4b'
p3138
asbasbasbag68
(g84
g70
NtRp3139
(dp3140
g73
(dp3141
sg82
g3026
sg75
(lp3142
g68
(g89
g70
NtRp3143
(dp3144
g73
(dp3145
g93
g94
ssg82
g3139
sg75
(lp3146
S'registration_id'
p3147
asbag68
(g89
g70
NtRp3148
(dp3149
g73
(dp3150
g100
g101
ssg82
g3139
sg75
(lp3151
S':'
asbag68
(g89
g70
NtRp3152
(dp3153
g73
(dp3154
sg82
g3139
sg75
(lp3155
g68
(g69
g70
NtRp3156
(dp3157
g73
(dp3158
g81
I3
ssg82
g3152
sg75
(lp3159
S''
asbasbasbag68
(g84
g70
NtRp3160
(dp3161
g73
(dp3162
sg82
g3026
sg75
(lp3163
g68
(g89
g70
NtRp3164
(dp3165
g73
(dp3166
g93
g94
ssg82
g3160
sg75
(lp3167
S'registration_key'
p3168
asbag68
(g89
g70
NtRp3169
(dp3170
g73
(dp3171
g100
g101
ssg82
g3160
sg75
(lp3172
S':'
asbag68
(g89
g70
NtRp3173
(dp3174
g73
(dp3175
sg82
g3160
sg75
(lp3176
g68
(g69
g70
NtRp3177
(dp3178
g73
(dp3179
g81
I3
ssg82
g3173
sg75
(lp3180
S''
asbasbasbag68
(g84
g70
NtRp3181
(dp3182
g73
(dp3183
sg82
g3026
sg75
(lp3184
g68
(g89
g70
NtRp3185
(dp3186
g73
(dp3187
g93
g94
ssg82
g3181
sg75
(lp3188
S'reset_password_key'
p3189
asbag68
(g89
g70
NtRp3190
(dp3191
g73
(dp3192
g100
g101
ssg82
g3181
sg75
(lp3193
S':'
asbag68
(g89
g70
NtRp3194
(dp3195
g73
(dp3196
sg82
g3181
sg75
(lp3197
g68
(g69
g70
NtRp3198
(dp3199
g73
(dp3200
g81
I3
ssg82
g3194
sg75
(lp3201
S''
asbasbasbasbasbasbasbasbasbasbasbasbasbsS'etype'
p3202
S"<type 'exceptions.SyntaxError'>"
p3203
sS'date'
p3204
S'Thu Mar  1 00:53:49 2012'
p3205
sS'response'
p3206
g68
(g69
g70
NtRp3207
(dp3208
g73
(dp3209
sg75
(lp3210
g68
(g77
g70
NtRp3211
(dp3212
g73
(dp3213
g81
I5
ssg82
Nsg75
(lp3214
g68
(g84
g70
NtRp3215
(dp3216
g73
(dp3217
sg82
g3211
sg75
(lp3218
g68
(g89
g70
NtRp3219
(dp3220
g73
(dp3221
g93
g94
ssg82
g3215
sg75
(lp3222
g166
asbag68
(g89
g70
NtRp3223
(dp3224
g73
(dp3225
g100
g101
ssg82
g3215
sg75
(lp3226
S':'
asbag68
(g89
g70
NtRp3227
(dp3228
g73
(dp3229
sg82
g3215
sg75
(lp3230
g68
(g69
g70
NtRp3231
(dp3232
g73
(dp3233
g81
I5
ssg82
g3227
sg75
(lp3234
S'<cStringIO.StringO object at 0xa28a5e0>'
p3235
asbasbasbag68
(g84
g70
NtRp3236
(dp3237
g73
(dp3238
sg82
g3211
sg75
(lp3239
g68
(g89
g70
NtRp3240
(dp3241
g73
(dp3242
g93
g94
ssg82
g3236
sg75
(lp3243
g232
asbag68
(g89
g70
NtRp3244
(dp3245
g73
(dp3246
g100
g101
ssg82
g3236
sg75
(lp3247
S':'
asbag68
(g89
g70
NtRp3248
(dp3249
g73
(dp3250
sg82
g3236
sg75
(lp3251
g68
(g69
g70
NtRp3252
(dp3253
g73
(dp3254
g81
I5
ssg82
g3248
sg75
(lp3255
g68
(g77
g70
NtRp3256
(dp3257
g73
(dp3258
g81
I4
ssg82
Nsg75
(lp3259
g68
(g84
g70
NtRp3260
(dp3261
g73
(dp3262
sg82
g3256
sg75
(lp3263
g68
(g89
g70
NtRp3264
(dp3265
g73
(dp3266
g93
g94
ssg82
g3260
sg75
(lp3267
S'session_id_formalsignup'
p3268
asbag68
(g89
g70
NtRp3269
(dp3270
g73
(dp3271
g100
g101
ssg82
g3260
sg75
(lp3272
S':'
asbag68
(g89
g70
NtRp3273
(dp3274
g73
(dp3275
sg82
g3260
sg75
(lp3276
g68
(g69
g70
NtRp3277
(dp3278
g73
(dp3279
g81
I4
ssg82
g3273
sg75
(lp3280
g68
(g77
g70
NtRp3281
(dp3282
g73
(dp3283
g81
I3
ssg82
Nsg75
(lp3284
g68
(g84
g70
NtRp3285
(dp3286
g73
(dp3287
sg82
g3281
sg75
(lp3288
g68
(g89
g70
NtRp3289
(dp3290
g73
(dp3291
g93
g94
ssg82
g3285
sg75
(lp3292
g282
asbag68
(g89
g70
NtRp3293
(dp3294
g73
(dp3295
g100
g101
ssg82
g3285
sg75
(lp3296
S':'
asbag68
(g89
g70
NtRp3297
(dp3298
g73
(dp3299
sg82
g3285
sg75
(lp3300
g68
(g69
g70
NtRp3301
(dp3302
g73
(dp3303
g81
I3
ssg82
g3297
sg75
(lp3304
S''
asbasbasbag68
(g84
g70
NtRp3305
(dp3306
g73
(dp3307
sg82
g3281
sg75
(lp3308
g68
(g89
g70
NtRp3309
(dp3310
g73
(dp3311
g93
g94
ssg82
g3305
sg75
(lp3312
g303
asbag68
(g89
g70
NtRp3313
(dp3314
g73
(dp3315
g100
g101
ssg82
g3305
sg75
(lp3316
S':'
asbag68
(g89
g70
NtRp3317
(dp3318
g73
(dp3319
sg82
g3305
sg75
(lp3320
g68
(g69
g70
NtRp3321
(dp3322
g73
(dp3323
g81
I3
ssg82
g3317
sg75
(lp3324
S''
asbasbasbag68
(g84
g70
NtRp3325
(dp3326
g73
(dp3327
sg82
g3281
sg75
(lp3328
g68
(g89
g70
NtRp3329
(dp3330
g73
(dp3331
g93
g94
ssg82
g3325
sg75
(lp3332
g324
asbag68
(g89
g70
NtRp3333
(dp3334
g73
(dp3335
g100
g101
ssg82
g3325
sg75
(lp3336
S':'
asbag68
(g89
g70
NtRp3337
(dp3338
g73
(dp3339
sg82
g3325
sg75
(lp3340
g68
(g69
g70
NtRp3341
(dp3342
g73
(dp3343
g81
I3
ssg82
g3337
sg75
(lp3344
S''
asbasbasbag68
(g84
g70
NtRp3345
(dp3346
g73
(dp3347
sg82
g3281
sg75
(lp3348
g68
(g89
g70
NtRp3349
(dp3350
g73
(dp3351
g93
g94
ssg82
g3345
sg75
(lp3352
g345
asbag68
(g89
g70
NtRp3353
(dp3354
g73
(dp3355
g100
g101
ssg82
g3345
sg75
(lp3356
S':'
asbag68
(g89
g70
NtRp3357
(dp3358
g73
(dp3359
sg82
g3345
sg75
(lp3360
g68
(g69
g70
NtRp3361
(dp3362
g73
(dp3363
g81
I3
ssg82
g3357
sg75
(lp3364
S''
asbasbasbag68
(g84
g70
NtRp3365
(dp3366
g73
(dp3367
sg82
g3281
sg75
(lp3368
g68
(g89
g70
NtRp3369
(dp3370
g73
(dp3371
g93
g94
ssg82
g3365
sg75
(lp3372
g366
asbag68
(g89
g70
NtRp3373
(dp3374
g73
(dp3375
g100
g101
ssg82
g3365
sg75
(lp3376
S':'
asbag68
(g89
g70
NtRp3377
(dp3378
g73
(dp3379
sg82
g3365
sg75
(lp3380
g68
(g69
g70
NtRp3381
(dp3382
g73
(dp3383
g81
I3
ssg82
g3377
sg75
(lp3384
S''
asbasbasbag68
(g84
g70
NtRp3385
(dp3386
g73
(dp3387
sg82
g3281
sg75
(lp3388
g68
(g89
g70
NtRp3389
(dp3390
g73
(dp3391
g93
g94
ssg82
g3385
sg75
(lp3392
g387
asbag68
(g89
g70
NtRp3393
(dp3394
g73
(dp3395
g100
g101
ssg82
g3385
sg75
(lp3396
S':'
asbag68
(g89
g70
NtRp3397
(dp3398
g73
(dp3399
sg82
g3385
sg75
(lp3400
g68
(g69
g70
NtRp3401
(dp3402
g73
(dp3403
g81
I3
ssg82
g3397
sg75
(lp3404
S'/'
asbasbasbag68
(g84
g70
NtRp3405
(dp3406
g73
(dp3407
sg82
g3281
sg75
(lp3408
g68
(g89
g70
NtRp3409
(dp3410
g73
(dp3411
g93
g94
ssg82
g3405
sg75
(lp3412
g408
asbag68
(g89
g70
NtRp3413
(dp3414
g73
(dp3415
g100
g101
ssg82
g3405
sg75
(lp3416
S':'
asbag68
(g89
g70
NtRp3417
(dp3418
g73
(dp3419
sg82
g3405
sg75
(lp3420
g68
(g69
g70
NtRp3421
(dp3422
g73
(dp3423
g81
I3
ssg82
g3417
sg75
(lp3424
S''
asbasbasbag68
(g84
g70
NtRp3425
(dp3426
g73
(dp3427
sg82
g3281
sg75
(lp3428
g68
(g89
g70
NtRp3429
(dp3430
g73
(dp3431
g93
g94
ssg82
g3425
sg75
(lp3432
g429
asbag68
(g89
g70
NtRp3433
(dp3434
g73
(dp3435
g100
g101
ssg82
g3425
sg75
(lp3436
S':'
asbag68
(g89
g70
NtRp3437
(dp3438
g73
(dp3439
sg82
g3425
sg75
(lp3440
g68
(g69
g70
NtRp3441
(dp3442
g73
(dp3443
g81
I3
ssg82
g3437
sg75
(lp3444
S''
asbasbasbasbasbasbasbasbasbasbasbag68
(g84
g70
NtRp3445
(dp3446
g73
(dp3447
sg82
g3211
sg75
(lp3448
g68
(g89
g70
NtRp3449
(dp3450
g73
(dp3451
g93
g94
ssg82
g3445
sg75
(lp3452
S'files'
p3453
asbag68
(g89
g70
NtRp3454
(dp3455
g73
(dp3456
g100
g101
ssg82
g3445
sg75
(lp3457
S':'
asbag68
(g89
g70
NtRp3458
(dp3459
g73
(dp3460
sg82
g3445
sg75
(lp3461
g68
(g69
g70
NtRp3462
(dp3463
g73
(dp3464
g81
I5
ssg82
g3458
sg75
(lp3465
g68
(g77
g70
NtRp3466
(dp3467
g73
(dp3468
g81
I4
ssg82
Nsg75
(lp3469
sbasbasbasbag68
(g84
g70
NtRp3470
(dp3471
g73
(dp3472
sg82
g3211
sg75
(lp3473
g68
(g89
g70
NtRp3474
(dp3475
g73
(dp3476
g93
g94
ssg82
g3470
sg75
(lp3477
S'flash'
p3478
asbag68
(g89
g70
NtRp3479
(dp3480
g73
(dp3481
g100
g101
ssg82
g3470
sg75
(lp3482
S':'
asbag68
(g89
g70
NtRp3483
(dp3484
g73
(dp3485
sg82
g3470
sg75
(lp3486
g68
(g69
g70
NtRp3487
(dp3488
g73
(dp3489
g81
I5
ssg82
g3483
sg75
(lp3490
S''
asbasbasbag68
(g84
g70
NtRp3491
(dp3492
g73
(dp3493
sg82
g3211
sg75
(lp3494
g68
(g89
g70
NtRp3495
(dp3496
g73
(dp3497
g93
g94
ssg82
g3491
sg75
(lp3498
S'generic_patterns'
p3499
asbag68
(g89
g70
NtRp3500
(dp3501
g73
(dp3502
g100
g101
ssg82
g3491
sg75
(lp3503
S':'
asbag68
(g89
g70
NtRp3504
(dp3505
g73
(dp3506
sg82
g3491
sg75
(lp3507
g68
(g69
g70
NtRp3508
(dp3509
g73
(dp3510
g81
I5
ssg82
g3504
sg75
(lp3511
g68
(g77
g70
NtRp3512
(dp3513
g73
(dp3514
g81
I4
ssg82
Nsg75
(lp3515
g68
(g84
g70
NtRp3516
(dp3517
g73
(dp3518
sg82
g3512
sg75
(lp3519
g68
(g89
g70
NtRp3520
(dp3521
g73
(dp3522
sg82
g3516
sg75
(lp3523
g68
(g69
g70
NtRp3524
(dp3525
g73
(dp3526
g81
I4
ssg82
g3520
sg75
(lp3527
S'*'
asbasbasbasbasbasbasbag68
(g84
g70
NtRp3528
(dp3529
g73
(dp3530
sg82
g3211
sg75
(lp3531
g68
(g89
g70
NtRp3532
(dp3533
g73
(dp3534
g93
g94
ssg82
g3528
sg75
(lp3535
S'headers'
p3536
asbag68
(g89
g70
NtRp3537
(dp3538
g73
(dp3539
g100
g101
ssg82
g3528
sg75
(lp3540
S':'
asbag68
(g89
g70
NtRp3541
(dp3542
g73
(dp3543
sg82
g3528
sg75
(lp3544
g68
(g69
g70
NtRp3545
(dp3546
g73
(dp3547
g81
I5
ssg82
g3541
sg75
(lp3548
g68
(g77
g70
NtRp3549
(dp3550
g73
(dp3551
g81
I4
ssg82
Nsg75
(lp3552
g68
(g84
g70
NtRp3553
(dp3554
g73
(dp3555
sg82
g3549
sg75
(lp3556
g68
(g89
g70
NtRp3557
(dp3558
g73
(dp3559
g93
g94
ssg82
g3553
sg75
(lp3560
S'Cache-Control'
p3561
asbag68
(g89
g70
NtRp3562
(dp3563
g73
(dp3564
g100
g101
ssg82
g3553
sg75
(lp3565
S':'
asbag68
(g89
g70
NtRp3566
(dp3567
g73
(dp3568
sg82
g3553
sg75
(lp3569
g68
(g69
g70
NtRp3570
(dp3571
g73
(dp3572
g81
I4
ssg82
g3566
sg75
(lp3573
S'no-store, no-cache, must-revalidate, post-check=0, pre-check=0'
p3574
asbasbasbag68
(g84
g70
NtRp3575
(dp3576
g73
(dp3577
sg82
g3549
sg75
(lp3578
g68
(g89
g70
NtRp3579
(dp3580
g73
(dp3581
g93
g94
ssg82
g3575
sg75
(lp3582
S'Content-Type'
p3583
asbag68
(g89
g70
NtRp3584
(dp3585
g73
(dp3586
g100
g101
ssg82
g3575
sg75
(lp3587
S':'
asbag68
(g89
g70
NtRp3588
(dp3589
g73
(dp3590
sg82
g3575
sg75
(lp3591
g68
(g69
g70
NtRp3592
(dp3593
g73
(dp3594
g81
I4
ssg82
g3588
sg75
(lp3595
S'text/html; charset=utf-8'
p3596
asbasbasbag68
(g84
g70
NtRp3597
(dp3598
g73
(dp3599
sg82
g3549
sg75
(lp3600
g68
(g89
g70
NtRp3601
(dp3602
g73
(dp3603
g93
g94
ssg82
g3597
sg75
(lp3604
S'Expires'
p3605
asbag68
(g89
g70
NtRp3606
(dp3607
g73
(dp3608
g100
g101
ssg82
g3597
sg75
(lp3609
S':'
asbag68
(g89
g70
NtRp3610
(dp3611
g73
(dp3612
sg82
g3597
sg75
(lp3613
g68
(g69
g70
NtRp3614
(dp3615
g73
(dp3616
g81
I4
ssg82
g3610
sg75
(lp3617
S'Thu, 01 Mar 2012 00:53:49 GMT'
p3618
asbasbasbag68
(g84
g70
NtRp3619
(dp3620
g73
(dp3621
sg82
g3549
sg75
(lp3622
g68
(g89
g70
NtRp3623
(dp3624
g73
(dp3625
g93
g94
ssg82
g3619
sg75
(lp3626
S'Pragma'
p3627
asbag68
(g89
g70
NtRp3628
(dp3629
g73
(dp3630
g100
g101
ssg82
g3619
sg75
(lp3631
S':'
asbag68
(g89
g70
NtRp3632
(dp3633
g73
(dp3634
sg82
g3619
sg75
(lp3635
g68
(g69
g70
NtRp3636
(dp3637
g73
(dp3638
g81
I4
ssg82
g3632
sg75
(lp3639
S'no-cache'
p3640
asbasbasbag68
(g84
g70
NtRp3641
(dp3642
g73
(dp3643
sg82
g3549
sg75
(lp3644
g68
(g89
g70
NtRp3645
(dp3646
g73
(dp3647
g93
g94
ssg82
g3641
sg75
(lp3648
S'X-Powered-By'
p3649
asbag68
(g89
g70
NtRp3650
(dp3651
g73
(dp3652
g100
g101
ssg82
g3641
sg75
(lp3653
S':'
asbag68
(g89
g70
NtRp3654
(dp3655
g73
(dp3656
sg82
g3641
sg75
(lp3657
g68
(g69
g70
NtRp3658
(dp3659
g73
(dp3660
g81
I4
ssg82
g3654
sg75
(lp3661
S'web2py'
p3662
asbasbasbasbasbasbasbag68
(g84
g70
NtRp3663
(dp3664
g73
(dp3665
sg82
g3211
sg75
(lp3666
g68
(g89
g70
NtRp3667
(dp3668
g73
(dp3669
g93
g94
ssg82
g3663
sg75
(lp3670
S'menu'
p3671
asbag68
(g89
g70
NtRp3672
(dp3673
g73
(dp3674
g100
g101
ssg82
g3663
sg75
(lp3675
S':'
asbag68
(g89
g70
NtRp3676
(dp3677
g73
(dp3678
sg82
g3663
sg75
(lp3679
g68
(g69
g70
NtRp3680
(dp3681
g73
(dp3682
g81
I5
ssg82
g3676
sg75
(lp3683
g68
(g77
g70
NtRp3684
(dp3685
g73
(dp3686
g81
I4
ssg82
Nsg75
(lp3687
g68
(g84
g70
NtRp3688
(dp3689
g73
(dp3690
sg82
g3684
sg75
(lp3691
g68
(g89
g70
NtRp3692
(dp3693
g73
(dp3694
sg82
g3688
sg75
(lp3695
g68
(g69
g70
NtRp3696
(dp3697
g73
(dp3698
g81
I4
ssg82
g3692
sg75
(lp3699
g68
(g77
g70
NtRp3700
(dp3701
g73
(dp3702
g81
I3
ssg82
Nsg75
(lp3703
g68
(g84
g70
NtRp3704
(dp3705
g73
(dp3706
sg82
g3700
sg75
(lp3707
g68
(g89
g70
NtRp3708
(dp3709
g73
(dp3710
sg82
g3704
sg75
(lp3711
g68
(g69
g70
NtRp3712
(dp3713
g73
(dp3714
g81
I3
ssg82
g3708
sg75
(lp3715
cgluon.languages
lazyT_unpickle
p3716
(S't\x04\x00\x00\x00Home'
tRp3717
asbasbasbag68
(g84
g70
NtRp3718
(dp3719
g73
(dp3720
sg82
g3700
sg75
(lp3721
g68
(g89
g70
NtRp3722
(dp3723
g73
(dp3724
sg82
g3718
sg75
(lp3725
g68
(g69
g70
NtRp3726
(dp3727
g73
(dp3728
g81
I3
ssg82
g3722
sg75
(lp3729
g111
asbasbasbag68
(g84
g70
NtRp3730
(dp3731
g73
(dp3732
sg82
g3700
sg75
(lp3733
g68
(g89
g70
NtRp3734
(dp3735
g73
(dp3736
sg82
g3730
sg75
(lp3737
g68
(g69
g70
NtRp3738
(dp3739
g73
(dp3740
g81
I3
ssg82
g3734
sg75
(lp3741
S'/FormalSignUp/default/index'
p3742
asbasbasbag68
(g84
g70
NtRp3743
(dp3744
g73
(dp3745
sg82
g3700
sg75
(lp3746
g68
(g89
g70
NtRp3747
(dp3748
g73
(dp3749
sg82
g3743
sg75
(lp3750
g68
(g69
g70
NtRp3751
(dp3752
g73
(dp3753
g81
I3
ssg82
g3747
sg75
(lp3754
g68
(g77
g70
NtRp3755
(dp3756
g73
(dp3757
g81
I2
ssg82
Nsg75
(lp3758
sbasbasbasbasbasbasbasbag68
(g84
g70
NtRp3759
(dp3760
g73
(dp3761
sg82
g3684
sg75
(lp3762
g68
(g89
g70
NtRp3763
(dp3764
g73
(dp3765
sg82
g3759
sg75
(lp3766
g68
(g69
g70
NtRp3767
(dp3768
g73
(dp3769
g81
I4
ssg82
g3763
sg75
(lp3770
g68
(g77
g70
NtRp3771
(dp3772
g73
(dp3773
g81
I3
ssg82
Nsg75
(lp3774
g68
(g84
g70
NtRp3775
(dp3776
g73
(dp3777
sg82
g3771
sg75
(lp3778
g68
(g89
g70
NtRp3779
(dp3780
g73
(dp3781
sg82
g3775
sg75
(lp3782
g68
(g69
g70
NtRp3783
(dp3784
g73
(dp3785
g81
I3
ssg82
g3779
sg75
(lp3786
g68
(cgluon.html
SPAN
p3787
g70
NtRp3788
(dp3789
g73
(dp3790
g93
S'color:yellow'
p3791
ssg82
Nsg75
(lp3792
g3662
asbasbasbasbag68
(g84
g70
NtRp3793
(dp3794
g73
(dp3795
sg82
g3771
sg75
(lp3796
g68
(g89
g70
NtRp3797
(dp3798
g73
(dp3799
sg82
g3793
sg75
(lp3800
g68
(g69
g70
NtRp3801
(dp3802
g73
(dp3803
g81
I3
ssg82
g3797
sg75
(lp3804
g111
asbasbasbag68
(g84
g70
NtRp3805
(dp3806
g73
(dp3807
sg82
g3771
sg75
(lp3808
g68
(g89
g70
NtRp3809
(dp3810
g73
(dp3811
sg82
g3805
sg75
(lp3812
g68
(g69
g70
NtRp3813
(dp3814
g73
(dp3815
g81
I3
ssg82
g3809
sg75
(lp3816
S'None'
p3817
asbasbasbag68
(g84
g70
NtRp3818
(dp3819
g73
(dp3820
sg82
g3771
sg75
(lp3821
g68
(g89
g70
NtRp3822
(dp3823
g73
(dp3824
sg82
g3818
sg75
(lp3825
g68
(g69
g70
NtRp3826
(dp3827
g73
(dp3828
g81
I3
ssg82
g3822
sg75
(lp3829
g68
(g77
g70
NtRp3830
(dp3831
g73
(dp3832
g81
I2
ssg82
Nsg75
(lp3833
g68
(g84
g70
NtRp3834
(dp3835
g73
(dp3836
sg82
g3830
sg75
(lp3837
g68
(g89
g70
NtRp3838
(dp3839
g73
(dp3840
sg82
g3834
sg75
(lp3841
g68
(g69
g70
NtRp3842
(dp3843
g73
(dp3844
g81
I2
ssg82
g3838
sg75
(lp3845
g68
(g77
g70
NtRp3846
(dp3847
g73
(dp3848
g81
I1
ssg82
Nsg75
(lp3849
g68
(g84
g70
NtRp3850
(dp3851
g73
(dp3852
sg82
g3846
sg75
(lp3853
g68
(g89
g70
NtRp3854
(dp3855
g73
(dp3856
sg82
g3850
sg75
(lp3857
g68
(g69
g70
NtRp3858
(dp3859
g73
(dp3860
g81
I1
ssg82
g3854
sg75
(lp3861
g3716
(S's\x08\x00\x00\x00My Sites'
tRp3862
asbasbasbag68
(g84
g70
NtRp3863
(dp3864
g73
(dp3865
sg82
g3846
sg75
(lp3866
g68
(g89
g70
NtRp3867
(dp3868
g73
(dp3869
sg82
g3863
sg75
(lp3870
g68
(g69
g70
NtRp3871
(dp3872
g73
(dp3873
g81
I1
ssg82
g3867
sg75
(lp3874
I00
asbasbasbag68
(g84
g70
NtRp3875
(dp3876
g73
(dp3877
sg82
g3846
sg75
(lp3878
g68
(g89
g70
NtRp3879
(dp3880
g73
(dp3881
sg82
g3875
sg75
(lp3882
g68
(g69
g70
NtRp3883
(dp3884
g73
(dp3885
g81
I1
ssg82
g3879
sg75
(lp3886
S'/admin/default/site'
p3887
asbasbasbasbasbasbasbag68
(g84
g70
NtRp3888
(dp3889
g73
(dp3890
sg82
g3830
sg75
(lp3891
g68
(g89
g70
NtRp3892
(dp3893
g73
(dp3894
sg82
g3888
sg75
(lp3895
g68
(g69
g70
NtRp3896
(dp3897
g73
(dp3898
g81
I2
ssg82
g3892
sg75
(lp3899
g68
(g77
g70
NtRp3900
(dp3901
g73
(dp3902
g81
I1
ssg82
Nsg75
(lp3903
g68
(g84
g70
NtRp3904
(dp3905
g73
(dp3906
sg82
g3900
sg75
(lp3907
g68
(g89
g70
NtRp3908
(dp3909
g73
(dp3910
sg82
g3904
sg75
(lp3911
g68
(g69
g70
NtRp3912
(dp3913
g73
(dp3914
g81
I1
ssg82
g3908
sg75
(lp3915
g3716
(S's\x08\x00\x00\x00This App'
tRp3916
asbasbasbag68
(g84
g70
NtRp3917
(dp3918
g73
(dp3919
sg82
g3900
sg75
(lp3920
g68
(g89
g70
NtRp3921
(dp3922
g73
(dp3923
sg82
g3917
sg75
(lp3924
g68
(g69
g70
NtRp3925
(dp3926
g73
(dp3927
g81
I1
ssg82
g3921
sg75
(lp3928
I00
asbasbasbag68
(g84
g70
NtRp3929
(dp3930
g73
(dp3931
sg82
g3900
sg75
(lp3932
g68
(g89
g70
NtRp3933
(dp3934
g73
(dp3935
sg82
g3929
sg75
(lp3936
g68
(g69
g70
NtRp3937
(dp3938
g73
(dp3939
g81
I1
ssg82
g3933
sg75
(lp3940
S'/admin/default/design/FormalSignUp'
p3941
asbasbasbag68
(g84
g70
NtRp3942
(dp3943
g73
(dp3944
sg82
g3900
sg75
(lp3945
g68
(g89
g70
NtRp3946
(dp3947
g73
(dp3948
sg82
g3942
sg75
(lp3949
g68
(g69
g70
NtRp3950
(dp3951
g73
(dp3952
g81
I1
ssg82
g3946
sg75
(lp3953
(lp3954
(g3716
(S't\n\x00\x00\x00Controller'
tRp3955
I00
S'/admin/default/edit/FormalSignUp/controllers/default.py'
tp3956
a(g3716
(S't\x04\x00\x00\x00View'
tRp3957
I00
S'/admin/default/edit/FormalSignUp/views/default/index.html'
tp3958
a(g3716
(S't\x06\x00\x00\x00Layout'
tRp3959
I00
S'/admin/default/edit/FormalSignUp/views/layout.html'
tp3960
a(g3716
(S't\n\x00\x00\x00Stylesheet'
tRp3961
I00
S'/admin/default/edit/FormalSignUp/static/css/web2py.css'
tp3962
a(g3716
(S's\x08\x00\x00\x00DB Model'
tRp3963
I00
S'/admin/default/edit/FormalSignUp/models/db.py'
tp3964
a(g3716
(S's\n\x00\x00\x00Menu Model'
tRp3965
I00
S'/admin/default/edit/FormalSignUp/models/menu.py'
tp3966
a(g3716
(S't\x08\x00\x00\x00Database'
tRp3967
I00
S'/FormalSignUp/appadmin/index'
tp3968
a(g3716
(S't\x06\x00\x00\x00Errors'
tRp3969
I00
S'/admin/default/errors/FormalSignUp'
tp3970
a(g3716
(S't\x05\x00\x00\x00About'
tRp3971
I00
S'/admin/default/about/FormalSignUp'
tp3972
aasbasbasbasbasbasbasbag68
(g84
g70
NtRp3973
(dp3974
g73
(dp3975
sg82
g3830
sg75
(lp3976
g68
(g89
g70
NtRp3977
(dp3978
g73
(dp3979
sg82
g3973
sg75
(lp3980
g68
(g69
g70
NtRp3981
(dp3982
g73
(dp3983
g81
I2
ssg82
g3977
sg75
(lp3984
g68
(g77
g70
NtRp3985
(dp3986
g73
(dp3987
g81
I1
ssg82
Nsg75
(lp3988
g68
(g84
g70
NtRp3989
(dp3990
g73
(dp3991
sg82
g3985
sg75
(lp3992
g68
(g89
g70
NtRp3993
(dp3994
g73
(dp3995
sg82
g3989
sg75
(lp3996
g68
(g69
g70
NtRp3997
(dp3998
g73
(dp3999
g81
I1
ssg82
g3993
sg75
(lp4000
S'web2py.com'
p4001
asbasbasbag68
(g84
g70
NtRp4002
(dp4003
g73
(dp4004
sg82
g3985
sg75
(lp4005
g68
(g89
g70
NtRp4006
(dp4007
g73
(dp4008
sg82
g4002
sg75
(lp4009
g68
(g69
g70
NtRp4010
(dp4011
g73
(dp4012
g81
I1
ssg82
g4006
sg75
(lp4013
I00
asbasbasbag68
(g84
g70
NtRp4014
(dp4015
g73
(dp4016
sg82
g3985
sg75
(lp4017
g68
(g89
g70
NtRp4018
(dp4019
g73
(dp4020
sg82
g4014
sg75
(lp4021
g68
(g69
g70
NtRp4022
(dp4023
g73
(dp4024
g81
I1
ssg82
g4018
sg75
(lp4025
S'http://www.web2py.com'
p4026
asbasbasbag68
(g84
g70
NtRp4027
(dp4028
g73
(dp4029
sg82
g3985
sg75
(lp4030
g68
(g89
g70
NtRp4031
(dp4032
g73
(dp4033
sg82
g4027
sg75
(lp4034
g68
(g69
g70
NtRp4035
(dp4036
g73
(dp4037
g81
I1
ssg82
g4031
sg75
(lp4038
(lp4039
(g3716
(S't\x08\x00\x00\x00Download'
tRp4040
I00
S'http://www.web2py.com/examples/default/download'
p4041
tp4042
a(g3716
(S't\x07\x00\x00\x00Support'
tRp4043
I00
S'http://www.web2py.com/examples/default/support'
p4044
tp4045
a(g3716
(S't\x04\x00\x00\x00Demo'
tRp4046
I00
S'http://web2py.com/demo_admin'
p4047
tp4048
a(g3716
(S's\x0e\x00\x00\x00Quick Examples'
tRp4049
I00
S'http://web2py.com/examples/default/examples'
p4050
tp4051
a(g3716
(S't\x03\x00\x00\x00FAQ'
tRp4052
I00
S'http://web2py.com/AlterEgo'
p4053
tp4054
a(g3716
(S't\x06\x00\x00\x00Videos'
tRp4055
I00
S'http://www.web2py.com/examples/default/videos/'
p4056
tp4057
a(g3716
(S's\x11\x00\x00\x00Free Applications'
tRp4058
I00
S'http://web2py.com/appliances'
p4059
tp4060
a(g3716
(S't\x07\x00\x00\x00Plugins'
tRp4061
I00
S'http://web2py.com/plugins'
p4062
tp4063
a(g3716
(S't\x07\x00\x00\x00Layouts'
tRp4064
I00
S'http://web2py.com/layouts'
p4065
tp4066
a(g3716
(S't\x07\x00\x00\x00Recipes'
tRp4067
I00
S'http://web2pyslices.com/'
p4068
tp4069
a(g3716
(S't\x08\x00\x00\x00Semantic'
tRp4070
I00
S'http://web2py.com/semantic'
p4071
tp4072
aasbasbasbasbasbasbasbag68
(g84
g70
NtRp4073
(dp4074
g73
(dp4075
sg82
g3830
sg75
(lp4076
g68
(g89
g70
NtRp4077
(dp4078
g73
(dp4079
sg82
g4073
sg75
(lp4080
g68
(g69
g70
NtRp4081
(dp4082
g73
(dp4083
g81
I2
ssg82
g4077
sg75
(lp4084
g68
(g77
g70
NtRp4085
(dp4086
g73
(dp4087
g81
I1
ssg82
Nsg75
(lp4088
g68
(g84
g70
NtRp4089
(dp4090
g73
(dp4091
sg82
g4085
sg75
(lp4092
g68
(g89
g70
NtRp4093
(dp4094
g73
(dp4095
sg82
g4089
sg75
(lp4096
g68
(g69
g70
NtRp4097
(dp4098
g73
(dp4099
g81
I1
ssg82
g4093
sg75
(lp4100
g3716
(S't\r\x00\x00\x00Documentation'
tRp4101
asbasbasbag68
(g84
g70
NtRp4102
(dp4103
g73
(dp4104
sg82
g4085
sg75
(lp4105
g68
(g89
g70
NtRp4106
(dp4107
g73
(dp4108
sg82
g4102
sg75
(lp4109
g68
(g69
g70
NtRp4110
(dp4111
g73
(dp4112
g81
I1
ssg82
g4106
sg75
(lp4113
I00
asbasbasbag68
(g84
g70
NtRp4114
(dp4115
g73
(dp4116
sg82
g4085
sg75
(lp4117
g68
(g89
g70
NtRp4118
(dp4119
g73
(dp4120
sg82
g4114
sg75
(lp4121
g68
(g69
g70
NtRp4122
(dp4123
g73
(dp4124
g81
I1
ssg82
g4118
sg75
(lp4125
S'http://www.web2py.com/book'
p4126
asbasbasbag68
(g84
g70
NtRp4127
(dp4128
g73
(dp4129
sg82
g4085
sg75
(lp4130
g68
(g89
g70
NtRp4131
(dp4132
g73
(dp4133
sg82
g4127
sg75
(lp4134
g68
(g69
g70
NtRp4135
(dp4136
g73
(dp4137
g81
I1
ssg82
g4131
sg75
(lp4138
(lp4139
(g3716
(S't\x07\x00\x00\x00Preface'
tRp4140
I00
S'http://www.web2py.com/book/default/chapter/00'
p4141
tp4142
a(g3716
(S't\x0c\x00\x00\x00Introduction'
tRp4143
I00
S'http://www.web2py.com/book/default/chapter/01'
p4144
tp4145
a(g3716
(S't\x06\x00\x00\x00Python'
tRp4146
I00
S'http://www.web2py.com/book/default/chapter/02'
p4147
tp4148
a(g3716
(S't\x08\x00\x00\x00Overview'
tRp4149
I00
S'http://www.web2py.com/book/default/chapter/03'
p4150
tp4151
a(g3716
(S's\x08\x00\x00\x00The Core'
tRp4152
I00
S'http://www.web2py.com/book/default/chapter/04'
p4153
tp4154
a(g3716
(S's\t\x00\x00\x00The Views'
tRp4155
I00
S'http://www.web2py.com/book/default/chapter/05'
p4156
tp4157
a(g3716
(S't\x08\x00\x00\x00Database'
tRp4158
I00
S'http://www.web2py.com/book/default/chapter/06'
p4159
tp4160
a(g3716
(S's\x14\x00\x00\x00Forms and Validators'
tRp4161
I00
S'http://www.web2py.com/book/default/chapter/07'
p4162
tp4163
a(g3716
(S's\r\x00\x00\x00Email and SMS'
tRp4164
I00
S'http://www.web2py.com/book/default/chapter/08'
p4165
tp4166
a(g3716
(S's\x0e\x00\x00\x00Access Control'
tRp4167
I00
S'http://www.web2py.com/book/default/chapter/09'
p4168
tp4169
a(g3716
(S't\x08\x00\x00\x00Services'
tRp4170
I00
S'http://www.web2py.com/book/default/chapter/10'
p4171
tp4172
a(g3716
(S's\x0c\x00\x00\x00Ajax Recipes'
tRp4173
I00
S'http://www.web2py.com/book/default/chapter/11'
p4174
tp4175
a(g3716
(S's\x16\x00\x00\x00Components and Plugins'
tRp4176
I00
S'http://www.web2py.com/book/default/chapter/12'
p4177
tp4178
a(g3716
(S's\x12\x00\x00\x00Deployment Recipes'
tRp4179
I00
S'http://www.web2py.com/book/default/chapter/13'
p4180
tp4181
a(g3716
(S's\r\x00\x00\x00Other Recipes'
tRp4182
I00
S'http://www.web2py.com/book/default/chapter/14'
p4183
tp4184
a(g3716
(S's\r\x00\x00\x00Buy this book'
tRp4185
I00
S'http://stores.lulu.com/web2py'
p4186
tp4187
aasbasbasbasbasbasbasbag68
(g84
g70
NtRp4188
(dp4189
g73
(dp4190
sg82
g3830
sg75
(lp4191
g68
(g89
g70
NtRp4192
(dp4193
g73
(dp4194
sg82
g4188
sg75
(lp4195
g68
(g69
g70
NtRp4196
(dp4197
g73
(dp4198
g81
I2
ssg82
g4192
sg75
(lp4199
g68
(g77
g70
NtRp4200
(dp4201
g73
(dp4202
g81
I1
ssg82
Nsg75
(lp4203
g68
(g84
g70
NtRp4204
(dp4205
g73
(dp4206
sg82
g4200
sg75
(lp4207
g68
(g89
g70
NtRp4208
(dp4209
g73
(dp4210
sg82
g4204
sg75
(lp4211
g68
(g69
g70
NtRp4212
(dp4213
g73
(dp4214
g81
I1
ssg82
g4208
sg75
(lp4215
g3716
(S't\t\x00\x00\x00Community'
tRp4216
asbasbasbag68
(g84
g70
NtRp4217
(dp4218
g73
(dp4219
sg82
g4200
sg75
(lp4220
g68
(g89
g70
NtRp4221
(dp4222
g73
(dp4223
sg82
g4217
sg75
(lp4224
g68
(g69
g70
NtRp4225
(dp4226
g73
(dp4227
g81
I1
ssg82
g4221
sg75
(lp4228
I00
asbasbasbag68
(g84
g70
NtRp4229
(dp4230
g73
(dp4231
sg82
g4200
sg75
(lp4232
g68
(g89
g70
NtRp4233
(dp4234
g73
(dp4235
sg82
g4229
sg75
(lp4236
g68
(g69
g70
NtRp4237
(dp4238
g73
(dp4239
g81
I1
ssg82
g4233
sg75
(lp4240
Nasbasbasbag68
(g84
g70
NtRp4241
(dp4242
g73
(dp4243
sg82
g4200
sg75
(lp4244
g68
(g89
g70
NtRp4245
(dp4246
g73
(dp4247
sg82
g4241
sg75
(lp4248
g68
(g69
g70
NtRp4249
(dp4250
g73
(dp4251
g81
I1
ssg82
g4245
sg75
(lp4252
(lp4253
(g3716
(S't\x06\x00\x00\x00Groups'
tRp4254
I00
S'http://www.web2py.com/examples/default/usergroups'
p4255
tp4256
a(g3716
(S't\x07\x00\x00\x00Twitter'
tRp4257
I00
S'http://twitter.com/web2py'
p4258
tp4259
a(g3716
(S's\t\x00\x00\x00Live Chat'
tRp4260
I00
S'http://webchat.freenode.net/?channels=web2py'
p4261
tp4262
aasbasbasbasbasbasbasbag68
(g84
g70
NtRp4263
(dp4264
g73
(dp4265
sg82
g3830
sg75
(lp4266
g68
(g89
g70
NtRp4267
(dp4268
g73
(dp4269
sg82
g4263
sg75
(lp4270
g68
(g69
g70
NtRp4271
(dp4272
g73
(dp4273
g81
I2
ssg82
g4267
sg75
(lp4274
g68
(g77
g70
NtRp4275
(dp4276
g73
(dp4277
g81
I1
ssg82
Nsg75
(lp4278
g68
(g84
g70
NtRp4279
(dp4280
g73
(dp4281
sg82
g4275
sg75
(lp4282
g68
(g89
g70
NtRp4283
(dp4284
g73
(dp4285
sg82
g4279
sg75
(lp4286
g68
(g69
g70
NtRp4287
(dp4288
g73
(dp4289
g81
I1
ssg82
g4283
sg75
(lp4290
g3716
(S't\x07\x00\x00\x00Plugins'
tRp4291
asbasbasbag68
(g84
g70
NtRp4292
(dp4293
g73
(dp4294
sg82
g4275
sg75
(lp4295
g68
(g89
g70
NtRp4296
(dp4297
g73
(dp4298
sg82
g4292
sg75
(lp4299
g68
(g69
g70
NtRp4300
(dp4301
g73
(dp4302
g81
I1
ssg82
g4296
sg75
(lp4303
I00
asbasbasbag68
(g84
g70
NtRp4304
(dp4305
g73
(dp4306
sg82
g4275
sg75
(lp4307
g68
(g89
g70
NtRp4308
(dp4309
g73
(dp4310
sg82
g4304
sg75
(lp4311
g68
(g69
g70
NtRp4312
(dp4313
g73
(dp4314
g81
I1
ssg82
g4308
sg75
(lp4315
Nasbasbasbag68
(g84
g70
NtRp4316
(dp4317
g73
(dp4318
sg82
g4275
sg75
(lp4319
g68
(g89
g70
NtRp4320
(dp4321
g73
(dp4322
sg82
g4316
sg75
(lp4323
g68
(g69
g70
NtRp4324
(dp4325
g73
(dp4326
g81
I1
ssg82
g4320
sg75
(lp4327
(lp4328
(S'plugin_wiki'
p4329
I00
S'http://web2py.com/examples/default/download'
p4330
tp4331
a(g3716
(S's\r\x00\x00\x00Other Plugins'
tRp4332
I00
g4062
tp4333
a(g3716
(S's\x0e\x00\x00\x00Layout Plugins'
tRp4334
I00
g4065
tp4335
aasbasbasbasbasbasbasbasbasbasbasbasbasbasbasbasbasbasbasbag68
(g84
g70
NtRp4336
(dp4337
g73
(dp4338
sg82
g3211
sg75
(lp4339
g68
(g89
g70
NtRp4340
(dp4341
g73
(dp4342
g93
g94
ssg82
g4336
sg75
(lp4343
S'meta'
p4344
asbag68
(g89
g70
NtRp4345
(dp4346
g73
(dp4347
g100
g101
ssg82
g4336
sg75
(lp4348
S':'
asbag68
(g89
g70
NtRp4349
(dp4350
g73
(dp4351
sg82
g4336
sg75
(lp4352
g68
(g69
g70
NtRp4353
(dp4354
g73
(dp4355
g81
I5
ssg82
g4349
sg75
(lp4356
g68
(g77
g70
NtRp4357
(dp4358
g73
(dp4359
g81
I4
ssg82
Nsg75
(lp4360
g68
(g84
g70
NtRp4361
(dp4362
g73
(dp4363
sg82
g4357
sg75
(lp4364
g68
(g89
g70
NtRp4365
(dp4366
g73
(dp4367
g93
g94
ssg82
g4361
sg75
(lp4368
S'author'
p4369
asbag68
(g89
g70
NtRp4370
(dp4371
g73
(dp4372
g100
g101
ssg82
g4361
sg75
(lp4373
S':'
asbag68
(g89
g70
NtRp4374
(dp4375
g73
(dp4376
sg82
g4361
sg75
(lp4377
g68
(g69
g70
NtRp4378
(dp4379
g73
(dp4380
g81
I4
ssg82
g4374
sg75
(lp4381
S'Your Name <you@example.com>'
p4382
asbasbasbag68
(g84
g70
NtRp4383
(dp4384
g73
(dp4385
sg82
g4357
sg75
(lp4386
g68
(g89
g70
NtRp4387
(dp4388
g73
(dp4389
g93
g94
ssg82
g4383
sg75
(lp4390
S'copyright'
p4391
asbag68
(g89
g70
NtRp4392
(dp4393
g73
(dp4394
g100
g101
ssg82
g4383
sg75
(lp4395
S':'
asbag68
(g89
g70
NtRp4396
(dp4397
g73
(dp4398
sg82
g4383
sg75
(lp4399
g68
(g69
g70
NtRp4400
(dp4401
g73
(dp4402
g81
I4
ssg82
g4396
sg75
(lp4403
S'Copyright 2011'
p4404
asbasbasbag68
(g84
g70
NtRp4405
(dp4406
g73
(dp4407
sg82
g4357
sg75
(lp4408
g68
(g89
g70
NtRp4409
(dp4410
g73
(dp4411
g93
g94
ssg82
g4405
sg75
(lp4412
S'description'
p4413
asbag68
(g89
g70
NtRp4414
(dp4415
g73
(dp4416
g100
g101
ssg82
g4405
sg75
(lp4417
S':'
asbag68
(g89
g70
NtRp4418
(dp4419
g73
(dp4420
sg82
g4405
sg75
(lp4421
g68
(g69
g70
NtRp4422
(dp4423
g73
(dp4424
g81
I4
ssg82
g4418
sg75
(lp4425
S'a cool new app'
p4426
asbasbasbag68
(g84
g70
NtRp4427
(dp4428
g73
(dp4429
sg82
g4357
sg75
(lp4430
g68
(g89
g70
NtRp4431
(dp4432
g73
(dp4433
g93
g94
ssg82
g4427
sg75
(lp4434
S'generator'
p4435
asbag68
(g89
g70
NtRp4436
(dp4437
g73
(dp4438
g100
g101
ssg82
g4427
sg75
(lp4439
S':'
asbag68
(g89
g70
NtRp4440
(dp4441
g73
(dp4442
sg82
g4427
sg75
(lp4443
g68
(g69
g70
NtRp4444
(dp4445
g73
(dp4446
g81
I4
ssg82
g4440
sg75
(lp4447
S'Web2py Web Framework'
p4448
asbasbasbag68
(g84
g70
NtRp4449
(dp4450
g73
(dp4451
sg82
g4357
sg75
(lp4452
g68
(g89
g70
NtRp4453
(dp4454
g73
(dp4455
g93
g94
ssg82
g4449
sg75
(lp4456
S'keywords'
p4457
asbag68
(g89
g70
NtRp4458
(dp4459
g73
(dp4460
g100
g101
ssg82
g4449
sg75
(lp4461
S':'
asbag68
(g89
g70
NtRp4462
(dp4463
g73
(dp4464
sg82
g4449
sg75
(lp4465
g68
(g69
g70
NtRp4466
(dp4467
g73
(dp4468
g81
I4
ssg82
g4462
sg75
(lp4469
S'web2py, python, framework'
p4470
asbasbasbasbasbasbasbag68
(g84
g70
NtRp4471
(dp4472
g73
(dp4473
sg82
g3211
sg75
(lp4474
g68
(g89
g70
NtRp4475
(dp4476
g73
(dp4477
g93
g94
ssg82
g4471
sg75
(lp4478
S'postprocessing'
p4479
asbag68
(g89
g70
NtRp4480
(dp4481
g73
(dp4482
g100
g101
ssg82
g4471
sg75
(lp4483
S':'
asbag68
(g89
g70
NtRp4484
(dp4485
g73
(dp4486
sg82
g4471
sg75
(lp4487
g68
(g69
g70
NtRp4488
(dp4489
g73
(dp4490
g81
I5
ssg82
g4484
sg75
(lp4491
g68
(g77
g70
NtRp4492
(dp4493
g73
(dp4494
g81
I4
ssg82
Nsg75
(lp4495
sbasbasbasbag68
(g84
g70
NtRp4496
(dp4497
g73
(dp4498
sg82
g3211
sg75
(lp4499
g68
(g89
g70
NtRp4500
(dp4501
g73
(dp4502
g93
g94
ssg82
g4496
sg75
(lp4503
S'session_file'
p4504
asbag68
(g89
g70
NtRp4505
(dp4506
g73
(dp4507
g100
g101
ssg82
g4496
sg75
(lp4508
S':'
asbag68
(g89
g70
NtRp4509
(dp4510
g73
(dp4511
sg82
g4496
sg75
(lp4512
g68
(g69
g70
NtRp4513
(dp4514
g73
(dp4515
g81
I5
ssg82
g4509
sg75
(lp4516
S"<open file '/home/shaz/Documents/Development/web2py/applications/FormalSignUp/sessions/127.0.0.1-8e485235-b1a7-4d7c-ac78-8aa950c2fff5', mode 'rb+' at 0x9f815a0>"
p4517
asbasbasbag68
(g84
g70
NtRp4518
(dp4519
g73
(dp4520
sg82
g3211
sg75
(lp4521
g68
(g89
g70
NtRp4522
(dp4523
g73
(dp4524
g93
g94
ssg82
g4518
sg75
(lp4525
S'session_filename'
p4526
asbag68
(g89
g70
NtRp4527
(dp4528
g73
(dp4529
g100
g101
ssg82
g4518
sg75
(lp4530
S':'
asbag68
(g89
g70
NtRp4531
(dp4532
g73
(dp4533
sg82
g4518
sg75
(lp4534
g68
(g69
g70
NtRp4535
(dp4536
g73
(dp4537
g81
I5
ssg82
g4531
sg75
(lp4538
S'/home/shaz/Documents/Development/web2py/applications/FormalSignUp/sessions/127.0.0.1-8e485235-b1a7-4d7c-ac78-8aa950c2fff5'
p4539
asbasbasbag68
(g84
g70
NtRp4540
(dp4541
g73
(dp4542
sg82
g3211
sg75
(lp4543
g68
(g89
g70
NtRp4544
(dp4545
g73
(dp4546
g93
g94
ssg82
g4540
sg75
(lp4547
S'session_id'
p4548
asbag68
(g89
g70
NtRp4549
(dp4550
g73
(dp4551
g100
g101
ssg82
g4540
sg75
(lp4552
S':'
asbag68
(g89
g70
NtRp4553
(dp4554
g73
(dp4555
sg82
g4540
sg75
(lp4556
g68
(g69
g70
NtRp4557
(dp4558
g73
(dp4559
g81
I5
ssg82
g4553
sg75
(lp4560
S'127.0.0.1-8e485235-b1a7-4d7c-ac78-8aa950c2fff5'
p4561
asbasbasbag68
(g84
g70
NtRp4562
(dp4563
g73
(dp4564
sg82
g3211
sg75
(lp4565
g68
(g89
g70
NtRp4566
(dp4567
g73
(dp4568
g93
g94
ssg82
g4562
sg75
(lp4569
S'session_id_name'
p4570
asbag68
(g89
g70
NtRp4571
(dp4572
g73
(dp4573
g100
g101
ssg82
g4562
sg75
(lp4574
S':'
asbag68
(g89
g70
NtRp4575
(dp4576
g73
(dp4577
sg82
g4562
sg75
(lp4578
g68
(g69
g70
NtRp4579
(dp4580
g73
(dp4581
g81
I5
ssg82
g4575
sg75
(lp4582
g3268
asbasbasbag68
(g84
g70
NtRp4583
(dp4584
g73
(dp4585
sg82
g3211
sg75
(lp4586
g68
(g89
g70
NtRp4587
(dp4588
g73
(dp4589
g93
g94
ssg82
g4583
sg75
(lp4590
S'session_locked'
p4591
asbag68
(g89
g70
NtRp4592
(dp4593
g73
(dp4594
g100
g101
ssg82
g4583
sg75
(lp4595
S':'
asbag68
(g89
g70
NtRp4596
(dp4597
g73
(dp4598
sg82
g4583
sg75
(lp4599
g68
(g69
g70
NtRp4600
(dp4601
g73
(dp4602
g81
I5
ssg82
g4596
sg75
(lp4603
g1504
asbasbasbag68
(g84
g70
NtRp4604
(dp4605
g73
(dp4606
sg82
g3211
sg75
(lp4607
g68
(g89
g70
NtRp4608
(dp4609
g73
(dp4610
g93
g94
ssg82
g4604
sg75
(lp4611
S'session_new'
p4612
asbag68
(g89
g70
NtRp4613
(dp4614
g73
(dp4615
g100
g101
ssg82
g4604
sg75
(lp4616
S':'
asbag68
(g89
g70
NtRp4617
(dp4618
g73
(dp4619
sg82
g4604
sg75
(lp4620
g68
(g69
g70
NtRp4621
(dp4622
g73
(dp4623
g81
I5
ssg82
g4617
sg75
(lp4624
g111
asbasbasbag68
(g84
g70
NtRp4625
(dp4626
g73
(dp4627
sg82
g3211
sg75
(lp4628
g68
(g89
g70
NtRp4629
(dp4630
g73
(dp4631
g93
g94
ssg82
g4625
sg75
(lp4632
S'status'
p4633
asbag68
(g89
g70
NtRp4634
(dp4635
g73
(dp4636
g100
g101
ssg82
g4625
sg75
(lp4637
S':'
asbag68
(g89
g70
NtRp4638
(dp4639
g73
(dp4640
sg82
g4625
sg75
(lp4641
g68
(g69
g70
NtRp4642
(dp4643
g73
(dp4644
g81
I5
ssg82
g4638
sg75
(lp4645
S'200'
p4646
asbasbasbag68
(g84
g70
NtRp4647
(dp4648
g73
(dp4649
sg82
g3211
sg75
(lp4650
g68
(g89
g70
NtRp4651
(dp4652
g73
(dp4653
g93
g94
ssg82
g4647
sg75
(lp4654
S'subtitle'
p4655
asbag68
(g89
g70
NtRp4656
(dp4657
g73
(dp4658
g100
g101
ssg82
g4647
sg75
(lp4659
S':'
asbag68
(g89
g70
NtRp4660
(dp4661
g73
(dp4662
sg82
g4647
sg75
(lp4663
g68
(g69
g70
NtRp4664
(dp4665
g73
(dp4666
g81
I5
ssg82
g4660
sg75
(lp4667
g3716
(S's\r\x00\x00\x00customize me!'
tRp4668
asbasbasbag68
(g84
g70
NtRp4669
(dp4670
g73
(dp4671
sg82
g3211
sg75
(lp4672
g68
(g89
g70
NtRp4673
(dp4674
g73
(dp4675
g93
g94
ssg82
g4669
sg75
(lp4676
S'title'
p4677
asbag68
(g89
g70
NtRp4678
(dp4679
g73
(dp4680
g100
g101
ssg82
g4669
sg75
(lp4681
S':'
asbag68
(g89
g70
NtRp4682
(dp4683
g73
(dp4684
sg82
g4669
sg75
(lp4685
g68
(g69
g70
NtRp4686
(dp4687
g73
(dp4688
g81
I5
ssg82
g4682
sg75
(lp4689
S'Formalsignup'
p4690
asbasbasbag68
(g84
g70
NtRp4691
(dp4692
g73
(dp4693
sg82
g3211
sg75
(lp4694
g68
(g89
g70
NtRp4695
(dp4696
g73
(dp4697
g93
g94
ssg82
g4691
sg75
(lp4698
g2168
asbag68
(g89
g70
NtRp4699
(dp4700
g73
(dp4701
g100
g101
ssg82
g4691
sg75
(lp4702
S':'
asbag68
(g89
g70
NtRp4703
(dp4704
g73
(dp4705
sg82
g4691
sg75
(lp4706
g68
(g69
g70
NtRp4707
(dp4708
g73
(dp4709
g81
I5
ssg82
g4703
sg75
(lp4710
g2181
asbasbasbag68
(g84
g70
NtRp4711
(dp4712
g73
(dp4713
sg82
g3211
sg75
(lp4714
g68
(g89
g70
NtRp4715
(dp4716
g73
(dp4717
g93
g94
ssg82
g4711
sg75
(lp4718
S'view'
p4719
asbag68
(g89
g70
NtRp4720
(dp4721
g73
(dp4722
g100
g101
ssg82
g4711
sg75
(lp4723
S':'
asbag68
(g89
g70
NtRp4724
(dp4725
g73
(dp4726
sg82
g4711
sg75
(lp4727
g68
(g69
g70
NtRp4728
(dp4729
g73
(dp4730
g81
I5
ssg82
g4724
sg75
(lp4731
S'default/index.html'
p4732
asbasbasbasbasbsS'locals'
p4733
(dp4734
g4
S"'/home/shaz/Documents/Development/web2py/applications/FormalSignUp/views/default/index.html'"
p4735
sg6
S'\'response.write(\\\'<!DOCTYPE html>\\\\n<html lang="en"...ite(\\\' -->\\\\n\\\\n  </body>\\\\n</html>\\\\n\\\', escape=False)\''
p4736
sssS'traceback'
p4737
S'Traceback (most recent call last):\n  File "/home/shaz/Documents/Development/web2py/gluon/restricted.py", line 203, in restricted\n    ccode = compile2(code,layer)\n  File "/home/shaz/Documents/Development/web2py/gluon/restricted.py", line 189, in compile2\n    return compile(code.rstrip().replace(\'\\r\\n\',\'\\n\')+\'\\n\', layer, \'exec\')\n  File "/home/shaz/Documents/Development/web2py/applications/FormalSignUp/views/default/index.html", line 36\n    <div class="row">\n    ^\nSyntaxError: invalid syntax\n'
p4738
s.