(dp1
S'output'
p2
S"<type 'exceptions.SyntaxError'> invalid syntax (index.html, line 38)"
p3
sS'layer'
p4
S'/home/shaz/Documents/Development/web2py/applications/FormalSignUp/views/default/index.html'
p5
sS'code'
p6
S'response.write(\'<!DOCTYPE html>\\n<html lang="en">\\n  <head>\\n    <meta charset="utf-8">\\n    <title>Rude Apps</title>\\n    <meta name="description" content="">\\n    <meta name="author" content="">\\n\\n    <!-- Le HTML5 shim, for IE6-8 support of HTML elements -->\\n    <!--[if lt IE 9]>\\n      <script src="http://html5shim.googlecode.com/svn/trunk/html5.js"></script>\\n    <![endif]-->\\n\\n    <!-- Le styles -->\\n\\n      \', escape=False)\nresponse.files.append(URL(\'static\',\'css/bootstrap.css\'))\nresponse.files.append(URL(\'static\',\'css/custom.css\'))\nresponse.files.append(URL(\'static\',\'css/superfish.css\'))\nresponse.files.append(URL(\'static\',\'js/superfish.js\'))\nresponse.files.append(URL(\'static\',\'js/superfish.js\'))\nresponse.files.append(URL(\'static\',\'js/bootstrap-transition.js\'))\nresponse.files.append(URL(\'static\',\'js/bootstrap-alert.js\'))\nresponse.files.append(URL(\'static\',\'js/bootstrap-modal.js\'))\nresponse.files.append(URL(\'static\',\'js/bootstrap-dropdown.js\'))\nresponse.files.append(URL(\'static\',\'js/bootstrap-tab.js.js\'))\nresponse.files.append(URL(\'static\',\'js/bootstrap-popover.js\'))\nresponse.files.append(URL(\'static\',\'js/bootstrap-button.js\'))\nresponse.files.append(URL(\'static\',\'js/bootstrap-collapse.js\'))\nresponse.files.append(URL(\'static\',\'js/bootstrap-carousel.js\'))\nresponse.files.append(URL(\'static\',\'js/bootstrap-typeahead.js\'))\nresponse.write(\'\\n\\n  \', escape=False)\nresponse.write(\'<script type="text/javascript"><!--\\n    // These variables are used by the web2py_ajax_init function in web2py_ajax.js (which is loaded below).\\n    var w2p_ajax_confirm_message = "\', escape=False)\nresponse.write(T(\'Are you sure you want to delete this object?\'))\nresponse.write(\'";\\n    var w2p_ajax_date_format = "\', escape=False)\nresponse.write(T(\'%Y-%m-%d\'))\nresponse.write(\'";\\n    var w2p_ajax_datetime_format = "\', escape=False)\nresponse.write(T(\'%Y-%m-%d %H:%M:%S\'))\nresponse.write(\'";\\n    //--></script>\\n\', escape=False)\nresponse.files.insert(0,URL(\'static\',\'js/jquery.js\'))\nresponse.files.insert(1,URL(\'static\',\'css/calendar.css\'))\nresponse.files.insert(2,URL(\'static\',\'js/calendar.js\'))\nresponse.files.insert(3,URL(\'static\',\'js/web2py.js\'))\nresponse.include_meta()\nresponse.include_files()\nresponse.write(\'\\n\', escape=False)\nresponse.write(\'\\n\\n    <!-- <link href="css/bootstrap.css" rel="stylesheet">\\n    <link href="css/custom.css" rel="stylesheet">\\n    <link href="css/bootstrap-responsive.css" rel="stylesheet"> -->\\n    <style>\\n    body{\\n      padding-top:62px;\\n    }\\n\\n    div.row small{\\n      padding-left: 22px;\\n      color:#eee;\\n      text-decoration:bold;\\n    }\\n    </style>\\n\\n  </head>\\n\\n  <body>\\n\\n    <div class="container">\\n\\n\\n      <div class="row">\\n\\n        <div class="span6 offset3">\\n\\n          <div class="row">\\n                <small></small><a class="btn btn-small pull-right" href="/logout">\\n            <i class="icon-off"></i>&nbsp;Logout</a>\\n          </div>\\n          <div class="well shadow nav-pad">\\n                \', escape=False)\nresponse.write(\'\\n<h2>Welcome</h2>\\n\\n<script type="text/javascript" src="jquery.js"></script>          \\n <script type="text/javascript">\\n $(document).ready(function() {\\n   $("button").click(function() {\\n     alert("Hello world!");\\n     $("#commitModal").load()\\n   });\\n });                                             \\n </script>                               \\n\\n<hr />\\n\', escape=False)\nfor formal in formals:\n    response.write(\'\\n\', escape=False)\n    link=A(formal.formal_date.strftime(\'%A %d %B\'), _href=URL(\'show\', args=formal.id))\n    response.write(\'\\n\', escape=False)\n    URL(\'show\', args=formal.id))\n    response.write(\'\\n\', escape=False)\n    formal_str = str(formal.formal_date.strftime(\'%A %d %B\'))\n    response.write(\'\\n\', escape=False)\n    signup_str = str(formal.formal_signup.strftime(\'%A, %d %B %H:%M:%S\'))\n    response.write(\'\\n\', escape=False)\n    response.write(\'\'\'\\n<div class="row">\\n  <div class="span4">\\n    <h3>%s</h3>\\n  </div>\\n  <div class="span1">\\n      <button class="btn btn-success" data-toggle="modal" href="#commitModal"}>Available!</button>\\n    <!--<else>\\n      <button class="btn btn-danger" data-toggle="modal" href="#sorryModal">It\'s&nbsp;Full!</button>\\n    pass-->\\n  </div>\\n</div>\\n<p><span class="label label-warning">Opens at</span>&nbsp;%s</p>\\n<br />\'\'\'%(link,signup_str),escape=False)\n    response.write(\'\\n\', escape=False)\n    pass\nresponse.write(\'\\n\\n<!-- MODALS -->\\n  <!-- #commitModal -->\\n     <div class="modal hide fade" id="commitModal"></div>\\n      <!-- <div class="modal-header">\\n        <a class="close" data-dismiss="modal">\\xc3\\x97</a>\\n        <h3>FORMAL DATE</h3>\\n      </div>\\n      <div class="modal-body">\\n        <h4>FORMAL_PLACES_NUMBER places left!</h4>\\n        <br />\\n        <strong>are you ready for a commitment?</strong>\\n        <br />\\n        <p>Sign up opens at <strong>SIGNUP DATETIME</strong>.</p>\\n      </div>\\n      <div class="modal-footer">\\n        <a href="#" class="btn btn-success">Commit</a>\\n        <a href="#" class="btn btn-warning" data-dismiss="modal">Cancel</a>\\n      </div>\\n    </div> -->\\n  <!-- END #commitModal -->\\n  \\n  <!-- #sorryModal -->\\n    <!-- <div class="modal hide fade" id="sorryModal">\\n      <div class="modal-header">\\n        <a class="close" data-dismiss="modal">\\xc3\\x97</a>\\n        <h3>sorry...</h3>\\n      </div>\\n      <div class="modal-body">\\n        <strong><em>you\\\'re too late!</em></strong>\\n      </div>\\n      <div class="modal-footer">\\n        <a href="#" class="btn" data-dismiss="modal">Close</a>\\n      </div>\\n    </div> -->\\n  <!-- END #sorryModal -->\\n\\n<br />\\n</div>\', escape=False)\nresponse.write(\'\\n          </div>\\n        </div>\\n\\n\\n        <footer>\\n        <p>Designed and developed by <a href="http://twitter.com/yewchoontay">@yewchoontay</a> and <a href="http://twitter.com/khan_shezad">@khan_shezad</a>.</p>\\n      </footer>\\n\\n    </div> <!-- /container -->\\n\\n    <!-- Le javascript\\n    ================================================== -->\\n    <!-- Placed at the end of the document so the pages load faster -->\\n    // <script src="https://ajax.googleapis.com/ajax/libs/jquery/1.7.1/jquery.min.js"></script>\\n    <!-- // <script src="js/bootstrap-transition.js"></script>\\n    // <script src="js/bootstrap-alert.js"></script>\\n    // <script src="js/bootstrap-modal.js"></script>\\n    // <script src="js/bootstrap-dropdown.js"></script>\\n    // <script src="js/bootstrap-scrollspy.js"></script>\\n    // <script src="js/bootstrap-tab.js"></script>\\n    // <script src="js/bootstrap-tooltip.js"></script>\\n    // <script src="js/bootstrap-popover.js"></script>\\n    // <script src="js/bootstrap-button.js"></script>\\n    // <script src="js/bootstrap-collapse.js"></script>\\n    // <script src="js/bootstrap-carousel.js"></script>\\n    // <script src="js/bootstrap-typeahead.js"></script> -->\\n\\n    <!-- \', escape=False)\nresponse.files.append(URL(\'static\',\'js/superfish.js\'))\nresponse.files.append(URL(\'static\',\'js/bootstrap-transition.js\'))\nresponse.files.append(URL(\'static\',\'js/bootstrap-alert.js\'))\nresponse.files.append(URL(\'static\',\'js/bootstrap-modal.js\'))\nresponse.files.append(URL(\'static\',\'js/bootstrap-dropdown.js\'))\nresponse.files.append(URL(\'static\',\'js/bootstrap-tab.js.js\'))\nresponse.files.append(URL(\'static\',\'js/bootstrap-popover.js\'))\nresponse.files.append(URL(\'static\',\'js/bootstrap-button.js\'))\nresponse.files.append(URL(\'static\',\'js/bootstrap-collapse.js\'))\nresponse.files.append(URL(\'static\',\'js/bootstrap-carousel.js\'))\nresponse.files.append(URL(\'static\',\'js/bootstrap-typeahead.js\'))\nresponse.write(\' -->\\n\\n  </body>\\n</html>\\n\', escape=False)'
p7
sS'snapshot'
p8
(dp9
S'exception'
p10
(dp11
S'__getslice__'
p12
S"<method-wrapper '__getslice__' of exceptions.SyntaxError object>"
p13
sS'text'
p14
S'"    URL(\'show\', args=formal.id))\\n"'
p15
sS'__str__'
p16
S"<method-wrapper '__str__' of exceptions.SyntaxError object>"
p17
sS'__reduce__'
p18
S'<built-in method __reduce__ of exceptions.SyntaxError object>'
p19
sS'__dict__'
p20
S'{}'
p21
sS'__sizeof__'
p22
S'<built-in method __sizeof__ of exceptions.SyntaxError object>'
p23
sS'__init__'
p24
S"<method-wrapper '__init__' of exceptions.SyntaxError object>"
p25
sS'__setattr__'
p26
S"<method-wrapper '__setattr__' of exceptions.SyntaxError object>"
p27
sS'__reduce_ex__'
p28
S'<built-in method __reduce_ex__ of exceptions.SyntaxError object>'
p29
sS'__new__'
p30
S'<built-in method __new__ of type object>'
p31
sS'__format__'
p32
S'<built-in method __format__ of exceptions.SyntaxError object>'
p33
sS'__class__'
p34
S"<type 'exceptions.SyntaxError'>"
p35
sS'filename'
p36
S"'/home/shaz/Documents/Development/web2py/applications/FormalSignUp/views/default/index.html'"
p37
sS'lineno'
p38
S'38'
p39
sS'msg'
p40
S"'invalid syntax'"
p41
sS'__doc__'
p42
S"'Invalid syntax.'"
p43
sS'__getitem__'
p44
S"<method-wrapper '__getitem__' of exceptions.SyntaxError object>"
p45
sS'__setstate__'
p46
S'<built-in method __setstate__ of exceptions.SyntaxError object>'
p47
sS'__getattribute__'
p48
S"<method-wrapper '__getattribute__' of exceptions.SyntaxError object>"
p49
sS'print_file_and_line'
p50
S'None'
p51
sS'args'
p52
S'(\'invalid syntax\', (\'/home/shaz/Documents/Development/web2py/applications/FormalSignUp/views/default/index.html\', 38, 32, "    URL(\'show\', args=formal.id))\\n"))'
p53
sS'__subclasshook__'
p54
S'<built-in method __subclasshook__ of type object>'
p55
sS'offset'
p56
S'32'
p57
sS'__unicode__'
p58
S'<built-in method __unicode__ of exceptions.SyntaxError object>'
p59
sS'__delattr__'
p60
S"<method-wrapper '__delattr__' of exceptions.SyntaxError object>"
p61
sS'__repr__'
p62
S"<method-wrapper '__repr__' of exceptions.SyntaxError object>"
p63
sS'__hash__'
p64
S"<method-wrapper '__hash__' of exceptions.SyntaxError object>"
p65
ssS'evalue'
p66
S'invalid syntax (index.html, line 38)'
p67
sS'request'
p68
ccopy_reg
_reconstructor
p69
(cgluon.html
BEAUTIFY
p70
c__builtin__
object
p71
NtRp72
(dp73
S'attributes'
p74
(dp75
sS'components'
p76
(lp77
g69
(cgluon.html
TABLE
p78
g71
NtRp79
(dp80
g74
(dp81
S'level'
p82
I5
ssS'parent'
p83
Nsg76
(lp84
g69
(cgluon.html
TR
p85
g71
NtRp86
(dp87
g74
(dp88
sg83
g79
sg76
(lp89
g69
(cgluon.html
TD
p90
g71
NtRp91
(dp92
g74
(dp93
S'_style'
p94
S'font-weight:bold;vertical-align:top'
p95
ssg83
g86
sg76
(lp96
S'ajax'
p97
asbag69
(g90
g71
NtRp98
(dp99
g74
(dp100
S'_valign'
p101
S'top'
p102
ssg83
g86
sg76
(lp103
S':'
asbag69
(g90
g71
NtRp104
(dp105
g74
(dp106
sg83
g86
sg76
(lp107
g69
(g70
g71
NtRp108
(dp109
g74
(dp110
g82
I5
ssg83
g104
sg76
(lp111
S'False'
p112
asbasbasbag69
(g85
g71
NtRp113
(dp114
g74
(dp115
sg83
g79
sg76
(lp116
g69
(g90
g71
NtRp117
(dp118
g74
(dp119
g94
g95
ssg83
g113
sg76
(lp120
S'application'
p121
asbag69
(g90
g71
NtRp122
(dp123
g74
(dp124
g101
g102
ssg83
g113
sg76
(lp125
S':'
asbag69
(g90
g71
NtRp126
(dp127
g74
(dp128
sg83
g113
sg76
(lp129
g69
(g70
g71
NtRp130
(dp131
g74
(dp132
g82
I5
ssg83
g126
sg76
(lp133
S'FormalSignUp'
p134
asbasbasbag69
(g85
g71
NtRp135
(dp136
g74
(dp137
sg83
g79
sg76
(lp138
g69
(g90
g71
NtRp139
(dp140
g74
(dp141
g94
g95
ssg83
g135
sg76
(lp142
g52
asbag69
(g90
g71
NtRp143
(dp144
g74
(dp145
g101
g102
ssg83
g135
sg76
(lp146
S':'
asbag69
(g90
g71
NtRp147
(dp148
g74
(dp149
sg83
g135
sg76
(lp150
g69
(g70
g71
NtRp151
(dp152
g74
(dp153
g82
I5
ssg83
g147
sg76
(lp154
g69
(g78
g71
NtRp155
(dp156
g74
(dp157
g82
I4
ssg83
Nsg76
(lp158
sbasbasbasbag69
(g85
g71
NtRp159
(dp160
g74
(dp161
sg83
g79
sg76
(lp162
g69
(g90
g71
NtRp163
(dp164
g74
(dp165
g94
g95
ssg83
g159
sg76
(lp166
S'body'
p167
asbag69
(g90
g71
NtRp168
(dp169
g74
(dp170
g101
g102
ssg83
g159
sg76
(lp171
S':'
asbag69
(g90
g71
NtRp172
(dp173
g74
(dp174
sg83
g159
sg76
(lp175
g69
(g70
g71
NtRp176
(dp177
g74
(dp178
g82
I5
ssg83
g172
sg76
(lp179
S'<cStringIO.StringO object at 0x9285f60>'
p180
asbasbasbag69
(g85
g71
NtRp181
(dp182
g74
(dp183
sg83
g79
sg76
(lp184
g69
(g90
g71
NtRp185
(dp186
g74
(dp187
g94
g95
ssg83
g181
sg76
(lp188
S'client'
p189
asbag69
(g90
g71
NtRp190
(dp191
g74
(dp192
g101
g102
ssg83
g181
sg76
(lp193
S':'
asbag69
(g90
g71
NtRp194
(dp195
g74
(dp196
sg83
g181
sg76
(lp197
g69
(g70
g71
NtRp198
(dp199
g74
(dp200
g82
I5
ssg83
g194
sg76
(lp201
S'127.0.0.1'
p202
asbasbasbag69
(g85
g71
NtRp203
(dp204
g74
(dp205
sg83
g79
sg76
(lp206
g69
(g90
g71
NtRp207
(dp208
g74
(dp209
g94
g95
ssg83
g203
sg76
(lp210
S'controller'
p211
asbag69
(g90
g71
NtRp212
(dp213
g74
(dp214
g101
g102
ssg83
g203
sg76
(lp215
S':'
asbag69
(g90
g71
NtRp216
(dp217
g74
(dp218
sg83
g203
sg76
(lp219
g69
(g70
g71
NtRp220
(dp221
g74
(dp222
g82
I5
ssg83
g216
sg76
(lp223
S'default'
p224
asbasbasbag69
(g85
g71
NtRp225
(dp226
g74
(dp227
sg83
g79
sg76
(lp228
g69
(g90
g71
NtRp229
(dp230
g74
(dp231
g94
g95
ssg83
g225
sg76
(lp232
S'cookies'
p233
asbag69
(g90
g71
NtRp234
(dp235
g74
(dp236
g101
g102
ssg83
g225
sg76
(lp237
S':'
asbag69
(g90
g71
NtRp238
(dp239
g74
(dp240
sg83
g225
sg76
(lp241
g69
(g70
g71
NtRp242
(dp243
g74
(dp244
g82
I5
ssg83
g238
sg76
(lp245
g69
(g78
g71
NtRp246
(dp247
g74
(dp248
g82
I4
ssg83
Nsg76
(lp249
g69
(g85
g71
NtRp250
(dp251
g74
(dp252
sg83
g246
sg76
(lp253
g69
(g90
g71
NtRp254
(dp255
g74
(dp256
g94
g95
ssg83
g250
sg76
(lp257
S'session_id_admin'
p258
asbag69
(g90
g71
NtRp259
(dp260
g74
(dp261
g101
g102
ssg83
g250
sg76
(lp262
S':'
asbag69
(g90
g71
NtRp263
(dp264
g74
(dp265
sg83
g250
sg76
(lp266
g69
(g70
g71
NtRp267
(dp268
g74
(dp269
g82
I4
ssg83
g263
sg76
(lp270
g69
(g78
g71
NtRp271
(dp272
g74
(dp273
g82
I3
ssg83
Nsg76
(lp274
g69
(g85
g71
NtRp275
(dp276
g74
(dp277
sg83
g271
sg76
(lp278
g69
(g90
g71
NtRp279
(dp280
g74
(dp281
g94
g95
ssg83
g275
sg76
(lp282
S'comment'
p283
asbag69
(g90
g71
NtRp284
(dp285
g74
(dp286
g101
g102
ssg83
g275
sg76
(lp287
S':'
asbag69
(g90
g71
NtRp288
(dp289
g74
(dp290
sg83
g275
sg76
(lp291
g69
(g70
g71
NtRp292
(dp293
g74
(dp294
g82
I3
ssg83
g288
sg76
(lp295
S''
asbasbasbag69
(g85
g71
NtRp296
(dp297
g74
(dp298
sg83
g271
sg76
(lp299
g69
(g90
g71
NtRp300
(dp301
g74
(dp302
g94
g95
ssg83
g296
sg76
(lp303
S'domain'
p304
asbag69
(g90
g71
NtRp305
(dp306
g74
(dp307
g101
g102
ssg83
g296
sg76
(lp308
S':'
asbag69
(g90
g71
NtRp309
(dp310
g74
(dp311
sg83
g296
sg76
(lp312
g69
(g70
g71
NtRp313
(dp314
g74
(dp315
g82
I3
ssg83
g309
sg76
(lp316
S''
asbasbasbag69
(g85
g71
NtRp317
(dp318
g74
(dp319
sg83
g271
sg76
(lp320
g69
(g90
g71
NtRp321
(dp322
g74
(dp323
g94
g95
ssg83
g317
sg76
(lp324
S'expires'
p325
asbag69
(g90
g71
NtRp326
(dp327
g74
(dp328
g101
g102
ssg83
g317
sg76
(lp329
S':'
asbag69
(g90
g71
NtRp330
(dp331
g74
(dp332
sg83
g317
sg76
(lp333
g69
(g70
g71
NtRp334
(dp335
g74
(dp336
g82
I3
ssg83
g330
sg76
(lp337
S''
asbasbasbag69
(g85
g71
NtRp338
(dp339
g74
(dp340
sg83
g271
sg76
(lp341
g69
(g90
g71
NtRp342
(dp343
g74
(dp344
g94
g95
ssg83
g338
sg76
(lp345
S'httponly'
p346
asbag69
(g90
g71
NtRp347
(dp348
g74
(dp349
g101
g102
ssg83
g338
sg76
(lp350
S':'
asbag69
(g90
g71
NtRp351
(dp352
g74
(dp353
sg83
g338
sg76
(lp354
g69
(g70
g71
NtRp355
(dp356
g74
(dp357
g82
I3
ssg83
g351
sg76
(lp358
S''
asbasbasbag69
(g85
g71
NtRp359
(dp360
g74
(dp361
sg83
g271
sg76
(lp362
g69
(g90
g71
NtRp363
(dp364
g74
(dp365
g94
g95
ssg83
g359
sg76
(lp366
S'max-age'
p367
asbag69
(g90
g71
NtRp368
(dp369
g74
(dp370
g101
g102
ssg83
g359
sg76
(lp371
S':'
asbag69
(g90
g71
NtRp372
(dp373
g74
(dp374
sg83
g359
sg76
(lp375
g69
(g70
g71
NtRp376
(dp377
g74
(dp378
g82
I3
ssg83
g372
sg76
(lp379
S''
asbasbasbag69
(g85
g71
NtRp380
(dp381
g74
(dp382
sg83
g271
sg76
(lp383
g69
(g90
g71
NtRp384
(dp385
g74
(dp386
g94
g95
ssg83
g380
sg76
(lp387
S'path'
p388
asbag69
(g90
g71
NtRp389
(dp390
g74
(dp391
g101
g102
ssg83
g380
sg76
(lp392
S':'
asbag69
(g90
g71
NtRp393
(dp394
g74
(dp395
sg83
g380
sg76
(lp396
g69
(g70
g71
NtRp397
(dp398
g74
(dp399
g82
I3
ssg83
g393
sg76
(lp400
S''
asbasbasbag69
(g85
g71
NtRp401
(dp402
g74
(dp403
sg83
g271
sg76
(lp404
g69
(g90
g71
NtRp405
(dp406
g74
(dp407
g94
g95
ssg83
g401
sg76
(lp408
S'secure'
p409
asbag69
(g90
g71
NtRp410
(dp411
g74
(dp412
g101
g102
ssg83
g401
sg76
(lp413
S':'
asbag69
(g90
g71
NtRp414
(dp415
g74
(dp416
sg83
g401
sg76
(lp417
g69
(g70
g71
NtRp418
(dp419
g74
(dp420
g82
I3
ssg83
g414
sg76
(lp421
S''
asbasbasbag69
(g85
g71
NtRp422
(dp423
g74
(dp424
sg83
g271
sg76
(lp425
g69
(g90
g71
NtRp426
(dp427
g74
(dp428
g94
g95
ssg83
g422
sg76
(lp429
S'version'
p430
asbag69
(g90
g71
NtRp431
(dp432
g74
(dp433
g101
g102
ssg83
g422
sg76
(lp434
S':'
asbag69
(g90
g71
NtRp435
(dp436
g74
(dp437
sg83
g422
sg76
(lp438
g69
(g70
g71
NtRp439
(dp440
g74
(dp441
g82
I3
ssg83
g435
sg76
(lp442
S''
asbasbasbasbasbasbasbag69
(g85
g71
NtRp443
(dp444
g74
(dp445
sg83
g246
sg76
(lp446
g69
(g90
g71
NtRp447
(dp448
g74
(dp449
g94
g95
ssg83
g443
sg76
(lp450
S'session_id_formalsignup'
p451
asbag69
(g90
g71
NtRp452
(dp453
g74
(dp454
g101
g102
ssg83
g443
sg76
(lp455
S':'
asbag69
(g90
g71
NtRp456
(dp457
g74
(dp458
sg83
g443
sg76
(lp459
g69
(g70
g71
NtRp460
(dp461
g74
(dp462
g82
I4
ssg83
g456
sg76
(lp463
g69
(g78
g71
NtRp464
(dp465
g74
(dp466
g82
I3
ssg83
Nsg76
(lp467
g69
(g85
g71
NtRp468
(dp469
g74
(dp470
sg83
g464
sg76
(lp471
g69
(g90
g71
NtRp472
(dp473
g74
(dp474
g94
g95
ssg83
g468
sg76
(lp475
g283
asbag69
(g90
g71
NtRp476
(dp477
g74
(dp478
g101
g102
ssg83
g468
sg76
(lp479
S':'
asbag69
(g90
g71
NtRp480
(dp481
g74
(dp482
sg83
g468
sg76
(lp483
g69
(g70
g71
NtRp484
(dp485
g74
(dp486
g82
I3
ssg83
g480
sg76
(lp487
S''
asbasbasbag69
(g85
g71
NtRp488
(dp489
g74
(dp490
sg83
g464
sg76
(lp491
g69
(g90
g71
NtRp492
(dp493
g74
(dp494
g94
g95
ssg83
g488
sg76
(lp495
g304
asbag69
(g90
g71
NtRp496
(dp497
g74
(dp498
g101
g102
ssg83
g488
sg76
(lp499
S':'
asbag69
(g90
g71
NtRp500
(dp501
g74
(dp502
sg83
g488
sg76
(lp503
g69
(g70
g71
NtRp504
(dp505
g74
(dp506
g82
I3
ssg83
g500
sg76
(lp507
S''
asbasbasbag69
(g85
g71
NtRp508
(dp509
g74
(dp510
sg83
g464
sg76
(lp511
g69
(g90
g71
NtRp512
(dp513
g74
(dp514
g94
g95
ssg83
g508
sg76
(lp515
g325
asbag69
(g90
g71
NtRp516
(dp517
g74
(dp518
g101
g102
ssg83
g508
sg76
(lp519
S':'
asbag69
(g90
g71
NtRp520
(dp521
g74
(dp522
sg83
g508
sg76
(lp523
g69
(g70
g71
NtRp524
(dp525
g74
(dp526
g82
I3
ssg83
g520
sg76
(lp527
S''
asbasbasbag69
(g85
g71
NtRp528
(dp529
g74
(dp530
sg83
g464
sg76
(lp531
g69
(g90
g71
NtRp532
(dp533
g74
(dp534
g94
g95
ssg83
g528
sg76
(lp535
g346
asbag69
(g90
g71
NtRp536
(dp537
g74
(dp538
g101
g102
ssg83
g528
sg76
(lp539
S':'
asbag69
(g90
g71
NtRp540
(dp541
g74
(dp542
sg83
g528
sg76
(lp543
g69
(g70
g71
NtRp544
(dp545
g74
(dp546
g82
I3
ssg83
g540
sg76
(lp547
S''
asbasbasbag69
(g85
g71
NtRp548
(dp549
g74
(dp550
sg83
g464
sg76
(lp551
g69
(g90
g71
NtRp552
(dp553
g74
(dp554
g94
g95
ssg83
g548
sg76
(lp555
g367
asbag69
(g90
g71
NtRp556
(dp557
g74
(dp558
g101
g102
ssg83
g548
sg76
(lp559
S':'
asbag69
(g90
g71
NtRp560
(dp561
g74
(dp562
sg83
g548
sg76
(lp563
g69
(g70
g71
NtRp564
(dp565
g74
(dp566
g82
I3
ssg83
g560
sg76
(lp567
S''
asbasbasbag69
(g85
g71
NtRp568
(dp569
g74
(dp570
sg83
g464
sg76
(lp571
g69
(g90
g71
NtRp572
(dp573
g74
(dp574
g94
g95
ssg83
g568
sg76
(lp575
g388
asbag69
(g90
g71
NtRp576
(dp577
g74
(dp578
g101
g102
ssg83
g568
sg76
(lp579
S':'
asbag69
(g90
g71
NtRp580
(dp581
g74
(dp582
sg83
g568
sg76
(lp583
g69
(g70
g71
NtRp584
(dp585
g74
(dp586
g82
I3
ssg83
g580
sg76
(lp587
S''
asbasbasbag69
(g85
g71
NtRp588
(dp589
g74
(dp590
sg83
g464
sg76
(lp591
g69
(g90
g71
NtRp592
(dp593
g74
(dp594
g94
g95
ssg83
g588
sg76
(lp595
g409
asbag69
(g90
g71
NtRp596
(dp597
g74
(dp598
g101
g102
ssg83
g588
sg76
(lp599
S':'
asbag69
(g90
g71
NtRp600
(dp601
g74
(dp602
sg83
g588
sg76
(lp603
g69
(g70
g71
NtRp604
(dp605
g74
(dp606
g82
I3
ssg83
g600
sg76
(lp607
S''
asbasbasbag69
(g85
g71
NtRp608
(dp609
g74
(dp610
sg83
g464
sg76
(lp611
g69
(g90
g71
NtRp612
(dp613
g74
(dp614
g94
g95
ssg83
g608
sg76
(lp615
g430
asbag69
(g90
g71
NtRp616
(dp617
g74
(dp618
g101
g102
ssg83
g608
sg76
(lp619
S':'
asbag69
(g90
g71
NtRp620
(dp621
g74
(dp622
sg83
g608
sg76
(lp623
g69
(g70
g71
NtRp624
(dp625
g74
(dp626
g82
I3
ssg83
g620
sg76
(lp627
S''
asbasbasbasbasbasbasbasbasbasbasbag69
(g85
g71
NtRp628
(dp629
g74
(dp630
sg83
g79
sg76
(lp631
g69
(g90
g71
NtRp632
(dp633
g74
(dp634
g94
g95
ssg83
g628
sg76
(lp635
S'env'
p636
asbag69
(g90
g71
NtRp637
(dp638
g74
(dp639
g101
g102
ssg83
g628
sg76
(lp640
S':'
asbag69
(g90
g71
NtRp641
(dp642
g74
(dp643
sg83
g628
sg76
(lp644
g69
(g70
g71
NtRp645
(dp646
g74
(dp647
g82
I5
ssg83
g641
sg76
(lp648
g69
(g78
g71
NtRp649
(dp650
g74
(dp651
g82
I4
ssg83
Nsg76
(lp652
g69
(g85
g71
NtRp653
(dp654
g74
(dp655
sg83
g649
sg76
(lp656
g69
(g90
g71
NtRp657
(dp658
g74
(dp659
g94
g95
ssg83
g653
sg76
(lp660
S'app_folders'
p661
asbag69
(g90
g71
NtRp662
(dp663
g74
(dp664
g101
g102
ssg83
g653
sg76
(lp665
S':'
asbag69
(g90
g71
NtRp666
(dp667
g74
(dp668
sg83
g653
sg76
(lp669
g69
(g70
g71
NtRp670
(dp671
g74
(dp672
g82
I4
ssg83
g666
sg76
(lp673
S"set(['/home/shaz/Documents/Development/web2py/applications/FormalSignUp/', '/home/shaz/Documents/Development/web2py/applications/admin/'])"
p674
asbasbasbag69
(g85
g71
NtRp675
(dp676
g74
(dp677
sg83
g649
sg76
(lp678
g69
(g90
g71
NtRp679
(dp680
g74
(dp681
g94
g95
ssg83
g675
sg76
(lp682
S'applications_parent'
p683
asbag69
(g90
g71
NtRp684
(dp685
g74
(dp686
g101
g102
ssg83
g675
sg76
(lp687
S':'
asbag69
(g90
g71
NtRp688
(dp689
g74
(dp690
sg83
g675
sg76
(lp691
g69
(g70
g71
NtRp692
(dp693
g74
(dp694
g82
I4
ssg83
g688
sg76
(lp695
S'/home/shaz/Documents/Development/web2py'
p696
asbasbasbag69
(g85
g71
NtRp697
(dp698
g74
(dp699
sg83
g649
sg76
(lp700
g69
(g90
g71
NtRp701
(dp702
g74
(dp703
g94
g95
ssg83
g697
sg76
(lp704
S'cmd_args'
p705
asbag69
(g90
g71
NtRp706
(dp707
g74
(dp708
g101
g102
ssg83
g697
sg76
(lp709
S':'
asbag69
(g90
g71
NtRp710
(dp711
g74
(dp712
sg83
g697
sg76
(lp713
g69
(g70
g71
NtRp714
(dp715
g74
(dp716
g82
I4
ssg83
g710
sg76
(lp717
g69
(g78
g71
NtRp718
(dp719
g74
(dp720
g82
I3
ssg83
Nsg76
(lp721
sbasbasbasbag69
(g85
g71
NtRp722
(dp723
g74
(dp724
sg83
g649
sg76
(lp725
g69
(g90
g71
NtRp726
(dp727
g74
(dp728
g94
g95
ssg83
g722
sg76
(lp729
S'cmd_options'
p730
asbag69
(g90
g71
NtRp731
(dp732
g74
(dp733
g101
g102
ssg83
g722
sg76
(lp734
S':'
asbag69
(g90
g71
NtRp735
(dp736
g74
(dp737
sg83
g722
sg76
(lp738
g69
(g70
g71
NtRp739
(dp740
g74
(dp741
g82
I4
ssg83
g735
sg76
(lp742
S"<Values at 0x8c579ac: {'verbose': False, 'ip': '127.0.0.1', 'shutdown_timeout': 5, 'taskbar': False, 'nocron': False, 'pid_filename': 'httpserver.pid', 'maxthreads': None, 'softcron': False, 'server_name': 'ubuntu', 'bpython': False, 'nogui': False, 'port': 8000, 'extcron': False, 'debuglevel': 30, 'test': None, 'folder': '/home/shaz/Documents/Development/web2py', 'config': '', 'import_models': False, 'winservice': '', 'shell': None, 'run': '', 'log_filename': 'httpserver.log', 'args': [''], 'socket_timeout': 1, 'ssl_ca_certificate': None, 'scheduler': None, 'profiler_filename': None, 'ssl_private_key': '', 'password': 'shaz', 'request_queue_size': 5, 'ssl_certificate': '', 'cronjob': False, 'numthreads': None, 'quiet': False, 'interfaces': None, 'minthreads': None, 'timeout': 10, 'plain': False, 'nobanner': False}>"
p743
asbasbasbag69
(g85
g71
NtRp744
(dp745
g74
(dp746
sg83
g649
sg76
(lp747
g69
(g90
g71
NtRp748
(dp749
g74
(dp750
g94
g95
ssg83
g744
sg76
(lp751
S'db_sessions'
p752
asbag69
(g90
g71
NtRp753
(dp754
g74
(dp755
g101
g102
ssg83
g744
sg76
(lp756
S':'
asbag69
(g90
g71
NtRp757
(dp758
g74
(dp759
sg83
g744
sg76
(lp760
g69
(g70
g71
NtRp761
(dp762
g74
(dp763
g82
I4
ssg83
g757
sg76
(lp764
S'set([])'
p765
asbasbasbag69
(g85
g71
NtRp766
(dp767
g74
(dp768
sg83
g649
sg76
(lp769
g69
(g90
g71
NtRp770
(dp771
g74
(dp772
g94
g95
ssg83
g766
sg76
(lp773
S'debugging'
p774
asbag69
(g90
g71
NtRp775
(dp776
g74
(dp777
g101
g102
ssg83
g766
sg76
(lp778
S':'
asbag69
(g90
g71
NtRp779
(dp780
g74
(dp781
sg83
g766
sg76
(lp782
g69
(g70
g71
NtRp783
(dp784
g74
(dp785
g82
I4
ssg83
g779
sg76
(lp786
g112
asbasbasbag69
(g85
g71
NtRp787
(dp788
g74
(dp789
sg83
g649
sg76
(lp790
g69
(g90
g71
NtRp791
(dp792
g74
(dp793
g94
g95
ssg83
g787
sg76
(lp794
S'gluon_parent'
p795
asbag69
(g90
g71
NtRp796
(dp797
g74
(dp798
g101
g102
ssg83
g787
sg76
(lp799
S':'
asbag69
(g90
g71
NtRp800
(dp801
g74
(dp802
sg83
g787
sg76
(lp803
g69
(g70
g71
NtRp804
(dp805
g74
(dp806
g82
I4
ssg83
g800
sg76
(lp807
S'/home/shaz/Documents/Development/web2py'
p808
asbasbasbag69
(g85
g71
NtRp809
(dp810
g74
(dp811
sg83
g649
sg76
(lp812
g69
(g90
g71
NtRp813
(dp814
g74
(dp815
g94
g95
ssg83
g809
sg76
(lp816
S'http_accept'
p817
asbag69
(g90
g71
NtRp818
(dp819
g74
(dp820
g101
g102
ssg83
g809
sg76
(lp821
S':'
asbag69
(g90
g71
NtRp822
(dp823
g74
(dp824
sg83
g809
sg76
(lp825
g69
(g70
g71
NtRp826
(dp827
g74
(dp828
g82
I4
ssg83
g822
sg76
(lp829
S'text/html,application/xhtml+xml,application/xml;q=0.9,*/*;q=0.8'
p830
asbasbasbag69
(g85
g71
NtRp831
(dp832
g74
(dp833
sg83
g649
sg76
(lp834
g69
(g90
g71
NtRp835
(dp836
g74
(dp837
g94
g95
ssg83
g831
sg76
(lp838
S'http_accept_charset'
p839
asbag69
(g90
g71
NtRp840
(dp841
g74
(dp842
g101
g102
ssg83
g831
sg76
(lp843
S':'
asbag69
(g90
g71
NtRp844
(dp845
g74
(dp846
sg83
g831
sg76
(lp847
g69
(g70
g71
NtRp848
(dp849
g74
(dp850
g82
I4
ssg83
g844
sg76
(lp851
S'ISO-8859-1,utf-8;q=0.7,*;q=0.3'
p852
asbasbasbag69
(g85
g71
NtRp853
(dp854
g74
(dp855
sg83
g649
sg76
(lp856
g69
(g90
g71
NtRp857
(dp858
g74
(dp859
g94
g95
ssg83
g853
sg76
(lp860
S'http_accept_encoding'
p861
asbag69
(g90
g71
NtRp862
(dp863
g74
(dp864
g101
g102
ssg83
g853
sg76
(lp865
S':'
asbag69
(g90
g71
NtRp866
(dp867
g74
(dp868
sg83
g853
sg76
(lp869
g69
(g70
g71
NtRp870
(dp871
g74
(dp872
g82
I4
ssg83
g866
sg76
(lp873
S'gzip,deflate,sdch'
p874
asbasbasbag69
(g85
g71
NtRp875
(dp876
g74
(dp877
sg83
g649
sg76
(lp878
g69
(g90
g71
NtRp879
(dp880
g74
(dp881
g94
g95
ssg83
g875
sg76
(lp882
S'http_accept_language'
p883
asbag69
(g90
g71
NtRp884
(dp885
g74
(dp886
g101
g102
ssg83
g875
sg76
(lp887
S':'
asbag69
(g90
g71
NtRp888
(dp889
g74
(dp890
sg83
g875
sg76
(lp891
g69
(g70
g71
NtRp892
(dp893
g74
(dp894
g82
I4
ssg83
g888
sg76
(lp895
S'en-GB,en-US;q=0.8,en;q=0.6'
p896
asbasbasbag69
(g85
g71
NtRp897
(dp898
g74
(dp899
sg83
g649
sg76
(lp900
g69
(g90
g71
NtRp901
(dp902
g74
(dp903
g94
g95
ssg83
g897
sg76
(lp904
S'http_cache_control'
p905
asbag69
(g90
g71
NtRp906
(dp907
g74
(dp908
g101
g102
ssg83
g897
sg76
(lp909
S':'
asbag69
(g90
g71
NtRp910
(dp911
g74
(dp912
sg83
g897
sg76
(lp913
g69
(g70
g71
NtRp914
(dp915
g74
(dp916
g82
I4
ssg83
g910
sg76
(lp917
S'max-age=0'
p918
asbasbasbag69
(g85
g71
NtRp919
(dp920
g74
(dp921
sg83
g649
sg76
(lp922
g69
(g90
g71
NtRp923
(dp924
g74
(dp925
g94
g95
ssg83
g919
sg76
(lp926
S'http_connection'
p927
asbag69
(g90
g71
NtRp928
(dp929
g74
(dp930
g101
g102
ssg83
g919
sg76
(lp931
S':'
asbag69
(g90
g71
NtRp932
(dp933
g74
(dp934
sg83
g919
sg76
(lp935
g69
(g70
g71
NtRp936
(dp937
g74
(dp938
g82
I4
ssg83
g932
sg76
(lp939
S'keep-alive'
p940
asbasbasbag69
(g85
g71
NtRp941
(dp942
g74
(dp943
sg83
g649
sg76
(lp944
g69
(g90
g71
NtRp945
(dp946
g74
(dp947
g94
g95
ssg83
g941
sg76
(lp948
S'http_cookie'
p949
asbag69
(g90
g71
NtRp950
(dp951
g74
(dp952
g101
g102
ssg83
g941
sg76
(lp953
S':'
asbag69
(g90
g71
NtRp954
(dp955
g74
(dp956
sg83
g941
sg76
(lp957
g69
(g70
g71
NtRp958
(dp959
g74
(dp960
g82
I4
ssg83
g954
sg76
(lp961
S'session_id_admin=127.0.0.1-3ddcd938-b376-43b7-914c-839200110adb; session_id_formalsignup=127.0.0.1-bb45588d-e01d-47a9-9cb0-9a494e35cec8'
p962
asbasbasbag69
(g85
g71
NtRp963
(dp964
g74
(dp965
sg83
g649
sg76
(lp966
g69
(g90
g71
NtRp967
(dp968
g74
(dp969
g94
g95
ssg83
g963
sg76
(lp970
S'http_host'
p971
asbag69
(g90
g71
NtRp972
(dp973
g74
(dp974
g101
g102
ssg83
g963
sg76
(lp975
S':'
asbag69
(g90
g71
NtRp976
(dp977
g74
(dp978
sg83
g963
sg76
(lp979
g69
(g70
g71
NtRp980
(dp981
g74
(dp982
g82
I4
ssg83
g976
sg76
(lp983
S'127.0.0.1:8000'
p984
asbasbasbag69
(g85
g71
NtRp985
(dp986
g74
(dp987
sg83
g649
sg76
(lp988
g69
(g90
g71
NtRp989
(dp990
g74
(dp991
g94
g95
ssg83
g985
sg76
(lp992
S'http_referer'
p993
asbag69
(g90
g71
NtRp994
(dp995
g74
(dp996
g101
g102
ssg83
g985
sg76
(lp997
S':'
asbag69
(g90
g71
NtRp998
(dp999
g74
(dp1000
sg83
g985
sg76
(lp1001
g69
(g70
g71
NtRp1002
(dp1003
g74
(dp1004
g82
I4
ssg83
g998
sg76
(lp1005
S'http://127.0.0.1:8000/FormalSignUp/default/user/login?_next=%2FFormalSignUp%2Fdefault%2Findex'
p1006
asbasbasbag69
(g85
g71
NtRp1007
(dp1008
g74
(dp1009
sg83
g649
sg76
(lp1010
g69
(g90
g71
NtRp1011
(dp1012
g74
(dp1013
g94
g95
ssg83
g1007
sg76
(lp1014
S'http_user_agent'
p1015
asbag69
(g90
g71
NtRp1016
(dp1017
g74
(dp1018
g101
g102
ssg83
g1007
sg76
(lp1019
S':'
asbag69
(g90
g71
NtRp1020
(dp1021
g74
(dp1022
sg83
g1007
sg76
(lp1023
g69
(g70
g71
NtRp1024
(dp1025
g74
(dp1026
g82
I4
ssg83
g1020
sg76
(lp1027
S'Mozilla/5.0 (X11; Linux i686) AppleWebKit/535.11 (KHTML, like Gecko) Chrome/17.0.963.56 Safari/535.11'
p1028
asbasbasbag69
(g85
g71
NtRp1029
(dp1030
g74
(dp1031
sg83
g649
sg76
(lp1032
g69
(g90
g71
NtRp1033
(dp1034
g74
(dp1035
g94
g95
ssg83
g1029
sg76
(lp1036
S'is_jython'
p1037
asbag69
(g90
g71
NtRp1038
(dp1039
g74
(dp1040
g101
g102
ssg83
g1029
sg76
(lp1041
S':'
asbag69
(g90
g71
NtRp1042
(dp1043
g74
(dp1044
sg83
g1029
sg76
(lp1045
g69
(g70
g71
NtRp1046
(dp1047
g74
(dp1048
g82
I4
ssg83
g1042
sg76
(lp1049
g112
asbasbasbag69
(g85
g71
NtRp1050
(dp1051
g74
(dp1052
sg83
g649
sg76
(lp1053
g69
(g90
g71
NtRp1054
(dp1055
g74
(dp1056
g94
g95
ssg83
g1050
sg76
(lp1057
S'is_pypy'
p1058
asbag69
(g90
g71
NtRp1059
(dp1060
g74
(dp1061
g101
g102
ssg83
g1050
sg76
(lp1062
S':'
asbag69
(g90
g71
NtRp1063
(dp1064
g74
(dp1065
sg83
g1050
sg76
(lp1066
g69
(g70
g71
NtRp1067
(dp1068
g74
(dp1069
g82
I4
ssg83
g1063
sg76
(lp1070
g112
asbasbasbag69
(g85
g71
NtRp1071
(dp1072
g74
(dp1073
sg83
g649
sg76
(lp1074
g69
(g90
g71
NtRp1075
(dp1076
g74
(dp1077
g94
g95
ssg83
g1071
sg76
(lp1078
S'path_info'
p1079
asbag69
(g90
g71
NtRp1080
(dp1081
g74
(dp1082
g101
g102
ssg83
g1071
sg76
(lp1083
S':'
asbag69
(g90
g71
NtRp1084
(dp1085
g74
(dp1086
sg83
g1071
sg76
(lp1087
g69
(g70
g71
NtRp1088
(dp1089
g74
(dp1090
g82
I4
ssg83
g1084
sg76
(lp1091
S'/FormalSignUp/default/index'
p1092
asbasbasbag69
(g85
g71
NtRp1093
(dp1094
g74
(dp1095
sg83
g649
sg76
(lp1096
g69
(g90
g71
NtRp1097
(dp1098
g74
(dp1099
g94
g95
ssg83
g1093
sg76
(lp1100
S'query_string'
p1101
asbag69
(g90
g71
NtRp1102
(dp1103
g74
(dp1104
g101
g102
ssg83
g1093
sg76
(lp1105
S':'
asbag69
(g90
g71
NtRp1106
(dp1107
g74
(dp1108
sg83
g1093
sg76
(lp1109
g69
(g70
g71
NtRp1110
(dp1111
g74
(dp1112
g82
I4
ssg83
g1106
sg76
(lp1113
S''
asbasbasbag69
(g85
g71
NtRp1114
(dp1115
g74
(dp1116
sg83
g649
sg76
(lp1117
g69
(g90
g71
NtRp1118
(dp1119
g74
(dp1120
g94
g95
ssg83
g1114
sg76
(lp1121
S'remote_addr'
p1122
asbag69
(g90
g71
NtRp1123
(dp1124
g74
(dp1125
g101
g102
ssg83
g1114
sg76
(lp1126
S':'
asbag69
(g90
g71
NtRp1127
(dp1128
g74
(dp1129
sg83
g1114
sg76
(lp1130
g69
(g70
g71
NtRp1131
(dp1132
g74
(dp1133
g82
I4
ssg83
g1127
sg76
(lp1134
g202
asbasbasbag69
(g85
g71
NtRp1135
(dp1136
g74
(dp1137
sg83
g649
sg76
(lp1138
g69
(g90
g71
NtRp1139
(dp1140
g74
(dp1141
g94
g95
ssg83
g1135
sg76
(lp1142
S'remote_port'
p1143
asbag69
(g90
g71
NtRp1144
(dp1145
g74
(dp1146
g101
g102
ssg83
g1135
sg76
(lp1147
S':'
asbag69
(g90
g71
NtRp1148
(dp1149
g74
(dp1150
sg83
g1135
sg76
(lp1151
g69
(g70
g71
NtRp1152
(dp1153
g74
(dp1154
g82
I4
ssg83
g1148
sg76
(lp1155
S'56703'
p1156
asbasbasbag69
(g85
g71
NtRp1157
(dp1158
g74
(dp1159
sg83
g649
sg76
(lp1160
g69
(g90
g71
NtRp1161
(dp1162
g74
(dp1163
g94
g95
ssg83
g1157
sg76
(lp1164
S'request_method'
p1165
asbag69
(g90
g71
NtRp1166
(dp1167
g74
(dp1168
g101
g102
ssg83
g1157
sg76
(lp1169
S':'
asbag69
(g90
g71
NtRp1170
(dp1171
g74
(dp1172
sg83
g1157
sg76
(lp1173
g69
(g70
g71
NtRp1174
(dp1175
g74
(dp1176
g82
I4
ssg83
g1170
sg76
(lp1177
S'GET'
p1178
asbasbasbag69
(g85
g71
NtRp1179
(dp1180
g74
(dp1181
sg83
g649
sg76
(lp1182
g69
(g90
g71
NtRp1183
(dp1184
g74
(dp1185
g94
g95
ssg83
g1179
sg76
(lp1186
S'script_name'
p1187
asbag69
(g90
g71
NtRp1188
(dp1189
g74
(dp1190
g101
g102
ssg83
g1179
sg76
(lp1191
S':'
asbag69
(g90
g71
NtRp1192
(dp1193
g74
(dp1194
sg83
g1179
sg76
(lp1195
g69
(g70
g71
NtRp1196
(dp1197
g74
(dp1198
g82
I4
ssg83
g1192
sg76
(lp1199
S''
asbasbasbag69
(g85
g71
NtRp1200
(dp1201
g74
(dp1202
sg83
g649
sg76
(lp1203
g69
(g90
g71
NtRp1204
(dp1205
g74
(dp1206
g94
g95
ssg83
g1200
sg76
(lp1207
S'server_name'
p1208
asbag69
(g90
g71
NtRp1209
(dp1210
g74
(dp1211
g101
g102
ssg83
g1200
sg76
(lp1212
S':'
asbag69
(g90
g71
NtRp1213
(dp1214
g74
(dp1215
sg83
g1200
sg76
(lp1216
g69
(g70
g71
NtRp1217
(dp1218
g74
(dp1219
g82
I4
ssg83
g1213
sg76
(lp1220
S'ubuntu'
p1221
asbasbasbag69
(g85
g71
NtRp1222
(dp1223
g74
(dp1224
sg83
g649
sg76
(lp1225
g69
(g90
g71
NtRp1226
(dp1227
g74
(dp1228
g94
g95
ssg83
g1222
sg76
(lp1229
S'server_port'
p1230
asbag69
(g90
g71
NtRp1231
(dp1232
g74
(dp1233
g101
g102
ssg83
g1222
sg76
(lp1234
S':'
asbag69
(g90
g71
NtRp1235
(dp1236
g74
(dp1237
sg83
g1222
sg76
(lp1238
g69
(g70
g71
NtRp1239
(dp1240
g74
(dp1241
g82
I4
ssg83
g1235
sg76
(lp1242
S'8000'
p1243
asbasbasbag69
(g85
g71
NtRp1244
(dp1245
g74
(dp1246
sg83
g649
sg76
(lp1247
g69
(g90
g71
NtRp1248
(dp1249
g74
(dp1250
g94
g95
ssg83
g1244
sg76
(lp1251
S'server_protocol'
p1252
asbag69
(g90
g71
NtRp1253
(dp1254
g74
(dp1255
g101
g102
ssg83
g1244
sg76
(lp1256
S':'
asbag69
(g90
g71
NtRp1257
(dp1258
g74
(dp1259
sg83
g1244
sg76
(lp1260
g69
(g70
g71
NtRp1261
(dp1262
g74
(dp1263
g82
I4
ssg83
g1257
sg76
(lp1264
S'HTTP/1.1'
p1265
asbasbasbag69
(g85
g71
NtRp1266
(dp1267
g74
(dp1268
sg83
g649
sg76
(lp1269
g69
(g90
g71
NtRp1270
(dp1271
g74
(dp1272
g94
g95
ssg83
g1266
sg76
(lp1273
S'server_software'
p1274
asbag69
(g90
g71
NtRp1275
(dp1276
g74
(dp1277
g101
g102
ssg83
g1266
sg76
(lp1278
S':'
asbag69
(g90
g71
NtRp1279
(dp1280
g74
(dp1281
sg83
g1266
sg76
(lp1282
g69
(g70
g71
NtRp1283
(dp1284
g74
(dp1285
g82
I4
ssg83
g1279
sg76
(lp1286
S'Rocket 1.2.4'
p1287
asbasbasbag69
(g85
g71
NtRp1288
(dp1289
g74
(dp1290
sg83
g649
sg76
(lp1291
g69
(g90
g71
NtRp1292
(dp1293
g74
(dp1294
g94
g95
ssg83
g1288
sg76
(lp1295
S'web2py_crontype'
p1296
asbag69
(g90
g71
NtRp1297
(dp1298
g74
(dp1299
g101
g102
ssg83
g1288
sg76
(lp1300
S':'
asbag69
(g90
g71
NtRp1301
(dp1302
g74
(dp1303
sg83
g1288
sg76
(lp1304
g69
(g70
g71
NtRp1305
(dp1306
g74
(dp1307
g82
I4
ssg83
g1301
sg76
(lp1308
S'hard'
p1309
asbasbasbag69
(g85
g71
NtRp1310
(dp1311
g74
(dp1312
sg83
g649
sg76
(lp1313
g69
(g90
g71
NtRp1314
(dp1315
g74
(dp1316
g94
g95
ssg83
g1310
sg76
(lp1317
S'web2py_path'
p1318
asbag69
(g90
g71
NtRp1319
(dp1320
g74
(dp1321
g101
g102
ssg83
g1310
sg76
(lp1322
S':'
asbag69
(g90
g71
NtRp1323
(dp1324
g74
(dp1325
sg83
g1310
sg76
(lp1326
g69
(g70
g71
NtRp1327
(dp1328
g74
(dp1329
g82
I4
ssg83
g1323
sg76
(lp1330
g696
asbasbasbag69
(g85
g71
NtRp1331
(dp1332
g74
(dp1333
sg83
g649
sg76
(lp1334
g69
(g90
g71
NtRp1335
(dp1336
g74
(dp1337
g94
g95
ssg83
g1331
sg76
(lp1338
S'web2py_version'
p1339
asbag69
(g90
g71
NtRp1340
(dp1341
g74
(dp1342
g101
g102
ssg83
g1331
sg76
(lp1343
S':'
asbag69
(g90
g71
NtRp1344
(dp1345
g74
(dp1346
sg83
g1331
sg76
(lp1347
g69
(g70
g71
NtRp1348
(dp1349
g74
(dp1350
g82
I4
ssg83
g1344
sg76
(lp1351
g69
(g78
g71
NtRp1352
(dp1353
g74
(dp1354
g82
I3
ssg83
Nsg76
(lp1355
g69
(g85
g71
NtRp1356
(dp1357
g74
(dp1358
sg83
g1352
sg76
(lp1359
g69
(g90
g71
NtRp1360
(dp1361
g74
(dp1362
sg83
g1356
sg76
(lp1363
g69
(g70
g71
NtRp1364
(dp1365
g74
(dp1366
g82
I3
ssg83
g1360
sg76
(lp1367
S'1'
asbasbasbag69
(g85
g71
NtRp1368
(dp1369
g74
(dp1370
sg83
g1352
sg76
(lp1371
g69
(g90
g71
NtRp1372
(dp1373
g74
(dp1374
sg83
g1368
sg76
(lp1375
g69
(g70
g71
NtRp1376
(dp1377
g74
(dp1378
g82
I3
ssg83
g1372
sg76
(lp1379
S'99'
p1380
asbasbasbag69
(g85
g71
NtRp1381
(dp1382
g74
(dp1383
sg83
g1352
sg76
(lp1384
g69
(g90
g71
NtRp1385
(dp1386
g74
(dp1387
sg83
g1381
sg76
(lp1388
g69
(g70
g71
NtRp1389
(dp1390
g74
(dp1391
g82
I3
ssg83
g1385
sg76
(lp1392
S'4'
asbasbasbag69
(g85
g71
NtRp1393
(dp1394
g74
(dp1395
sg83
g1352
sg76
(lp1396
g69
(g90
g71
NtRp1397
(dp1398
g74
(dp1399
sg83
g1393
sg76
(lp1400
g69
(g70
g71
NtRp1401
(dp1402
g74
(dp1403
g82
I3
ssg83
g1397
sg76
(lp1404
S'datetime.datetime(2011, 12, 14, 14, 46, 14)'
p1405
asbasbasbag69
(g85
g71
NtRp1406
(dp1407
g74
(dp1408
sg83
g1352
sg76
(lp1409
g69
(g90
g71
NtRp1410
(dp1411
g74
(dp1412
sg83
g1406
sg76
(lp1413
g69
(g70
g71
NtRp1414
(dp1415
g74
(dp1416
g82
I3
ssg83
g1410
sg76
(lp1417
S'stable'
p1418
asbasbasbasbasbasbasbag69
(g85
g71
NtRp1419
(dp1420
g74
(dp1421
sg83
g649
sg76
(lp1422
g69
(g90
g71
NtRp1423
(dp1424
g74
(dp1425
g94
g95
ssg83
g1419
sg76
(lp1426
S'wsgi_errors'
p1427
asbag69
(g90
g71
NtRp1428
(dp1429
g74
(dp1430
g101
g102
ssg83
g1419
sg76
(lp1431
S':'
asbag69
(g90
g71
NtRp1432
(dp1433
g74
(dp1434
sg83
g1419
sg76
(lp1435
g69
(g70
g71
NtRp1436
(dp1437
g74
(dp1438
g82
I4
ssg83
g1432
sg76
(lp1439
S"<open file '<stderr>', mode 'w' at 0xb739b0d0>"
p1440
asbasbasbag69
(g85
g71
NtRp1441
(dp1442
g74
(dp1443
sg83
g649
sg76
(lp1444
g69
(g90
g71
NtRp1445
(dp1446
g74
(dp1447
g94
g95
ssg83
g1441
sg76
(lp1448
S'wsgi_file_wrapper'
p1449
asbag69
(g90
g71
NtRp1450
(dp1451
g74
(dp1452
g101
g102
ssg83
g1441
sg76
(lp1453
S':'
asbag69
(g90
g71
NtRp1454
(dp1455
g74
(dp1456
sg83
g1441
sg76
(lp1457
g69
(g70
g71
NtRp1458
(dp1459
g74
(dp1460
g82
I4
ssg83
g1454
sg76
(lp1461
S'<class wsgiref.util.FileWrapper at 0x8c022cc>'
p1462
asbasbasbag69
(g85
g71
NtRp1463
(dp1464
g74
(dp1465
sg83
g649
sg76
(lp1466
g69
(g90
g71
NtRp1467
(dp1468
g74
(dp1469
g94
g95
ssg83
g1463
sg76
(lp1470
S'wsgi_input'
p1471
asbag69
(g90
g71
NtRp1472
(dp1473
g74
(dp1474
g101
g102
ssg83
g1463
sg76
(lp1475
S':'
asbag69
(g90
g71
NtRp1476
(dp1477
g74
(dp1478
sg83
g1463
sg76
(lp1479
g69
(g70
g71
NtRp1480
(dp1481
g74
(dp1482
g82
I4
ssg83
g1476
sg76
(lp1483
S'<socket._fileobject object at 0x908712c>'
p1484
asbasbasbag69
(g85
g71
NtRp1485
(dp1486
g74
(dp1487
sg83
g649
sg76
(lp1488
g69
(g90
g71
NtRp1489
(dp1490
g74
(dp1491
g94
g95
ssg83
g1485
sg76
(lp1492
S'wsgi_multiprocess'
p1493
asbag69
(g90
g71
NtRp1494
(dp1495
g74
(dp1496
g101
g102
ssg83
g1485
sg76
(lp1497
S':'
asbag69
(g90
g71
NtRp1498
(dp1499
g74
(dp1500
sg83
g1485
sg76
(lp1501
g69
(g70
g71
NtRp1502
(dp1503
g74
(dp1504
g82
I4
ssg83
g1498
sg76
(lp1505
g112
asbasbasbag69
(g85
g71
NtRp1506
(dp1507
g74
(dp1508
sg83
g649
sg76
(lp1509
g69
(g90
g71
NtRp1510
(dp1511
g74
(dp1512
g94
g95
ssg83
g1506
sg76
(lp1513
S'wsgi_multithread'
p1514
asbag69
(g90
g71
NtRp1515
(dp1516
g74
(dp1517
g101
g102
ssg83
g1506
sg76
(lp1518
S':'
asbag69
(g90
g71
NtRp1519
(dp1520
g74
(dp1521
sg83
g1506
sg76
(lp1522
g69
(g70
g71
NtRp1523
(dp1524
g74
(dp1525
g82
I4
ssg83
g1519
sg76
(lp1526
S'True'
p1527
asbasbasbag69
(g85
g71
NtRp1528
(dp1529
g74
(dp1530
sg83
g649
sg76
(lp1531
g69
(g90
g71
NtRp1532
(dp1533
g74
(dp1534
g94
g95
ssg83
g1528
sg76
(lp1535
S'wsgi_run_once'
p1536
asbag69
(g90
g71
NtRp1537
(dp1538
g74
(dp1539
g101
g102
ssg83
g1528
sg76
(lp1540
S':'
asbag69
(g90
g71
NtRp1541
(dp1542
g74
(dp1543
sg83
g1528
sg76
(lp1544
g69
(g70
g71
NtRp1545
(dp1546
g74
(dp1547
g82
I4
ssg83
g1541
sg76
(lp1548
g112
asbasbasbag69
(g85
g71
NtRp1549
(dp1550
g74
(dp1551
sg83
g649
sg76
(lp1552
g69
(g90
g71
NtRp1553
(dp1554
g74
(dp1555
g94
g95
ssg83
g1549
sg76
(lp1556
S'wsgi_url_scheme'
p1557
asbag69
(g90
g71
NtRp1558
(dp1559
g74
(dp1560
g101
g102
ssg83
g1549
sg76
(lp1561
S':'
asbag69
(g90
g71
NtRp1562
(dp1563
g74
(dp1564
sg83
g1549
sg76
(lp1565
g69
(g70
g71
NtRp1566
(dp1567
g74
(dp1568
g82
I4
ssg83
g1562
sg76
(lp1569
S'http'
p1570
asbasbasbag69
(g85
g71
NtRp1571
(dp1572
g74
(dp1573
sg83
g649
sg76
(lp1574
g69
(g90
g71
NtRp1575
(dp1576
g74
(dp1577
g94
g95
ssg83
g1571
sg76
(lp1578
S'wsgi_version'
p1579
asbag69
(g90
g71
NtRp1580
(dp1581
g74
(dp1582
g101
g102
ssg83
g1571
sg76
(lp1583
S':'
asbag69
(g90
g71
NtRp1584
(dp1585
g74
(dp1586
sg83
g1571
sg76
(lp1587
g69
(g70
g71
NtRp1588
(dp1589
g74
(dp1590
g82
I4
ssg83
g1584
sg76
(lp1591
g69
(g78
g71
NtRp1592
(dp1593
g74
(dp1594
g82
I3
ssg83
Nsg76
(lp1595
g69
(g85
g71
NtRp1596
(dp1597
g74
(dp1598
sg83
g1592
sg76
(lp1599
g69
(g90
g71
NtRp1600
(dp1601
g74
(dp1602
sg83
g1596
sg76
(lp1603
g69
(g70
g71
NtRp1604
(dp1605
g74
(dp1606
g82
I3
ssg83
g1600
sg76
(lp1607
S'1'
asbasbasbag69
(g85
g71
NtRp1608
(dp1609
g74
(dp1610
sg83
g1592
sg76
(lp1611
g69
(g90
g71
NtRp1612
(dp1613
g74
(dp1614
sg83
g1608
sg76
(lp1615
g69
(g70
g71
NtRp1616
(dp1617
g74
(dp1618
g82
I3
ssg83
g1612
sg76
(lp1619
S'0'
asbasbasbasbasbasbasbasbasbasbasbag69
(g85
g71
NtRp1620
(dp1621
g74
(dp1622
sg83
g79
sg76
(lp1623
g69
(g90
g71
NtRp1624
(dp1625
g74
(dp1626
g94
g95
ssg83
g1620
sg76
(lp1627
S'extension'
p1628
asbag69
(g90
g71
NtRp1629
(dp1630
g74
(dp1631
g101
g102
ssg83
g1620
sg76
(lp1632
S':'
asbag69
(g90
g71
NtRp1633
(dp1634
g74
(dp1635
sg83
g1620
sg76
(lp1636
g69
(g70
g71
NtRp1637
(dp1638
g74
(dp1639
g82
I5
ssg83
g1633
sg76
(lp1640
S'html'
p1641
asbasbasbag69
(g85
g71
NtRp1642
(dp1643
g74
(dp1644
sg83
g79
sg76
(lp1645
g69
(g90
g71
NtRp1646
(dp1647
g74
(dp1648
g94
g95
ssg83
g1642
sg76
(lp1649
S'folder'
p1650
asbag69
(g90
g71
NtRp1651
(dp1652
g74
(dp1653
g101
g102
ssg83
g1642
sg76
(lp1654
S':'
asbag69
(g90
g71
NtRp1655
(dp1656
g74
(dp1657
sg83
g1642
sg76
(lp1658
g69
(g70
g71
NtRp1659
(dp1660
g74
(dp1661
g82
I5
ssg83
g1655
sg76
(lp1662
S'/home/shaz/Documents/Development/web2py/applications/FormalSignUp/'
p1663
asbasbasbag69
(g85
g71
NtRp1664
(dp1665
g74
(dp1666
sg83
g79
sg76
(lp1667
g69
(g90
g71
NtRp1668
(dp1669
g74
(dp1670
g94
g95
ssg83
g1664
sg76
(lp1671
S'function'
p1672
asbag69
(g90
g71
NtRp1673
(dp1674
g74
(dp1675
g101
g102
ssg83
g1664
sg76
(lp1676
S':'
asbag69
(g90
g71
NtRp1677
(dp1678
g74
(dp1679
sg83
g1664
sg76
(lp1680
g69
(g70
g71
NtRp1681
(dp1682
g74
(dp1683
g82
I5
ssg83
g1677
sg76
(lp1684
S'index'
p1685
asbasbasbag69
(g85
g71
NtRp1686
(dp1687
g74
(dp1688
sg83
g79
sg76
(lp1689
g69
(g90
g71
NtRp1690
(dp1691
g74
(dp1692
g94
g95
ssg83
g1686
sg76
(lp1693
S'get_vars'
p1694
asbag69
(g90
g71
NtRp1695
(dp1696
g74
(dp1697
g101
g102
ssg83
g1686
sg76
(lp1698
S':'
asbag69
(g90
g71
NtRp1699
(dp1700
g74
(dp1701
sg83
g1686
sg76
(lp1702
g69
(g70
g71
NtRp1703
(dp1704
g74
(dp1705
g82
I5
ssg83
g1699
sg76
(lp1706
g69
(g78
g71
NtRp1707
(dp1708
g74
(dp1709
g82
I4
ssg83
Nsg76
(lp1710
sbasbasbasbag69
(g85
g71
NtRp1711
(dp1712
g74
(dp1713
sg83
g79
sg76
(lp1714
g69
(g90
g71
NtRp1715
(dp1716
g74
(dp1717
g94
g95
ssg83
g1711
sg76
(lp1718
S'global_settings'
p1719
asbag69
(g90
g71
NtRp1720
(dp1721
g74
(dp1722
g101
g102
ssg83
g1711
sg76
(lp1723
S':'
asbag69
(g90
g71
NtRp1724
(dp1725
g74
(dp1726
sg83
g1711
sg76
(lp1727
g69
(g70
g71
NtRp1728
(dp1729
g74
(dp1730
g82
I5
ssg83
g1724
sg76
(lp1731
g69
(g78
g71
NtRp1732
(dp1733
g74
(dp1734
g82
I4
ssg83
Nsg76
(lp1735
g69
(g85
g71
NtRp1736
(dp1737
g74
(dp1738
sg83
g1732
sg76
(lp1739
g69
(g90
g71
NtRp1740
(dp1741
g74
(dp1742
g94
g95
ssg83
g1736
sg76
(lp1743
g661
asbag69
(g90
g71
NtRp1744
(dp1745
g74
(dp1746
g101
g102
ssg83
g1736
sg76
(lp1747
S':'
asbag69
(g90
g71
NtRp1748
(dp1749
g74
(dp1750
sg83
g1736
sg76
(lp1751
g69
(g70
g71
NtRp1752
(dp1753
g74
(dp1754
g82
I4
ssg83
g1748
sg76
(lp1755
S"set(['/home/shaz/Documents/Development/web2py/applications/FormalSignUp/', '/home/shaz/Documents/Development/web2py/applications/admin/'])"
p1756
asbasbasbag69
(g85
g71
NtRp1757
(dp1758
g74
(dp1759
sg83
g1732
sg76
(lp1760
g69
(g90
g71
NtRp1761
(dp1762
g74
(dp1763
g94
g95
ssg83
g1757
sg76
(lp1764
g683
asbag69
(g90
g71
NtRp1765
(dp1766
g74
(dp1767
g101
g102
ssg83
g1757
sg76
(lp1768
S':'
asbag69
(g90
g71
NtRp1769
(dp1770
g74
(dp1771
sg83
g1757
sg76
(lp1772
g69
(g70
g71
NtRp1773
(dp1774
g74
(dp1775
g82
I4
ssg83
g1769
sg76
(lp1776
g696
asbasbasbag69
(g85
g71
NtRp1777
(dp1778
g74
(dp1779
sg83
g1732
sg76
(lp1780
g69
(g90
g71
NtRp1781
(dp1782
g74
(dp1783
g94
g95
ssg83
g1777
sg76
(lp1784
g705
asbag69
(g90
g71
NtRp1785
(dp1786
g74
(dp1787
g101
g102
ssg83
g1777
sg76
(lp1788
S':'
asbag69
(g90
g71
NtRp1789
(dp1790
g74
(dp1791
sg83
g1777
sg76
(lp1792
g69
(g70
g71
NtRp1793
(dp1794
g74
(dp1795
g82
I4
ssg83
g1789
sg76
(lp1796
g69
(g78
g71
NtRp1797
(dp1798
g74
(dp1799
g82
I3
ssg83
Nsg76
(lp1800
sbasbasbasbag69
(g85
g71
NtRp1801
(dp1802
g74
(dp1803
sg83
g1732
sg76
(lp1804
g69
(g90
g71
NtRp1805
(dp1806
g74
(dp1807
g94
g95
ssg83
g1801
sg76
(lp1808
g730
asbag69
(g90
g71
NtRp1809
(dp1810
g74
(dp1811
g101
g102
ssg83
g1801
sg76
(lp1812
S':'
asbag69
(g90
g71
NtRp1813
(dp1814
g74
(dp1815
sg83
g1801
sg76
(lp1816
g69
(g70
g71
NtRp1817
(dp1818
g74
(dp1819
g82
I4
ssg83
g1813
sg76
(lp1820
S"<Values at 0x8c579ac: {'verbose': False, 'ip': '127.0.0.1', 'shutdown_timeout': 5, 'taskbar': False, 'nocron': False, 'pid_filename': 'httpserver.pid', 'maxthreads': None, 'softcron': False, 'server_name': 'ubuntu', 'bpython': False, 'nogui': False, 'port': 8000, 'extcron': False, 'debuglevel': 30, 'test': None, 'folder': '/home/shaz/Documents/Development/web2py', 'config': '', 'import_models': False, 'winservice': '', 'shell': None, 'run': '', 'log_filename': 'httpserver.log', 'args': [''], 'socket_timeout': 1, 'ssl_ca_certificate': None, 'scheduler': None, 'profiler_filename': None, 'ssl_private_key': '', 'password': 'shaz', 'request_queue_size': 5, 'ssl_certificate': '', 'cronjob': False, 'numthreads': None, 'quiet': False, 'interfaces': None, 'minthreads': None, 'timeout': 10, 'plain': False, 'nobanner': False}>"
p1821
asbasbasbag69
(g85
g71
NtRp1822
(dp1823
g74
(dp1824
sg83
g1732
sg76
(lp1825
g69
(g90
g71
NtRp1826
(dp1827
g74
(dp1828
g94
g95
ssg83
g1822
sg76
(lp1829
g752
asbag69
(g90
g71
NtRp1830
(dp1831
g74
(dp1832
g101
g102
ssg83
g1822
sg76
(lp1833
S':'
asbag69
(g90
g71
NtRp1834
(dp1835
g74
(dp1836
sg83
g1822
sg76
(lp1837
g69
(g70
g71
NtRp1838
(dp1839
g74
(dp1840
g82
I4
ssg83
g1834
sg76
(lp1841
S'set([])'
p1842
asbasbasbag69
(g85
g71
NtRp1843
(dp1844
g74
(dp1845
sg83
g1732
sg76
(lp1846
g69
(g90
g71
NtRp1847
(dp1848
g74
(dp1849
g94
g95
ssg83
g1843
sg76
(lp1850
g774
asbag69
(g90
g71
NtRp1851
(dp1852
g74
(dp1853
g101
g102
ssg83
g1843
sg76
(lp1854
S':'
asbag69
(g90
g71
NtRp1855
(dp1856
g74
(dp1857
sg83
g1843
sg76
(lp1858
g69
(g70
g71
NtRp1859
(dp1860
g74
(dp1861
g82
I4
ssg83
g1855
sg76
(lp1862
g112
asbasbasbag69
(g85
g71
NtRp1863
(dp1864
g74
(dp1865
sg83
g1732
sg76
(lp1866
g69
(g90
g71
NtRp1867
(dp1868
g74
(dp1869
g94
g95
ssg83
g1863
sg76
(lp1870
g795
asbag69
(g90
g71
NtRp1871
(dp1872
g74
(dp1873
g101
g102
ssg83
g1863
sg76
(lp1874
S':'
asbag69
(g90
g71
NtRp1875
(dp1876
g74
(dp1877
sg83
g1863
sg76
(lp1878
g69
(g70
g71
NtRp1879
(dp1880
g74
(dp1881
g82
I4
ssg83
g1875
sg76
(lp1882
g808
asbasbasbag69
(g85
g71
NtRp1883
(dp1884
g74
(dp1885
sg83
g1732
sg76
(lp1886
g69
(g90
g71
NtRp1887
(dp1888
g74
(dp1889
g94
g95
ssg83
g1883
sg76
(lp1890
g1037
asbag69
(g90
g71
NtRp1891
(dp1892
g74
(dp1893
g101
g102
ssg83
g1883
sg76
(lp1894
S':'
asbag69
(g90
g71
NtRp1895
(dp1896
g74
(dp1897
sg83
g1883
sg76
(lp1898
g69
(g70
g71
NtRp1899
(dp1900
g74
(dp1901
g82
I4
ssg83
g1895
sg76
(lp1902
g112
asbasbasbag69
(g85
g71
NtRp1903
(dp1904
g74
(dp1905
sg83
g1732
sg76
(lp1906
g69
(g90
g71
NtRp1907
(dp1908
g74
(dp1909
g94
g95
ssg83
g1903
sg76
(lp1910
g1058
asbag69
(g90
g71
NtRp1911
(dp1912
g74
(dp1913
g101
g102
ssg83
g1903
sg76
(lp1914
S':'
asbag69
(g90
g71
NtRp1915
(dp1916
g74
(dp1917
sg83
g1903
sg76
(lp1918
g69
(g70
g71
NtRp1919
(dp1920
g74
(dp1921
g82
I4
ssg83
g1915
sg76
(lp1922
g112
asbasbasbag69
(g85
g71
NtRp1923
(dp1924
g74
(dp1925
sg83
g1732
sg76
(lp1926
g69
(g90
g71
NtRp1927
(dp1928
g74
(dp1929
g94
g95
ssg83
g1923
sg76
(lp1930
g1296
asbag69
(g90
g71
NtRp1931
(dp1932
g74
(dp1933
g101
g102
ssg83
g1923
sg76
(lp1934
S':'
asbag69
(g90
g71
NtRp1935
(dp1936
g74
(dp1937
sg83
g1923
sg76
(lp1938
g69
(g70
g71
NtRp1939
(dp1940
g74
(dp1941
g82
I4
ssg83
g1935
sg76
(lp1942
g1309
asbasbasbag69
(g85
g71
NtRp1943
(dp1944
g74
(dp1945
sg83
g1732
sg76
(lp1946
g69
(g90
g71
NtRp1947
(dp1948
g74
(dp1949
g94
g95
ssg83
g1943
sg76
(lp1950
g1339
asbag69
(g90
g71
NtRp1951
(dp1952
g74
(dp1953
g101
g102
ssg83
g1943
sg76
(lp1954
S':'
asbag69
(g90
g71
NtRp1955
(dp1956
g74
(dp1957
sg83
g1943
sg76
(lp1958
g69
(g70
g71
NtRp1959
(dp1960
g74
(dp1961
g82
I4
ssg83
g1955
sg76
(lp1962
g69
(g78
g71
NtRp1963
(dp1964
g74
(dp1965
g82
I3
ssg83
Nsg76
(lp1966
g69
(g85
g71
NtRp1967
(dp1968
g74
(dp1969
sg83
g1963
sg76
(lp1970
g69
(g90
g71
NtRp1971
(dp1972
g74
(dp1973
sg83
g1967
sg76
(lp1974
g69
(g70
g71
NtRp1975
(dp1976
g74
(dp1977
g82
I3
ssg83
g1971
sg76
(lp1978
S'1'
asbasbasbag69
(g85
g71
NtRp1979
(dp1980
g74
(dp1981
sg83
g1963
sg76
(lp1982
g69
(g90
g71
NtRp1983
(dp1984
g74
(dp1985
sg83
g1979
sg76
(lp1986
g69
(g70
g71
NtRp1987
(dp1988
g74
(dp1989
g82
I3
ssg83
g1983
sg76
(lp1990
S'99'
p1991
asbasbasbag69
(g85
g71
NtRp1992
(dp1993
g74
(dp1994
sg83
g1963
sg76
(lp1995
g69
(g90
g71
NtRp1996
(dp1997
g74
(dp1998
sg83
g1992
sg76
(lp1999
g69
(g70
g71
NtRp2000
(dp2001
g74
(dp2002
g82
I3
ssg83
g1996
sg76
(lp2003
S'4'
asbasbasbag69
(g85
g71
NtRp2004
(dp2005
g74
(dp2006
sg83
g1963
sg76
(lp2007
g69
(g90
g71
NtRp2008
(dp2009
g74
(dp2010
sg83
g2004
sg76
(lp2011
g69
(g70
g71
NtRp2012
(dp2013
g74
(dp2014
g82
I3
ssg83
g2008
sg76
(lp2015
S'datetime.datetime(2011, 12, 14, 14, 46, 14)'
p2016
asbasbasbag69
(g85
g71
NtRp2017
(dp2018
g74
(dp2019
sg83
g1963
sg76
(lp2020
g69
(g90
g71
NtRp2021
(dp2022
g74
(dp2023
sg83
g2017
sg76
(lp2024
g69
(g70
g71
NtRp2025
(dp2026
g74
(dp2027
g82
I3
ssg83
g2021
sg76
(lp2028
g1418
asbasbasbasbasbasbasbasbasbasbasbag69
(g85
g71
NtRp2029
(dp2030
g74
(dp2031
sg83
g79
sg76
(lp2032
g69
(g90
g71
NtRp2033
(dp2034
g74
(dp2035
g94
g95
ssg83
g2029
sg76
(lp2036
S'is_https'
p2037
asbag69
(g90
g71
NtRp2038
(dp2039
g74
(dp2040
g101
g102
ssg83
g2029
sg76
(lp2041
S':'
asbag69
(g90
g71
NtRp2042
(dp2043
g74
(dp2044
sg83
g2029
sg76
(lp2045
g69
(g70
g71
NtRp2046
(dp2047
g74
(dp2048
g82
I5
ssg83
g2042
sg76
(lp2049
g112
asbasbasbag69
(g85
g71
NtRp2050
(dp2051
g74
(dp2052
sg83
g79
sg76
(lp2053
g69
(g90
g71
NtRp2054
(dp2055
g74
(dp2056
g94
g95
ssg83
g2050
sg76
(lp2057
S'is_local'
p2058
asbag69
(g90
g71
NtRp2059
(dp2060
g74
(dp2061
g101
g102
ssg83
g2050
sg76
(lp2062
S':'
asbag69
(g90
g71
NtRp2063
(dp2064
g74
(dp2065
sg83
g2050
sg76
(lp2066
g69
(g70
g71
NtRp2067
(dp2068
g74
(dp2069
g82
I5
ssg83
g2063
sg76
(lp2070
g1527
asbasbasbag69
(g85
g71
NtRp2071
(dp2072
g74
(dp2073
sg83
g79
sg76
(lp2074
g69
(g90
g71
NtRp2075
(dp2076
g74
(dp2077
g94
g95
ssg83
g2071
sg76
(lp2078
S'is_restful'
p2079
asbag69
(g90
g71
NtRp2080
(dp2081
g74
(dp2082
g101
g102
ssg83
g2071
sg76
(lp2083
S':'
asbag69
(g90
g71
NtRp2084
(dp2085
g74
(dp2086
sg83
g2071
sg76
(lp2087
g69
(g70
g71
NtRp2088
(dp2089
g74
(dp2090
g82
I5
ssg83
g2084
sg76
(lp2091
g112
asbasbasbag69
(g85
g71
NtRp2092
(dp2093
g74
(dp2094
sg83
g79
sg76
(lp2095
g69
(g90
g71
NtRp2096
(dp2097
g74
(dp2098
g94
g95
ssg83
g2092
sg76
(lp2099
S'now'
p2100
asbag69
(g90
g71
NtRp2101
(dp2102
g74
(dp2103
g101
g102
ssg83
g2092
sg76
(lp2104
S':'
asbag69
(g90
g71
NtRp2105
(dp2106
g74
(dp2107
sg83
g2092
sg76
(lp2108
g69
(g70
g71
NtRp2109
(dp2110
g74
(dp2111
g82
I5
ssg83
g2105
sg76
(lp2112
S'datetime.datetime(2012, 3, 2, 19, 41, 13, 541048)'
p2113
asbasbasbag69
(g85
g71
NtRp2114
(dp2115
g74
(dp2116
sg83
g79
sg76
(lp2117
g69
(g90
g71
NtRp2118
(dp2119
g74
(dp2120
g94
g95
ssg83
g2114
sg76
(lp2121
S'post_vars'
p2122
asbag69
(g90
g71
NtRp2123
(dp2124
g74
(dp2125
g101
g102
ssg83
g2114
sg76
(lp2126
S':'
asbag69
(g90
g71
NtRp2127
(dp2128
g74
(dp2129
sg83
g2114
sg76
(lp2130
g69
(g70
g71
NtRp2131
(dp2132
g74
(dp2133
g82
I5
ssg83
g2127
sg76
(lp2134
g69
(g78
g71
NtRp2135
(dp2136
g74
(dp2137
g82
I4
ssg83
Nsg76
(lp2138
sbasbasbasbag69
(g85
g71
NtRp2139
(dp2140
g74
(dp2141
sg83
g79
sg76
(lp2142
g69
(g90
g71
NtRp2143
(dp2144
g74
(dp2145
g94
g95
ssg83
g2139
sg76
(lp2146
S'url'
p2147
asbag69
(g90
g71
NtRp2148
(dp2149
g74
(dp2150
g101
g102
ssg83
g2139
sg76
(lp2151
S':'
asbag69
(g90
g71
NtRp2152
(dp2153
g74
(dp2154
sg83
g2139
sg76
(lp2155
g69
(g70
g71
NtRp2156
(dp2157
g74
(dp2158
g82
I5
ssg83
g2152
sg76
(lp2159
S'/FormalSignUp/default/index'
p2160
asbasbasbag69
(g85
g71
NtRp2161
(dp2162
g74
(dp2163
sg83
g79
sg76
(lp2164
g69
(g90
g71
NtRp2165
(dp2166
g74
(dp2167
g94
g95
ssg83
g2161
sg76
(lp2168
S'utcnow'
p2169
asbag69
(g90
g71
NtRp2170
(dp2171
g74
(dp2172
g101
g102
ssg83
g2161
sg76
(lp2173
S':'
asbag69
(g90
g71
NtRp2174
(dp2175
g74
(dp2176
sg83
g2161
sg76
(lp2177
g69
(g70
g71
NtRp2178
(dp2179
g74
(dp2180
g82
I5
ssg83
g2174
sg76
(lp2181
S'datetime.datetime(2012, 3, 2, 19, 41, 13, 541070)'
p2182
asbasbasbag69
(g85
g71
NtRp2183
(dp2184
g74
(dp2185
sg83
g79
sg76
(lp2186
g69
(g90
g71
NtRp2187
(dp2188
g74
(dp2189
g94
g95
ssg83
g2183
sg76
(lp2190
S'uuid'
p2191
asbag69
(g90
g71
NtRp2192
(dp2193
g74
(dp2194
g101
g102
ssg83
g2183
sg76
(lp2195
S':'
asbag69
(g90
g71
NtRp2196
(dp2197
g74
(dp2198
sg83
g2183
sg76
(lp2199
g69
(g70
g71
NtRp2200
(dp2201
g74
(dp2202
g82
I5
ssg83
g2196
sg76
(lp2203
S'FormalSignUp/127.0.0.1.2012-03-02.19-41-13.7db48629-0fc0-4d35-af61-a41f9d3da600'
p2204
asbasbasbag69
(g85
g71
NtRp2205
(dp2206
g74
(dp2207
sg83
g79
sg76
(lp2208
g69
(g90
g71
NtRp2209
(dp2210
g74
(dp2211
g94
g95
ssg83
g2205
sg76
(lp2212
S'vars'
p2213
asbag69
(g90
g71
NtRp2214
(dp2215
g74
(dp2216
g101
g102
ssg83
g2205
sg76
(lp2217
S':'
asbag69
(g90
g71
NtRp2218
(dp2219
g74
(dp2220
sg83
g2205
sg76
(lp2221
g69
(g70
g71
NtRp2222
(dp2223
g74
(dp2224
g82
I5
ssg83
g2218
sg76
(lp2225
g69
(g78
g71
NtRp2226
(dp2227
g74
(dp2228
g82
I4
ssg83
Nsg76
(lp2229
sbasbasbasbag69
(g85
g71
NtRp2230
(dp2231
g74
(dp2232
sg83
g79
sg76
(lp2233
g69
(g90
g71
NtRp2234
(dp2235
g74
(dp2236
g94
g95
ssg83
g2230
sg76
(lp2237
S'wsgi'
p2238
asbag69
(g90
g71
NtRp2239
(dp2240
g74
(dp2241
g101
g102
ssg83
g2230
sg76
(lp2242
S':'
asbag69
(g90
g71
NtRp2243
(dp2244
g74
(dp2245
sg83
g2230
sg76
(lp2246
g69
(g70
g71
NtRp2247
(dp2248
g74
(dp2249
g82
I5
ssg83
g2243
sg76
(lp2250
g69
(g78
g71
NtRp2251
(dp2252
g74
(dp2253
g82
I4
ssg83
Nsg76
(lp2254
g69
(g85
g71
NtRp2255
(dp2256
g74
(dp2257
sg83
g2251
sg76
(lp2258
g69
(g90
g71
NtRp2259
(dp2260
g74
(dp2261
g94
g95
ssg83
g2255
sg76
(lp2262
S'environ'
p2263
asbag69
(g90
g71
NtRp2264
(dp2265
g74
(dp2266
g101
g102
ssg83
g2255
sg76
(lp2267
S':'
asbag69
(g90
g71
NtRp2268
(dp2269
g74
(dp2270
sg83
g2255
sg76
(lp2271
g69
(g70
g71
NtRp2272
(dp2273
g74
(dp2274
g82
I4
ssg83
g2268
sg76
(lp2275
g69
(g78
g71
NtRp2276
(dp2277
g74
(dp2278
g82
I3
ssg83
Nsg76
(lp2279
g69
(g85
g71
NtRp2280
(dp2281
g74
(dp2282
sg83
g2276
sg76
(lp2283
g69
(g90
g71
NtRp2284
(dp2285
g74
(dp2286
g94
g95
ssg83
g2280
sg76
(lp2287
S'HTTP_ACCEPT'
p2288
asbag69
(g90
g71
NtRp2289
(dp2290
g74
(dp2291
g101
g102
ssg83
g2280
sg76
(lp2292
S':'
asbag69
(g90
g71
NtRp2293
(dp2294
g74
(dp2295
sg83
g2280
sg76
(lp2296
g69
(g70
g71
NtRp2297
(dp2298
g74
(dp2299
g82
I3
ssg83
g2293
sg76
(lp2300
g830
asbasbasbag69
(g85
g71
NtRp2301
(dp2302
g74
(dp2303
sg83
g2276
sg76
(lp2304
g69
(g90
g71
NtRp2305
(dp2306
g74
(dp2307
g94
g95
ssg83
g2301
sg76
(lp2308
S'HTTP_ACCEPT_CHARSET'
p2309
asbag69
(g90
g71
NtRp2310
(dp2311
g74
(dp2312
g101
g102
ssg83
g2301
sg76
(lp2313
S':'
asbag69
(g90
g71
NtRp2314
(dp2315
g74
(dp2316
sg83
g2301
sg76
(lp2317
g69
(g70
g71
NtRp2318
(dp2319
g74
(dp2320
g82
I3
ssg83
g2314
sg76
(lp2321
g852
asbasbasbag69
(g85
g71
NtRp2322
(dp2323
g74
(dp2324
sg83
g2276
sg76
(lp2325
g69
(g90
g71
NtRp2326
(dp2327
g74
(dp2328
g94
g95
ssg83
g2322
sg76
(lp2329
S'HTTP_ACCEPT_ENCODING'
p2330
asbag69
(g90
g71
NtRp2331
(dp2332
g74
(dp2333
g101
g102
ssg83
g2322
sg76
(lp2334
S':'
asbag69
(g90
g71
NtRp2335
(dp2336
g74
(dp2337
sg83
g2322
sg76
(lp2338
g69
(g70
g71
NtRp2339
(dp2340
g74
(dp2341
g82
I3
ssg83
g2335
sg76
(lp2342
g874
asbasbasbag69
(g85
g71
NtRp2343
(dp2344
g74
(dp2345
sg83
g2276
sg76
(lp2346
g69
(g90
g71
NtRp2347
(dp2348
g74
(dp2349
g94
g95
ssg83
g2343
sg76
(lp2350
S'HTTP_ACCEPT_LANGUAGE'
p2351
asbag69
(g90
g71
NtRp2352
(dp2353
g74
(dp2354
g101
g102
ssg83
g2343
sg76
(lp2355
S':'
asbag69
(g90
g71
NtRp2356
(dp2357
g74
(dp2358
sg83
g2343
sg76
(lp2359
g69
(g70
g71
NtRp2360
(dp2361
g74
(dp2362
g82
I3
ssg83
g2356
sg76
(lp2363
g896
asbasbasbag69
(g85
g71
NtRp2364
(dp2365
g74
(dp2366
sg83
g2276
sg76
(lp2367
g69
(g90
g71
NtRp2368
(dp2369
g74
(dp2370
g94
g95
ssg83
g2364
sg76
(lp2371
S'HTTP_CACHE_CONTROL'
p2372
asbag69
(g90
g71
NtRp2373
(dp2374
g74
(dp2375
g101
g102
ssg83
g2364
sg76
(lp2376
S':'
asbag69
(g90
g71
NtRp2377
(dp2378
g74
(dp2379
sg83
g2364
sg76
(lp2380
g69
(g70
g71
NtRp2381
(dp2382
g74
(dp2383
g82
I3
ssg83
g2377
sg76
(lp2384
g918
asbasbasbag69
(g85
g71
NtRp2385
(dp2386
g74
(dp2387
sg83
g2276
sg76
(lp2388
g69
(g90
g71
NtRp2389
(dp2390
g74
(dp2391
g94
g95
ssg83
g2385
sg76
(lp2392
S'HTTP_CONNECTION'
p2393
asbag69
(g90
g71
NtRp2394
(dp2395
g74
(dp2396
g101
g102
ssg83
g2385
sg76
(lp2397
S':'
asbag69
(g90
g71
NtRp2398
(dp2399
g74
(dp2400
sg83
g2385
sg76
(lp2401
g69
(g70
g71
NtRp2402
(dp2403
g74
(dp2404
g82
I3
ssg83
g2398
sg76
(lp2405
g940
asbasbasbag69
(g85
g71
NtRp2406
(dp2407
g74
(dp2408
sg83
g2276
sg76
(lp2409
g69
(g90
g71
NtRp2410
(dp2411
g74
(dp2412
g94
g95
ssg83
g2406
sg76
(lp2413
S'HTTP_COOKIE'
p2414
asbag69
(g90
g71
NtRp2415
(dp2416
g74
(dp2417
g101
g102
ssg83
g2406
sg76
(lp2418
S':'
asbag69
(g90
g71
NtRp2419
(dp2420
g74
(dp2421
sg83
g2406
sg76
(lp2422
g69
(g70
g71
NtRp2423
(dp2424
g74
(dp2425
g82
I3
ssg83
g2419
sg76
(lp2426
g962
asbasbasbag69
(g85
g71
NtRp2427
(dp2428
g74
(dp2429
sg83
g2276
sg76
(lp2430
g69
(g90
g71
NtRp2431
(dp2432
g74
(dp2433
g94
g95
ssg83
g2427
sg76
(lp2434
S'HTTP_HOST'
p2435
asbag69
(g90
g71
NtRp2436
(dp2437
g74
(dp2438
g101
g102
ssg83
g2427
sg76
(lp2439
S':'
asbag69
(g90
g71
NtRp2440
(dp2441
g74
(dp2442
sg83
g2427
sg76
(lp2443
g69
(g70
g71
NtRp2444
(dp2445
g74
(dp2446
g82
I3
ssg83
g2440
sg76
(lp2447
g984
asbasbasbag69
(g85
g71
NtRp2448
(dp2449
g74
(dp2450
sg83
g2276
sg76
(lp2451
g69
(g90
g71
NtRp2452
(dp2453
g74
(dp2454
g94
g95
ssg83
g2448
sg76
(lp2455
S'HTTP_REFERER'
p2456
asbag69
(g90
g71
NtRp2457
(dp2458
g74
(dp2459
g101
g102
ssg83
g2448
sg76
(lp2460
S':'
asbag69
(g90
g71
NtRp2461
(dp2462
g74
(dp2463
sg83
g2448
sg76
(lp2464
g69
(g70
g71
NtRp2465
(dp2466
g74
(dp2467
g82
I3
ssg83
g2461
sg76
(lp2468
g1006
asbasbasbag69
(g85
g71
NtRp2469
(dp2470
g74
(dp2471
sg83
g2276
sg76
(lp2472
g69
(g90
g71
NtRp2473
(dp2474
g74
(dp2475
g94
g95
ssg83
g2469
sg76
(lp2476
S'HTTP_USER_AGENT'
p2477
asbag69
(g90
g71
NtRp2478
(dp2479
g74
(dp2480
g101
g102
ssg83
g2469
sg76
(lp2481
S':'
asbag69
(g90
g71
NtRp2482
(dp2483
g74
(dp2484
sg83
g2469
sg76
(lp2485
g69
(g70
g71
NtRp2486
(dp2487
g74
(dp2488
g82
I3
ssg83
g2482
sg76
(lp2489
g1028
asbasbasbag69
(g85
g71
NtRp2490
(dp2491
g74
(dp2492
sg83
g2276
sg76
(lp2493
g69
(g90
g71
NtRp2494
(dp2495
g74
(dp2496
g94
g95
ssg83
g2490
sg76
(lp2497
S'PATH_INFO'
p2498
asbag69
(g90
g71
NtRp2499
(dp2500
g74
(dp2501
g101
g102
ssg83
g2490
sg76
(lp2502
S':'
asbag69
(g90
g71
NtRp2503
(dp2504
g74
(dp2505
sg83
g2490
sg76
(lp2506
g69
(g70
g71
NtRp2507
(dp2508
g74
(dp2509
g82
I3
ssg83
g2503
sg76
(lp2510
g1092
asbasbasbag69
(g85
g71
NtRp2511
(dp2512
g74
(dp2513
sg83
g2276
sg76
(lp2514
g69
(g90
g71
NtRp2515
(dp2516
g74
(dp2517
g94
g95
ssg83
g2511
sg76
(lp2518
S'QUERY_STRING'
p2519
asbag69
(g90
g71
NtRp2520
(dp2521
g74
(dp2522
g101
g102
ssg83
g2511
sg76
(lp2523
S':'
asbag69
(g90
g71
NtRp2524
(dp2525
g74
(dp2526
sg83
g2511
sg76
(lp2527
g69
(g70
g71
NtRp2528
(dp2529
g74
(dp2530
g82
I3
ssg83
g2524
sg76
(lp2531
S''
asbasbasbag69
(g85
g71
NtRp2532
(dp2533
g74
(dp2534
sg83
g2276
sg76
(lp2535
g69
(g90
g71
NtRp2536
(dp2537
g74
(dp2538
g94
g95
ssg83
g2532
sg76
(lp2539
S'REMOTE_ADDR'
p2540
asbag69
(g90
g71
NtRp2541
(dp2542
g74
(dp2543
g101
g102
ssg83
g2532
sg76
(lp2544
S':'
asbag69
(g90
g71
NtRp2545
(dp2546
g74
(dp2547
sg83
g2532
sg76
(lp2548
g69
(g70
g71
NtRp2549
(dp2550
g74
(dp2551
g82
I3
ssg83
g2545
sg76
(lp2552
g202
asbasbasbag69
(g85
g71
NtRp2553
(dp2554
g74
(dp2555
sg83
g2276
sg76
(lp2556
g69
(g90
g71
NtRp2557
(dp2558
g74
(dp2559
g94
g95
ssg83
g2553
sg76
(lp2560
S'REMOTE_PORT'
p2561
asbag69
(g90
g71
NtRp2562
(dp2563
g74
(dp2564
g101
g102
ssg83
g2553
sg76
(lp2565
S':'
asbag69
(g90
g71
NtRp2566
(dp2567
g74
(dp2568
sg83
g2553
sg76
(lp2569
g69
(g70
g71
NtRp2570
(dp2571
g74
(dp2572
g82
I3
ssg83
g2566
sg76
(lp2573
g1156
asbasbasbag69
(g85
g71
NtRp2574
(dp2575
g74
(dp2576
sg83
g2276
sg76
(lp2577
g69
(g90
g71
NtRp2578
(dp2579
g74
(dp2580
g94
g95
ssg83
g2574
sg76
(lp2581
S'REQUEST_METHOD'
p2582
asbag69
(g90
g71
NtRp2583
(dp2584
g74
(dp2585
g101
g102
ssg83
g2574
sg76
(lp2586
S':'
asbag69
(g90
g71
NtRp2587
(dp2588
g74
(dp2589
sg83
g2574
sg76
(lp2590
g69
(g70
g71
NtRp2591
(dp2592
g74
(dp2593
g82
I3
ssg83
g2587
sg76
(lp2594
g1178
asbasbasbag69
(g85
g71
NtRp2595
(dp2596
g74
(dp2597
sg83
g2276
sg76
(lp2598
g69
(g90
g71
NtRp2599
(dp2600
g74
(dp2601
g94
g95
ssg83
g2595
sg76
(lp2602
S'SCRIPT_NAME'
p2603
asbag69
(g90
g71
NtRp2604
(dp2605
g74
(dp2606
g101
g102
ssg83
g2595
sg76
(lp2607
S':'
asbag69
(g90
g71
NtRp2608
(dp2609
g74
(dp2610
sg83
g2595
sg76
(lp2611
g69
(g70
g71
NtRp2612
(dp2613
g74
(dp2614
g82
I3
ssg83
g2608
sg76
(lp2615
S''
asbasbasbag69
(g85
g71
NtRp2616
(dp2617
g74
(dp2618
sg83
g2276
sg76
(lp2619
g69
(g90
g71
NtRp2620
(dp2621
g74
(dp2622
g94
g95
ssg83
g2616
sg76
(lp2623
S'SERVER_NAME'
p2624
asbag69
(g90
g71
NtRp2625
(dp2626
g74
(dp2627
g101
g102
ssg83
g2616
sg76
(lp2628
S':'
asbag69
(g90
g71
NtRp2629
(dp2630
g74
(dp2631
sg83
g2616
sg76
(lp2632
g69
(g70
g71
NtRp2633
(dp2634
g74
(dp2635
g82
I3
ssg83
g2629
sg76
(lp2636
g1221
asbasbasbag69
(g85
g71
NtRp2637
(dp2638
g74
(dp2639
sg83
g2276
sg76
(lp2640
g69
(g90
g71
NtRp2641
(dp2642
g74
(dp2643
g94
g95
ssg83
g2637
sg76
(lp2644
S'SERVER_PORT'
p2645
asbag69
(g90
g71
NtRp2646
(dp2647
g74
(dp2648
g101
g102
ssg83
g2637
sg76
(lp2649
S':'
asbag69
(g90
g71
NtRp2650
(dp2651
g74
(dp2652
sg83
g2637
sg76
(lp2653
g69
(g70
g71
NtRp2654
(dp2655
g74
(dp2656
g82
I3
ssg83
g2650
sg76
(lp2657
g1243
asbasbasbag69
(g85
g71
NtRp2658
(dp2659
g74
(dp2660
sg83
g2276
sg76
(lp2661
g69
(g90
g71
NtRp2662
(dp2663
g74
(dp2664
g94
g95
ssg83
g2658
sg76
(lp2665
S'SERVER_PROTOCOL'
p2666
asbag69
(g90
g71
NtRp2667
(dp2668
g74
(dp2669
g101
g102
ssg83
g2658
sg76
(lp2670
S':'
asbag69
(g90
g71
NtRp2671
(dp2672
g74
(dp2673
sg83
g2658
sg76
(lp2674
g69
(g70
g71
NtRp2675
(dp2676
g74
(dp2677
g82
I3
ssg83
g2671
sg76
(lp2678
g1265
asbasbasbag69
(g85
g71
NtRp2679
(dp2680
g74
(dp2681
sg83
g2276
sg76
(lp2682
g69
(g90
g71
NtRp2683
(dp2684
g74
(dp2685
g94
g95
ssg83
g2679
sg76
(lp2686
S'SERVER_SOFTWARE'
p2687
asbag69
(g90
g71
NtRp2688
(dp2689
g74
(dp2690
g101
g102
ssg83
g2679
sg76
(lp2691
S':'
asbag69
(g90
g71
NtRp2692
(dp2693
g74
(dp2694
sg83
g2679
sg76
(lp2695
g69
(g70
g71
NtRp2696
(dp2697
g74
(dp2698
g82
I3
ssg83
g2692
sg76
(lp2699
g1287
asbasbasbag69
(g85
g71
NtRp2700
(dp2701
g74
(dp2702
sg83
g2276
sg76
(lp2703
g69
(g90
g71
NtRp2704
(dp2705
g74
(dp2706
g94
g95
ssg83
g2700
sg76
(lp2707
S'wsgi.errors'
p2708
asbag69
(g90
g71
NtRp2709
(dp2710
g74
(dp2711
g101
g102
ssg83
g2700
sg76
(lp2712
S':'
asbag69
(g90
g71
NtRp2713
(dp2714
g74
(dp2715
sg83
g2700
sg76
(lp2716
g69
(g70
g71
NtRp2717
(dp2718
g74
(dp2719
g82
I3
ssg83
g2713
sg76
(lp2720
S"<open file '<stderr>', mode 'w' at 0xb739b0d0>"
p2721
asbasbasbag69
(g85
g71
NtRp2722
(dp2723
g74
(dp2724
sg83
g2276
sg76
(lp2725
g69
(g90
g71
NtRp2726
(dp2727
g74
(dp2728
g94
g95
ssg83
g2722
sg76
(lp2729
S'wsgi.file_wrapper'
p2730
asbag69
(g90
g71
NtRp2731
(dp2732
g74
(dp2733
g101
g102
ssg83
g2722
sg76
(lp2734
S':'
asbag69
(g90
g71
NtRp2735
(dp2736
g74
(dp2737
sg83
g2722
sg76
(lp2738
g69
(g70
g71
NtRp2739
(dp2740
g74
(dp2741
g82
I3
ssg83
g2735
sg76
(lp2742
S'<class wsgiref.util.FileWrapper at 0x8c022cc>'
p2743
asbasbasbag69
(g85
g71
NtRp2744
(dp2745
g74
(dp2746
sg83
g2276
sg76
(lp2747
g69
(g90
g71
NtRp2748
(dp2749
g74
(dp2750
g94
g95
ssg83
g2744
sg76
(lp2751
S'wsgi.input'
p2752
asbag69
(g90
g71
NtRp2753
(dp2754
g74
(dp2755
g101
g102
ssg83
g2744
sg76
(lp2756
S':'
asbag69
(g90
g71
NtRp2757
(dp2758
g74
(dp2759
sg83
g2744
sg76
(lp2760
g69
(g70
g71
NtRp2761
(dp2762
g74
(dp2763
g82
I3
ssg83
g2757
sg76
(lp2764
S'<cStringIO.StringO object at 0x9285f60>'
p2765
asbasbasbag69
(g85
g71
NtRp2766
(dp2767
g74
(dp2768
sg83
g2276
sg76
(lp2769
g69
(g90
g71
NtRp2770
(dp2771
g74
(dp2772
g94
g95
ssg83
g2766
sg76
(lp2773
S'wsgi.multiprocess'
p2774
asbag69
(g90
g71
NtRp2775
(dp2776
g74
(dp2777
g101
g102
ssg83
g2766
sg76
(lp2778
S':'
asbag69
(g90
g71
NtRp2779
(dp2780
g74
(dp2781
sg83
g2766
sg76
(lp2782
g69
(g70
g71
NtRp2783
(dp2784
g74
(dp2785
g82
I3
ssg83
g2779
sg76
(lp2786
g112
asbasbasbag69
(g85
g71
NtRp2787
(dp2788
g74
(dp2789
sg83
g2276
sg76
(lp2790
g69
(g90
g71
NtRp2791
(dp2792
g74
(dp2793
g94
g95
ssg83
g2787
sg76
(lp2794
S'wsgi.multithread'
p2795
asbag69
(g90
g71
NtRp2796
(dp2797
g74
(dp2798
g101
g102
ssg83
g2787
sg76
(lp2799
S':'
asbag69
(g90
g71
NtRp2800
(dp2801
g74
(dp2802
sg83
g2787
sg76
(lp2803
g69
(g70
g71
NtRp2804
(dp2805
g74
(dp2806
g82
I3
ssg83
g2800
sg76
(lp2807
g1527
asbasbasbag69
(g85
g71
NtRp2808
(dp2809
g74
(dp2810
sg83
g2276
sg76
(lp2811
g69
(g90
g71
NtRp2812
(dp2813
g74
(dp2814
g94
g95
ssg83
g2808
sg76
(lp2815
S'wsgi.run_once'
p2816
asbag69
(g90
g71
NtRp2817
(dp2818
g74
(dp2819
g101
g102
ssg83
g2808
sg76
(lp2820
S':'
asbag69
(g90
g71
NtRp2821
(dp2822
g74
(dp2823
sg83
g2808
sg76
(lp2824
g69
(g70
g71
NtRp2825
(dp2826
g74
(dp2827
g82
I3
ssg83
g2821
sg76
(lp2828
g112
asbasbasbag69
(g85
g71
NtRp2829
(dp2830
g74
(dp2831
sg83
g2276
sg76
(lp2832
g69
(g90
g71
NtRp2833
(dp2834
g74
(dp2835
g94
g95
ssg83
g2829
sg76
(lp2836
S'wsgi.url_scheme'
p2837
asbag69
(g90
g71
NtRp2838
(dp2839
g74
(dp2840
g101
g102
ssg83
g2829
sg76
(lp2841
S':'
asbag69
(g90
g71
NtRp2842
(dp2843
g74
(dp2844
sg83
g2829
sg76
(lp2845
g69
(g70
g71
NtRp2846
(dp2847
g74
(dp2848
g82
I3
ssg83
g2842
sg76
(lp2849
g1570
asbasbasbag69
(g85
g71
NtRp2850
(dp2851
g74
(dp2852
sg83
g2276
sg76
(lp2853
g69
(g90
g71
NtRp2854
(dp2855
g74
(dp2856
g94
g95
ssg83
g2850
sg76
(lp2857
S'wsgi.version'
p2858
asbag69
(g90
g71
NtRp2859
(dp2860
g74
(dp2861
g101
g102
ssg83
g2850
sg76
(lp2862
S':'
asbag69
(g90
g71
NtRp2863
(dp2864
g74
(dp2865
sg83
g2850
sg76
(lp2866
g69
(g70
g71
NtRp2867
(dp2868
g74
(dp2869
g82
I3
ssg83
g2863
sg76
(lp2870
S'1'
asbasbasbasbasbasbasbasbasbasbasbasbasbsS'frames'
p2871
(lp2872
(dp2873
S'file'
p2874
S'/home/shaz/Documents/Development/web2py/gluon/restricted.py'
p2875
sS'dump'
p2876
(dp2877
S'code'
p2878
S'\'response.write(\\\'<!DOCTYPE html>\\\\n<html lang="en"...ite(\\\' -->\\\\n\\\\n  </body>\\\\n</html>\\\\n\\\', escape=False)\''
p2879
sS'layer'
p2880
S"'/home/shaz/Documents/Development/web2py/applications/FormalSignUp/views/default/index.html'"
p2881
sS'global compile2'
p2882
S'<function compile2>'
p2883
sS'ccode'
p2884
S'undefined'
p2885
ssS'lnum'
p2886
I203
sS'lines'
p2887
(dp2888
I198
S"    environment['__file__'] = layer"
p2889
sI199
S'    try:'
p2890
sI200
S'        if type(code) == types.CodeType:'
p2891
sI201
S'            ccode = code'
p2892
sI202
S'        else:'
p2893
sI203
S'            ccode = compile2(code,layer)'
p2894
sI204
S'        exec ccode in environment'
p2895
sI205
S'    except HTTP:'
p2896
sI206
S'        raise'
p2897
sI207
S'    except RestrictedError:'
p2898
ssS'call'
p2899
S'(code=\'response.write(\\\'<!DOCTYPE html>\\\\n<html lang="en"...ite(\\\' -->\\\\n\\\\n  </body>\\\\n</html>\\\\n\\\', escape=False)\', environment={\'A\': <class \'gluon.html.A\'>, \'Auth\': <class \'gluon.tools.Auth\'>, \'B\': <class \'gluon.html.B\'>, \'BEAUTIFY\': <class \'gluon.html.BEAUTIFY\'>, \'BODY\': <class \'gluon.html.BODY\'>, \'BR\': <class \'gluon.html.BR\'>, \'BUTTON\': <class \'gluon.html.BUTTON\'>, \'CAT\': <class \'gluon.html.CAT\'>, \'CENTER\': <class \'gluon.html.CENTER\'>, \'CLEANUP\': <class \'gluon.validators.CLEANUP\'>, ...}, layer=\'/home/shaz/Documents/Development/web2py/applications/FormalSignUp/views/default/index.html\')'
p2900
sS'func'
p2901
S'restricted'
p2902
sa(dp2903
g2874
S'/home/shaz/Documents/Development/web2py/gluon/restricted.py'
p2904
sg2876
(dp2905
S'builtincompile'
p2906
S'<built-in function compile>'
p2907
sS'code'
p2908
S'\'response.write(\\\'<!DOCTYPE html>\\\\n<html lang="en"...ite(\\\' -->\\\\n\\\\n  </body>\\\\n</html>\\\\n\\\', escape=False)\''
p2909
sS'code.rstrip'
p2910
S'<built-in method rstrip of str object>'
p2911
sS').replace'
p2912
g2885
sS'layer'
p2913
S"'/home/shaz/Documents/Development/web2py/applications/FormalSignUp/views/default/index.html'"
p2914
ssg2886
I189
sg2887
(dp2915
I192
S'    """'
p2916
sI193
S'    runs code in environment and returns the output. if an exception occurs'
p2917
sI184
S''
sI185
S'def compile2(code,layer):'
p2918
sI186
S'    """'
p2919
sI187
S"    The +'\\n' is necessary else compile fails when code ends in a comment."
p2920
sI188
S'    """'
p2921
sI189
S"    return compile(code.rstrip().replace('\\r\\n','\\n')+'\\n', layer, 'exec')"
p2922
sI190
S''
sI191
S"def restricted(code, environment=None, layer='Unknown'):"
p2923
ssg2899
S'(code=\'response.write(\\\'<!DOCTYPE html>\\\\n<html lang="en"...ite(\\\' -->\\\\n\\\\n  </body>\\\\n</html>\\\\n\\\', escape=False)\', layer=\'/home/shaz/Documents/Development/web2py/applications/FormalSignUp/views/default/index.html\')'
p2924
sg2901
S'compile2'
p2925
sasS'pyver'
p2926
S'Python 2.7.2+: /usr/bin/python'
p2927
sS'session'
p2928
g69
(g70
g71
NtRp2929
(dp2930
g74
(dp2931
sg76
(lp2932
g69
(g78
g71
NtRp2933
(dp2934
g74
(dp2935
g82
I5
ssg83
Nsg76
(lp2936
g69
(g85
g71
NtRp2937
(dp2938
g74
(dp2939
sg83
g2933
sg76
(lp2940
g69
(g90
g71
NtRp2941
(dp2942
g74
(dp2943
g94
g95
ssg83
g2937
sg76
(lp2944
S'auth'
p2945
asbag69
(g90
g71
NtRp2946
(dp2947
g74
(dp2948
g101
g102
ssg83
g2937
sg76
(lp2949
S':'
asbag69
(g90
g71
NtRp2950
(dp2951
g74
(dp2952
sg83
g2937
sg76
(lp2953
g69
(g70
g71
NtRp2954
(dp2955
g74
(dp2956
g82
I5
ssg83
g2950
sg76
(lp2957
g69
(g78
g71
NtRp2958
(dp2959
g74
(dp2960
g82
I4
ssg83
Nsg76
(lp2961
g69
(g85
g71
NtRp2962
(dp2963
g74
(dp2964
sg83
g2958
sg76
(lp2965
g69
(g90
g71
NtRp2966
(dp2967
g74
(dp2968
g94
g95
ssg83
g2962
sg76
(lp2969
S'expiration'
p2970
asbag69
(g90
g71
NtRp2971
(dp2972
g74
(dp2973
g101
g102
ssg83
g2962
sg76
(lp2974
S':'
asbag69
(g90
g71
NtRp2975
(dp2976
g74
(dp2977
sg83
g2962
sg76
(lp2978
g69
(g70
g71
NtRp2979
(dp2980
g74
(dp2981
g82
I4
ssg83
g2975
sg76
(lp2982
S'2592000'
p2983
asbasbasbag69
(g85
g71
NtRp2984
(dp2985
g74
(dp2986
sg83
g2958
sg76
(lp2987
g69
(g90
g71
NtRp2988
(dp2989
g74
(dp2990
g94
g95
ssg83
g2984
sg76
(lp2991
S'hmac_key'
p2992
asbag69
(g90
g71
NtRp2993
(dp2994
g74
(dp2995
g101
g102
ssg83
g2984
sg76
(lp2996
S':'
asbag69
(g90
g71
NtRp2997
(dp2998
g74
(dp2999
sg83
g2984
sg76
(lp3000
g69
(g70
g71
NtRp3001
(dp3002
g74
(dp3003
g82
I4
ssg83
g2997
sg76
(lp3004
S'7d605c4e-2270-496e-84f6-9b19225fcf9d'
p3005
asbasbasbag69
(g85
g71
NtRp3006
(dp3007
g74
(dp3008
sg83
g2958
sg76
(lp3009
g69
(g90
g71
NtRp3010
(dp3011
g74
(dp3012
g94
g95
ssg83
g3006
sg76
(lp3013
S'last_visit'
p3014
asbag69
(g90
g71
NtRp3015
(dp3016
g74
(dp3017
g101
g102
ssg83
g3006
sg76
(lp3018
S':'
asbag69
(g90
g71
NtRp3019
(dp3020
g74
(dp3021
sg83
g3006
sg76
(lp3022
g69
(g70
g71
NtRp3023
(dp3024
g74
(dp3025
g82
I4
ssg83
g3019
sg76
(lp3026
S'datetime.datetime(2012, 3, 2, 19, 22, 50, 962308)'
p3027
asbasbasbag69
(g85
g71
NtRp3028
(dp3029
g74
(dp3030
sg83
g2958
sg76
(lp3031
g69
(g90
g71
NtRp3032
(dp3033
g74
(dp3034
g94
g95
ssg83
g3028
sg76
(lp3035
S'remember'
p3036
asbag69
(g90
g71
NtRp3037
(dp3038
g74
(dp3039
g101
g102
ssg83
g3028
sg76
(lp3040
S':'
asbag69
(g90
g71
NtRp3041
(dp3042
g74
(dp3043
sg83
g3028
sg76
(lp3044
g69
(g70
g71
NtRp3045
(dp3046
g74
(dp3047
g82
I4
ssg83
g3041
sg76
(lp3048
g112
asbasbasbag69
(g85
g71
NtRp3049
(dp3050
g74
(dp3051
sg83
g2958
sg76
(lp3052
g69
(g90
g71
NtRp3053
(dp3054
g74
(dp3055
g94
g95
ssg83
g3049
sg76
(lp3056
S'user'
p3057
asbag69
(g90
g71
NtRp3058
(dp3059
g74
(dp3060
g101
g102
ssg83
g3049
sg76
(lp3061
S':'
asbag69
(g90
g71
NtRp3062
(dp3063
g74
(dp3064
sg83
g3049
sg76
(lp3065
g69
(g70
g71
NtRp3066
(dp3067
g74
(dp3068
g82
I4
ssg83
g3062
sg76
(lp3069
g69
(g78
g71
NtRp3070
(dp3071
g74
(dp3072
g82
I3
ssg83
Nsg76
(lp3073
g69
(g85
g71
NtRp3074
(dp3075
g74
(dp3076
sg83
g3070
sg76
(lp3077
g69
(g90
g71
NtRp3078
(dp3079
g74
(dp3080
g94
g95
ssg83
g3074
sg76
(lp3081
S'email'
p3082
asbag69
(g90
g71
NtRp3083
(dp3084
g74
(dp3085
g101
g102
ssg83
g3074
sg76
(lp3086
S':'
asbag69
(g90
g71
NtRp3087
(dp3088
g74
(dp3089
sg83
g3074
sg76
(lp3090
g69
(g70
g71
NtRp3091
(dp3092
g74
(dp3093
g82
I3
ssg83
g3087
sg76
(lp3094
S'shezad.khan@durham.ac.uk'
p3095
asbasbasbag69
(g85
g71
NtRp3096
(dp3097
g74
(dp3098
sg83
g3070
sg76
(lp3099
g69
(g90
g71
NtRp3100
(dp3101
g74
(dp3102
g94
g95
ssg83
g3096
sg76
(lp3103
S'first_name'
p3104
asbag69
(g90
g71
NtRp3105
(dp3106
g74
(dp3107
g101
g102
ssg83
g3096
sg76
(lp3108
S':'
asbag69
(g90
g71
NtRp3109
(dp3110
g74
(dp3111
sg83
g3096
sg76
(lp3112
g69
(g70
g71
NtRp3113
(dp3114
g74
(dp3115
g82
I3
ssg83
g3109
sg76
(lp3116
S'Shezad'
p3117
asbasbasbag69
(g85
g71
NtRp3118
(dp3119
g74
(dp3120
sg83
g3070
sg76
(lp3121
g69
(g90
g71
NtRp3122
(dp3123
g74
(dp3124
g94
g95
ssg83
g3118
sg76
(lp3125
S'id'
p3126
asbag69
(g90
g71
NtRp3127
(dp3128
g74
(dp3129
g101
g102
ssg83
g3118
sg76
(lp3130
S':'
asbag69
(g90
g71
NtRp3131
(dp3132
g74
(dp3133
sg83
g3118
sg76
(lp3134
g69
(g70
g71
NtRp3135
(dp3136
g74
(dp3137
g82
I3
ssg83
g3131
sg76
(lp3138
S'1'
asbasbasbag69
(g85
g71
NtRp3139
(dp3140
g74
(dp3141
sg83
g3070
sg76
(lp3142
g69
(g90
g71
NtRp3143
(dp3144
g74
(dp3145
g94
g95
ssg83
g3139
sg76
(lp3146
S'last_name'
p3147
asbag69
(g90
g71
NtRp3148
(dp3149
g74
(dp3150
g101
g102
ssg83
g3139
sg76
(lp3151
S':'
asbag69
(g90
g71
NtRp3152
(dp3153
g74
(dp3154
sg83
g3139
sg76
(lp3155
g69
(g70
g71
NtRp3156
(dp3157
g74
(dp3158
g82
I3
ssg83
g3152
sg76
(lp3159
S'Khan'
p3160
asbasbasbag69
(g85
g71
NtRp3161
(dp3162
g74
(dp3163
sg83
g3070
sg76
(lp3164
g69
(g90
g71
NtRp3165
(dp3166
g74
(dp3167
g94
g95
ssg83
g3161
sg76
(lp3168
S'password'
p3169
asbag69
(g90
g71
NtRp3170
(dp3171
g74
(dp3172
g101
g102
ssg83
g3161
sg76
(lp3173
S':'
asbag69
(g90
g71
NtRp3174
(dp3175
g74
(dp3176
sg83
g3161
sg76
(lp3177
g69
(g70
g71
NtRp3178
(dp3179
g74
(dp3180
g82
I3
ssg83
g3174
sg76
(lp3181
S'f581c052587db26a3fb3708818cf8e4b'
p3182
asbasbasbag69
(g85
g71
NtRp3183
(dp3184
g74
(dp3185
sg83
g3070
sg76
(lp3186
g69
(g90
g71
NtRp3187
(dp3188
g74
(dp3189
g94
g95
ssg83
g3183
sg76
(lp3190
S'registration_id'
p3191
asbag69
(g90
g71
NtRp3192
(dp3193
g74
(dp3194
g101
g102
ssg83
g3183
sg76
(lp3195
S':'
asbag69
(g90
g71
NtRp3196
(dp3197
g74
(dp3198
sg83
g3183
sg76
(lp3199
g69
(g70
g71
NtRp3200
(dp3201
g74
(dp3202
g82
I3
ssg83
g3196
sg76
(lp3203
S''
asbasbasbag69
(g85
g71
NtRp3204
(dp3205
g74
(dp3206
sg83
g3070
sg76
(lp3207
g69
(g90
g71
NtRp3208
(dp3209
g74
(dp3210
g94
g95
ssg83
g3204
sg76
(lp3211
S'registration_key'
p3212
asbag69
(g90
g71
NtRp3213
(dp3214
g74
(dp3215
g101
g102
ssg83
g3204
sg76
(lp3216
S':'
asbag69
(g90
g71
NtRp3217
(dp3218
g74
(dp3219
sg83
g3204
sg76
(lp3220
g69
(g70
g71
NtRp3221
(dp3222
g74
(dp3223
g82
I3
ssg83
g3217
sg76
(lp3224
S''
asbasbasbag69
(g85
g71
NtRp3225
(dp3226
g74
(dp3227
sg83
g3070
sg76
(lp3228
g69
(g90
g71
NtRp3229
(dp3230
g74
(dp3231
g94
g95
ssg83
g3225
sg76
(lp3232
S'reset_password_key'
p3233
asbag69
(g90
g71
NtRp3234
(dp3235
g74
(dp3236
g101
g102
ssg83
g3225
sg76
(lp3237
S':'
asbag69
(g90
g71
NtRp3238
(dp3239
g74
(dp3240
sg83
g3225
sg76
(lp3241
g69
(g70
g71
NtRp3242
(dp3243
g74
(dp3244
g82
I3
ssg83
g3238
sg76
(lp3245
S''
asbasbasbasbasbasbasbasbasbasbasbasbasbsS'etype'
p3246
S"<type 'exceptions.SyntaxError'>"
p3247
sS'date'
p3248
S'Fri Mar  2 19:41:13 2012'
p3249
sS'response'
p3250
g69
(g70
g71
NtRp3251
(dp3252
g74
(dp3253
sg76
(lp3254
g69
(g78
g71
NtRp3255
(dp3256
g74
(dp3257
g82
I5
ssg83
Nsg76
(lp3258
g69
(g85
g71
NtRp3259
(dp3260
g74
(dp3261
sg83
g3255
sg76
(lp3262
g69
(g90
g71
NtRp3263
(dp3264
g74
(dp3265
g94
g95
ssg83
g3259
sg76
(lp3266
g167
asbag69
(g90
g71
NtRp3267
(dp3268
g74
(dp3269
g101
g102
ssg83
g3259
sg76
(lp3270
S':'
asbag69
(g90
g71
NtRp3271
(dp3272
g74
(dp3273
sg83
g3259
sg76
(lp3274
g69
(g70
g71
NtRp3275
(dp3276
g74
(dp3277
g82
I5
ssg83
g3271
sg76
(lp3278
S'<cStringIO.StringO object at 0x9063520>'
p3279
asbasbasbag69
(g85
g71
NtRp3280
(dp3281
g74
(dp3282
sg83
g3255
sg76
(lp3283
g69
(g90
g71
NtRp3284
(dp3285
g74
(dp3286
g94
g95
ssg83
g3280
sg76
(lp3287
g233
asbag69
(g90
g71
NtRp3288
(dp3289
g74
(dp3290
g101
g102
ssg83
g3280
sg76
(lp3291
S':'
asbag69
(g90
g71
NtRp3292
(dp3293
g74
(dp3294
sg83
g3280
sg76
(lp3295
g69
(g70
g71
NtRp3296
(dp3297
g74
(dp3298
g82
I5
ssg83
g3292
sg76
(lp3299
g69
(g78
g71
NtRp3300
(dp3301
g74
(dp3302
g82
I4
ssg83
Nsg76
(lp3303
g69
(g85
g71
NtRp3304
(dp3305
g74
(dp3306
sg83
g3300
sg76
(lp3307
g69
(g90
g71
NtRp3308
(dp3309
g74
(dp3310
g94
g95
ssg83
g3304
sg76
(lp3311
S'session_id_formalsignup'
p3312
asbag69
(g90
g71
NtRp3313
(dp3314
g74
(dp3315
g101
g102
ssg83
g3304
sg76
(lp3316
S':'
asbag69
(g90
g71
NtRp3317
(dp3318
g74
(dp3319
sg83
g3304
sg76
(lp3320
g69
(g70
g71
NtRp3321
(dp3322
g74
(dp3323
g82
I4
ssg83
g3317
sg76
(lp3324
g69
(g78
g71
NtRp3325
(dp3326
g74
(dp3327
g82
I3
ssg83
Nsg76
(lp3328
g69
(g85
g71
NtRp3329
(dp3330
g74
(dp3331
sg83
g3325
sg76
(lp3332
g69
(g90
g71
NtRp3333
(dp3334
g74
(dp3335
g94
g95
ssg83
g3329
sg76
(lp3336
g283
asbag69
(g90
g71
NtRp3337
(dp3338
g74
(dp3339
g101
g102
ssg83
g3329
sg76
(lp3340
S':'
asbag69
(g90
g71
NtRp3341
(dp3342
g74
(dp3343
sg83
g3329
sg76
(lp3344
g69
(g70
g71
NtRp3345
(dp3346
g74
(dp3347
g82
I3
ssg83
g3341
sg76
(lp3348
S''
asbasbasbag69
(g85
g71
NtRp3349
(dp3350
g74
(dp3351
sg83
g3325
sg76
(lp3352
g69
(g90
g71
NtRp3353
(dp3354
g74
(dp3355
g94
g95
ssg83
g3349
sg76
(lp3356
g304
asbag69
(g90
g71
NtRp3357
(dp3358
g74
(dp3359
g101
g102
ssg83
g3349
sg76
(lp3360
S':'
asbag69
(g90
g71
NtRp3361
(dp3362
g74
(dp3363
sg83
g3349
sg76
(lp3364
g69
(g70
g71
NtRp3365
(dp3366
g74
(dp3367
g82
I3
ssg83
g3361
sg76
(lp3368
S''
asbasbasbag69
(g85
g71
NtRp3369
(dp3370
g74
(dp3371
sg83
g3325
sg76
(lp3372
g69
(g90
g71
NtRp3373
(dp3374
g74
(dp3375
g94
g95
ssg83
g3369
sg76
(lp3376
g325
asbag69
(g90
g71
NtRp3377
(dp3378
g74
(dp3379
g101
g102
ssg83
g3369
sg76
(lp3380
S':'
asbag69
(g90
g71
NtRp3381
(dp3382
g74
(dp3383
sg83
g3369
sg76
(lp3384
g69
(g70
g71
NtRp3385
(dp3386
g74
(dp3387
g82
I3
ssg83
g3381
sg76
(lp3388
S''
asbasbasbag69
(g85
g71
NtRp3389
(dp3390
g74
(dp3391
sg83
g3325
sg76
(lp3392
g69
(g90
g71
NtRp3393
(dp3394
g74
(dp3395
g94
g95
ssg83
g3389
sg76
(lp3396
g346
asbag69
(g90
g71
NtRp3397
(dp3398
g74
(dp3399
g101
g102
ssg83
g3389
sg76
(lp3400
S':'
asbag69
(g90
g71
NtRp3401
(dp3402
g74
(dp3403
sg83
g3389
sg76
(lp3404
g69
(g70
g71
NtRp3405
(dp3406
g74
(dp3407
g82
I3
ssg83
g3401
sg76
(lp3408
S''
asbasbasbag69
(g85
g71
NtRp3409
(dp3410
g74
(dp3411
sg83
g3325
sg76
(lp3412
g69
(g90
g71
NtRp3413
(dp3414
g74
(dp3415
g94
g95
ssg83
g3409
sg76
(lp3416
g367
asbag69
(g90
g71
NtRp3417
(dp3418
g74
(dp3419
g101
g102
ssg83
g3409
sg76
(lp3420
S':'
asbag69
(g90
g71
NtRp3421
(dp3422
g74
(dp3423
sg83
g3409
sg76
(lp3424
g69
(g70
g71
NtRp3425
(dp3426
g74
(dp3427
g82
I3
ssg83
g3421
sg76
(lp3428
S''
asbasbasbag69
(g85
g71
NtRp3429
(dp3430
g74
(dp3431
sg83
g3325
sg76
(lp3432
g69
(g90
g71
NtRp3433
(dp3434
g74
(dp3435
g94
g95
ssg83
g3429
sg76
(lp3436
g388
asbag69
(g90
g71
NtRp3437
(dp3438
g74
(dp3439
g101
g102
ssg83
g3429
sg76
(lp3440
S':'
asbag69
(g90
g71
NtRp3441
(dp3442
g74
(dp3443
sg83
g3429
sg76
(lp3444
g69
(g70
g71
NtRp3445
(dp3446
g74
(dp3447
g82
I3
ssg83
g3441
sg76
(lp3448
S'/'
asbasbasbag69
(g85
g71
NtRp3449
(dp3450
g74
(dp3451
sg83
g3325
sg76
(lp3452
g69
(g90
g71
NtRp3453
(dp3454
g74
(dp3455
g94
g95
ssg83
g3449
sg76
(lp3456
g409
asbag69
(g90
g71
NtRp3457
(dp3458
g74
(dp3459
g101
g102
ssg83
g3449
sg76
(lp3460
S':'
asbag69
(g90
g71
NtRp3461
(dp3462
g74
(dp3463
sg83
g3449
sg76
(lp3464
g69
(g70
g71
NtRp3465
(dp3466
g74
(dp3467
g82
I3
ssg83
g3461
sg76
(lp3468
S''
asbasbasbag69
(g85
g71
NtRp3469
(dp3470
g74
(dp3471
sg83
g3325
sg76
(lp3472
g69
(g90
g71
NtRp3473
(dp3474
g74
(dp3475
g94
g95
ssg83
g3469
sg76
(lp3476
g430
asbag69
(g90
g71
NtRp3477
(dp3478
g74
(dp3479
g101
g102
ssg83
g3469
sg76
(lp3480
S':'
asbag69
(g90
g71
NtRp3481
(dp3482
g74
(dp3483
sg83
g3469
sg76
(lp3484
g69
(g70
g71
NtRp3485
(dp3486
g74
(dp3487
g82
I3
ssg83
g3481
sg76
(lp3488
S''
asbasbasbasbasbasbasbasbasbasbasbag69
(g85
g71
NtRp3489
(dp3490
g74
(dp3491
sg83
g3255
sg76
(lp3492
g69
(g90
g71
NtRp3493
(dp3494
g74
(dp3495
g94
g95
ssg83
g3489
sg76
(lp3496
S'files'
p3497
asbag69
(g90
g71
NtRp3498
(dp3499
g74
(dp3500
g101
g102
ssg83
g3489
sg76
(lp3501
S':'
asbag69
(g90
g71
NtRp3502
(dp3503
g74
(dp3504
sg83
g3489
sg76
(lp3505
g69
(g70
g71
NtRp3506
(dp3507
g74
(dp3508
g82
I5
ssg83
g3502
sg76
(lp3509
g69
(g78
g71
NtRp3510
(dp3511
g74
(dp3512
g82
I4
ssg83
Nsg76
(lp3513
sbasbasbasbag69
(g85
g71
NtRp3514
(dp3515
g74
(dp3516
sg83
g3255
sg76
(lp3517
g69
(g90
g71
NtRp3518
(dp3519
g74
(dp3520
g94
g95
ssg83
g3514
sg76
(lp3521
S'flash'
p3522
asbag69
(g90
g71
NtRp3523
(dp3524
g74
(dp3525
g101
g102
ssg83
g3514
sg76
(lp3526
S':'
asbag69
(g90
g71
NtRp3527
(dp3528
g74
(dp3529
sg83
g3514
sg76
(lp3530
g69
(g70
g71
NtRp3531
(dp3532
g74
(dp3533
g82
I5
ssg83
g3527
sg76
(lp3534
S''
asbasbasbag69
(g85
g71
NtRp3535
(dp3536
g74
(dp3537
sg83
g3255
sg76
(lp3538
g69
(g90
g71
NtRp3539
(dp3540
g74
(dp3541
g94
g95
ssg83
g3535
sg76
(lp3542
S'generic_patterns'
p3543
asbag69
(g90
g71
NtRp3544
(dp3545
g74
(dp3546
g101
g102
ssg83
g3535
sg76
(lp3547
S':'
asbag69
(g90
g71
NtRp3548
(dp3549
g74
(dp3550
sg83
g3535
sg76
(lp3551
g69
(g70
g71
NtRp3552
(dp3553
g74
(dp3554
g82
I5
ssg83
g3548
sg76
(lp3555
g69
(g78
g71
NtRp3556
(dp3557
g74
(dp3558
g82
I4
ssg83
Nsg76
(lp3559
g69
(g85
g71
NtRp3560
(dp3561
g74
(dp3562
sg83
g3556
sg76
(lp3563
g69
(g90
g71
NtRp3564
(dp3565
g74
(dp3566
sg83
g3560
sg76
(lp3567
g69
(g70
g71
NtRp3568
(dp3569
g74
(dp3570
g82
I4
ssg83
g3564
sg76
(lp3571
S'*'
asbasbasbasbasbasbasbag69
(g85
g71
NtRp3572
(dp3573
g74
(dp3574
sg83
g3255
sg76
(lp3575
g69
(g90
g71
NtRp3576
(dp3577
g74
(dp3578
g94
g95
ssg83
g3572
sg76
(lp3579
S'headers'
p3580
asbag69
(g90
g71
NtRp3581
(dp3582
g74
(dp3583
g101
g102
ssg83
g3572
sg76
(lp3584
S':'
asbag69
(g90
g71
NtRp3585
(dp3586
g74
(dp3587
sg83
g3572
sg76
(lp3588
g69
(g70
g71
NtRp3589
(dp3590
g74
(dp3591
g82
I5
ssg83
g3585
sg76
(lp3592
g69
(g78
g71
NtRp3593
(dp3594
g74
(dp3595
g82
I4
ssg83
Nsg76
(lp3596
g69
(g85
g71
NtRp3597
(dp3598
g74
(dp3599
sg83
g3593
sg76
(lp3600
g69
(g90
g71
NtRp3601
(dp3602
g74
(dp3603
g94
g95
ssg83
g3597
sg76
(lp3604
S'Cache-Control'
p3605
asbag69
(g90
g71
NtRp3606
(dp3607
g74
(dp3608
g101
g102
ssg83
g3597
sg76
(lp3609
S':'
asbag69
(g90
g71
NtRp3610
(dp3611
g74
(dp3612
sg83
g3597
sg76
(lp3613
g69
(g70
g71
NtRp3614
(dp3615
g74
(dp3616
g82
I4
ssg83
g3610
sg76
(lp3617
S'no-store, no-cache, must-revalidate, post-check=0, pre-check=0'
p3618
asbasbasbag69
(g85
g71
NtRp3619
(dp3620
g74
(dp3621
sg83
g3593
sg76
(lp3622
g69
(g90
g71
NtRp3623
(dp3624
g74
(dp3625
g94
g95
ssg83
g3619
sg76
(lp3626
S'Content-Type'
p3627
asbag69
(g90
g71
NtRp3628
(dp3629
g74
(dp3630
g101
g102
ssg83
g3619
sg76
(lp3631
S':'
asbag69
(g90
g71
NtRp3632
(dp3633
g74
(dp3634
sg83
g3619
sg76
(lp3635
g69
(g70
g71
NtRp3636
(dp3637
g74
(dp3638
g82
I4
ssg83
g3632
sg76
(lp3639
S'text/html; charset=utf-8'
p3640
asbasbasbag69
(g85
g71
NtRp3641
(dp3642
g74
(dp3643
sg83
g3593
sg76
(lp3644
g69
(g90
g71
NtRp3645
(dp3646
g74
(dp3647
g94
g95
ssg83
g3641
sg76
(lp3648
S'Expires'
p3649
asbag69
(g90
g71
NtRp3650
(dp3651
g74
(dp3652
g101
g102
ssg83
g3641
sg76
(lp3653
S':'
asbag69
(g90
g71
NtRp3654
(dp3655
g74
(dp3656
sg83
g3641
sg76
(lp3657
g69
(g70
g71
NtRp3658
(dp3659
g74
(dp3660
g82
I4
ssg83
g3654
sg76
(lp3661
S'Fri, 02 Mar 2012 19:41:13 GMT'
p3662
asbasbasbag69
(g85
g71
NtRp3663
(dp3664
g74
(dp3665
sg83
g3593
sg76
(lp3666
g69
(g90
g71
NtRp3667
(dp3668
g74
(dp3669
g94
g95
ssg83
g3663
sg76
(lp3670
S'Pragma'
p3671
asbag69
(g90
g71
NtRp3672
(dp3673
g74
(dp3674
g101
g102
ssg83
g3663
sg76
(lp3675
S':'
asbag69
(g90
g71
NtRp3676
(dp3677
g74
(dp3678
sg83
g3663
sg76
(lp3679
g69
(g70
g71
NtRp3680
(dp3681
g74
(dp3682
g82
I4
ssg83
g3676
sg76
(lp3683
S'no-cache'
p3684
asbasbasbag69
(g85
g71
NtRp3685
(dp3686
g74
(dp3687
sg83
g3593
sg76
(lp3688
g69
(g90
g71
NtRp3689
(dp3690
g74
(dp3691
g94
g95
ssg83
g3685
sg76
(lp3692
S'X-Powered-By'
p3693
asbag69
(g90
g71
NtRp3694
(dp3695
g74
(dp3696
g101
g102
ssg83
g3685
sg76
(lp3697
S':'
asbag69
(g90
g71
NtRp3698
(dp3699
g74
(dp3700
sg83
g3685
sg76
(lp3701
g69
(g70
g71
NtRp3702
(dp3703
g74
(dp3704
g82
I4
ssg83
g3698
sg76
(lp3705
S'web2py'
p3706
asbasbasbasbasbasbasbag69
(g85
g71
NtRp3707
(dp3708
g74
(dp3709
sg83
g3255
sg76
(lp3710
g69
(g90
g71
NtRp3711
(dp3712
g74
(dp3713
g94
g95
ssg83
g3707
sg76
(lp3714
S'menu'
p3715
asbag69
(g90
g71
NtRp3716
(dp3717
g74
(dp3718
g101
g102
ssg83
g3707
sg76
(lp3719
S':'
asbag69
(g90
g71
NtRp3720
(dp3721
g74
(dp3722
sg83
g3707
sg76
(lp3723
g69
(g70
g71
NtRp3724
(dp3725
g74
(dp3726
g82
I5
ssg83
g3720
sg76
(lp3727
g69
(g78
g71
NtRp3728
(dp3729
g74
(dp3730
g82
I4
ssg83
Nsg76
(lp3731
g69
(g85
g71
NtRp3732
(dp3733
g74
(dp3734
sg83
g3728
sg76
(lp3735
g69
(g90
g71
NtRp3736
(dp3737
g74
(dp3738
sg83
g3732
sg76
(lp3739
g69
(g70
g71
NtRp3740
(dp3741
g74
(dp3742
g82
I4
ssg83
g3736
sg76
(lp3743
g69
(g78
g71
NtRp3744
(dp3745
g74
(dp3746
g82
I3
ssg83
Nsg76
(lp3747
g69
(g85
g71
NtRp3748
(dp3749
g74
(dp3750
sg83
g3744
sg76
(lp3751
g69
(g90
g71
NtRp3752
(dp3753
g74
(dp3754
sg83
g3748
sg76
(lp3755
g69
(g70
g71
NtRp3756
(dp3757
g74
(dp3758
g82
I3
ssg83
g3752
sg76
(lp3759
cgluon.languages
lazyT_unpickle
p3760
(S't\x04\x00\x00\x00Home'
tRp3761
asbasbasbag69
(g85
g71
NtRp3762
(dp3763
g74
(dp3764
sg83
g3744
sg76
(lp3765
g69
(g90
g71
NtRp3766
(dp3767
g74
(dp3768
sg83
g3762
sg76
(lp3769
g69
(g70
g71
NtRp3770
(dp3771
g74
(dp3772
g82
I3
ssg83
g3766
sg76
(lp3773
g112
asbasbasbag69
(g85
g71
NtRp3774
(dp3775
g74
(dp3776
sg83
g3744
sg76
(lp3777
g69
(g90
g71
NtRp3778
(dp3779
g74
(dp3780
sg83
g3774
sg76
(lp3781
g69
(g70
g71
NtRp3782
(dp3783
g74
(dp3784
g82
I3
ssg83
g3778
sg76
(lp3785
S'/FormalSignUp/default/index'
p3786
asbasbasbag69
(g85
g71
NtRp3787
(dp3788
g74
(dp3789
sg83
g3744
sg76
(lp3790
g69
(g90
g71
NtRp3791
(dp3792
g74
(dp3793
sg83
g3787
sg76
(lp3794
g69
(g70
g71
NtRp3795
(dp3796
g74
(dp3797
g82
I3
ssg83
g3791
sg76
(lp3798
g69
(g78
g71
NtRp3799
(dp3800
g74
(dp3801
g82
I2
ssg83
Nsg76
(lp3802
sbasbasbasbasbasbasbasbag69
(g85
g71
NtRp3803
(dp3804
g74
(dp3805
sg83
g3728
sg76
(lp3806
g69
(g90
g71
NtRp3807
(dp3808
g74
(dp3809
sg83
g3803
sg76
(lp3810
g69
(g70
g71
NtRp3811
(dp3812
g74
(dp3813
g82
I4
ssg83
g3807
sg76
(lp3814
g69
(g78
g71
NtRp3815
(dp3816
g74
(dp3817
g82
I3
ssg83
Nsg76
(lp3818
g69
(g85
g71
NtRp3819
(dp3820
g74
(dp3821
sg83
g3815
sg76
(lp3822
g69
(g90
g71
NtRp3823
(dp3824
g74
(dp3825
sg83
g3819
sg76
(lp3826
g69
(g70
g71
NtRp3827
(dp3828
g74
(dp3829
g82
I3
ssg83
g3823
sg76
(lp3830
g69
(cgluon.html
SPAN
p3831
g71
NtRp3832
(dp3833
g74
(dp3834
g94
S'color:yellow'
p3835
ssg83
Nsg76
(lp3836
g3706
asbasbasbasbag69
(g85
g71
NtRp3837
(dp3838
g74
(dp3839
sg83
g3815
sg76
(lp3840
g69
(g90
g71
NtRp3841
(dp3842
g74
(dp3843
sg83
g3837
sg76
(lp3844
g69
(g70
g71
NtRp3845
(dp3846
g74
(dp3847
g82
I3
ssg83
g3841
sg76
(lp3848
g112
asbasbasbag69
(g85
g71
NtRp3849
(dp3850
g74
(dp3851
sg83
g3815
sg76
(lp3852
g69
(g90
g71
NtRp3853
(dp3854
g74
(dp3855
sg83
g3849
sg76
(lp3856
g69
(g70
g71
NtRp3857
(dp3858
g74
(dp3859
g82
I3
ssg83
g3853
sg76
(lp3860
S'None'
p3861
asbasbasbag69
(g85
g71
NtRp3862
(dp3863
g74
(dp3864
sg83
g3815
sg76
(lp3865
g69
(g90
g71
NtRp3866
(dp3867
g74
(dp3868
sg83
g3862
sg76
(lp3869
g69
(g70
g71
NtRp3870
(dp3871
g74
(dp3872
g82
I3
ssg83
g3866
sg76
(lp3873
g69
(g78
g71
NtRp3874
(dp3875
g74
(dp3876
g82
I2
ssg83
Nsg76
(lp3877
g69
(g85
g71
NtRp3878
(dp3879
g74
(dp3880
sg83
g3874
sg76
(lp3881
g69
(g90
g71
NtRp3882
(dp3883
g74
(dp3884
sg83
g3878
sg76
(lp3885
g69
(g70
g71
NtRp3886
(dp3887
g74
(dp3888
g82
I2
ssg83
g3882
sg76
(lp3889
g69
(g78
g71
NtRp3890
(dp3891
g74
(dp3892
g82
I1
ssg83
Nsg76
(lp3893
g69
(g85
g71
NtRp3894
(dp3895
g74
(dp3896
sg83
g3890
sg76
(lp3897
g69
(g90
g71
NtRp3898
(dp3899
g74
(dp3900
sg83
g3894
sg76
(lp3901
g69
(g70
g71
NtRp3902
(dp3903
g74
(dp3904
g82
I1
ssg83
g3898
sg76
(lp3905
g3760
(S's\x08\x00\x00\x00My Sites'
tRp3906
asbasbasbag69
(g85
g71
NtRp3907
(dp3908
g74
(dp3909
sg83
g3890
sg76
(lp3910
g69
(g90
g71
NtRp3911
(dp3912
g74
(dp3913
sg83
g3907
sg76
(lp3914
g69
(g70
g71
NtRp3915
(dp3916
g74
(dp3917
g82
I1
ssg83
g3911
sg76
(lp3918
I00
asbasbasbag69
(g85
g71
NtRp3919
(dp3920
g74
(dp3921
sg83
g3890
sg76
(lp3922
g69
(g90
g71
NtRp3923
(dp3924
g74
(dp3925
sg83
g3919
sg76
(lp3926
g69
(g70
g71
NtRp3927
(dp3928
g74
(dp3929
g82
I1
ssg83
g3923
sg76
(lp3930
S'/admin/default/site'
p3931
asbasbasbasbasbasbasbag69
(g85
g71
NtRp3932
(dp3933
g74
(dp3934
sg83
g3874
sg76
(lp3935
g69
(g90
g71
NtRp3936
(dp3937
g74
(dp3938
sg83
g3932
sg76
(lp3939
g69
(g70
g71
NtRp3940
(dp3941
g74
(dp3942
g82
I2
ssg83
g3936
sg76
(lp3943
g69
(g78
g71
NtRp3944
(dp3945
g74
(dp3946
g82
I1
ssg83
Nsg76
(lp3947
g69
(g85
g71
NtRp3948
(dp3949
g74
(dp3950
sg83
g3944
sg76
(lp3951
g69
(g90
g71
NtRp3952
(dp3953
g74
(dp3954
sg83
g3948
sg76
(lp3955
g69
(g70
g71
NtRp3956
(dp3957
g74
(dp3958
g82
I1
ssg83
g3952
sg76
(lp3959
g3760
(S's\x08\x00\x00\x00This App'
tRp3960
asbasbasbag69
(g85
g71
NtRp3961
(dp3962
g74
(dp3963
sg83
g3944
sg76
(lp3964
g69
(g90
g71
NtRp3965
(dp3966
g74
(dp3967
sg83
g3961
sg76
(lp3968
g69
(g70
g71
NtRp3969
(dp3970
g74
(dp3971
g82
I1
ssg83
g3965
sg76
(lp3972
I00
asbasbasbag69
(g85
g71
NtRp3973
(dp3974
g74
(dp3975
sg83
g3944
sg76
(lp3976
g69
(g90
g71
NtRp3977
(dp3978
g74
(dp3979
sg83
g3973
sg76
(lp3980
g69
(g70
g71
NtRp3981
(dp3982
g74
(dp3983
g82
I1
ssg83
g3977
sg76
(lp3984
S'/admin/default/design/FormalSignUp'
p3985
asbasbasbag69
(g85
g71
NtRp3986
(dp3987
g74
(dp3988
sg83
g3944
sg76
(lp3989
g69
(g90
g71
NtRp3990
(dp3991
g74
(dp3992
sg83
g3986
sg76
(lp3993
g69
(g70
g71
NtRp3994
(dp3995
g74
(dp3996
g82
I1
ssg83
g3990
sg76
(lp3997
(lp3998
(g3760
(S't\n\x00\x00\x00Controller'
tRp3999
I00
S'/admin/default/edit/FormalSignUp/controllers/default.py'
tp4000
a(g3760
(S't\x04\x00\x00\x00View'
tRp4001
I00
S'/admin/default/edit/FormalSignUp/views/default/index.html'
tp4002
a(g3760
(S't\x06\x00\x00\x00Layout'
tRp4003
I00
S'/admin/default/edit/FormalSignUp/views/layout.html'
tp4004
a(g3760
(S't\n\x00\x00\x00Stylesheet'
tRp4005
I00
S'/admin/default/edit/FormalSignUp/static/css/web2py.css'
tp4006
a(g3760
(S's\x08\x00\x00\x00DB Model'
tRp4007
I00
S'/admin/default/edit/FormalSignUp/models/db.py'
tp4008
a(g3760
(S's\n\x00\x00\x00Menu Model'
tRp4009
I00
S'/admin/default/edit/FormalSignUp/models/menu.py'
tp4010
a(g3760
(S't\x08\x00\x00\x00Database'
tRp4011
I00
S'/FormalSignUp/appadmin/index'
tp4012
a(g3760
(S't\x06\x00\x00\x00Errors'
tRp4013
I00
S'/admin/default/errors/FormalSignUp'
tp4014
a(g3760
(S't\x05\x00\x00\x00About'
tRp4015
I00
S'/admin/default/about/FormalSignUp'
tp4016
aasbasbasbasbasbasbasbag69
(g85
g71
NtRp4017
(dp4018
g74
(dp4019
sg83
g3874
sg76
(lp4020
g69
(g90
g71
NtRp4021
(dp4022
g74
(dp4023
sg83
g4017
sg76
(lp4024
g69
(g70
g71
NtRp4025
(dp4026
g74
(dp4027
g82
I2
ssg83
g4021
sg76
(lp4028
g69
(g78
g71
NtRp4029
(dp4030
g74
(dp4031
g82
I1
ssg83
Nsg76
(lp4032
g69
(g85
g71
NtRp4033
(dp4034
g74
(dp4035
sg83
g4029
sg76
(lp4036
g69
(g90
g71
NtRp4037
(dp4038
g74
(dp4039
sg83
g4033
sg76
(lp4040
g69
(g70
g71
NtRp4041
(dp4042
g74
(dp4043
g82
I1
ssg83
g4037
sg76
(lp4044
S'web2py.com'
p4045
asbasbasbag69
(g85
g71
NtRp4046
(dp4047
g74
(dp4048
sg83
g4029
sg76
(lp4049
g69
(g90
g71
NtRp4050
(dp4051
g74
(dp4052
sg83
g4046
sg76
(lp4053
g69
(g70
g71
NtRp4054
(dp4055
g74
(dp4056
g82
I1
ssg83
g4050
sg76
(lp4057
I00
asbasbasbag69
(g85
g71
NtRp4058
(dp4059
g74
(dp4060
sg83
g4029
sg76
(lp4061
g69
(g90
g71
NtRp4062
(dp4063
g74
(dp4064
sg83
g4058
sg76
(lp4065
g69
(g70
g71
NtRp4066
(dp4067
g74
(dp4068
g82
I1
ssg83
g4062
sg76
(lp4069
S'http://www.web2py.com'
p4070
asbasbasbag69
(g85
g71
NtRp4071
(dp4072
g74
(dp4073
sg83
g4029
sg76
(lp4074
g69
(g90
g71
NtRp4075
(dp4076
g74
(dp4077
sg83
g4071
sg76
(lp4078
g69
(g70
g71
NtRp4079
(dp4080
g74
(dp4081
g82
I1
ssg83
g4075
sg76
(lp4082
(lp4083
(g3760
(S't\x08\x00\x00\x00Download'
tRp4084
I00
S'http://www.web2py.com/examples/default/download'
p4085
tp4086
a(g3760
(S't\x07\x00\x00\x00Support'
tRp4087
I00
S'http://www.web2py.com/examples/default/support'
p4088
tp4089
a(g3760
(S't\x04\x00\x00\x00Demo'
tRp4090
I00
S'http://web2py.com/demo_admin'
p4091
tp4092
a(g3760
(S's\x0e\x00\x00\x00Quick Examples'
tRp4093
I00
S'http://web2py.com/examples/default/examples'
p4094
tp4095
a(g3760
(S't\x03\x00\x00\x00FAQ'
tRp4096
I00
S'http://web2py.com/AlterEgo'
p4097
tp4098
a(g3760
(S't\x06\x00\x00\x00Videos'
tRp4099
I00
S'http://www.web2py.com/examples/default/videos/'
p4100
tp4101
a(g3760
(S's\x11\x00\x00\x00Free Applications'
tRp4102
I00
S'http://web2py.com/appliances'
p4103
tp4104
a(g3760
(S't\x07\x00\x00\x00Plugins'
tRp4105
I00
S'http://web2py.com/plugins'
p4106
tp4107
a(g3760
(S't\x07\x00\x00\x00Layouts'
tRp4108
I00
S'http://web2py.com/layouts'
p4109
tp4110
a(g3760
(S't\x07\x00\x00\x00Recipes'
tRp4111
I00
S'http://web2pyslices.com/'
p4112
tp4113
a(g3760
(S't\x08\x00\x00\x00Semantic'
tRp4114
I00
S'http://web2py.com/semantic'
p4115
tp4116
aasbasbasbasbasbasbasbag69
(g85
g71
NtRp4117
(dp4118
g74
(dp4119
sg83
g3874
sg76
(lp4120
g69
(g90
g71
NtRp4121
(dp4122
g74
(dp4123
sg83
g4117
sg76
(lp4124
g69
(g70
g71
NtRp4125
(dp4126
g74
(dp4127
g82
I2
ssg83
g4121
sg76
(lp4128
g69
(g78
g71
NtRp4129
(dp4130
g74
(dp4131
g82
I1
ssg83
Nsg76
(lp4132
g69
(g85
g71
NtRp4133
(dp4134
g74
(dp4135
sg83
g4129
sg76
(lp4136
g69
(g90
g71
NtRp4137
(dp4138
g74
(dp4139
sg83
g4133
sg76
(lp4140
g69
(g70
g71
NtRp4141
(dp4142
g74
(dp4143
g82
I1
ssg83
g4137
sg76
(lp4144
g3760
(S't\r\x00\x00\x00Documentation'
tRp4145
asbasbasbag69
(g85
g71
NtRp4146
(dp4147
g74
(dp4148
sg83
g4129
sg76
(lp4149
g69
(g90
g71
NtRp4150
(dp4151
g74
(dp4152
sg83
g4146
sg76
(lp4153
g69
(g70
g71
NtRp4154
(dp4155
g74
(dp4156
g82
I1
ssg83
g4150
sg76
(lp4157
I00
asbasbasbag69
(g85
g71
NtRp4158
(dp4159
g74
(dp4160
sg83
g4129
sg76
(lp4161
g69
(g90
g71
NtRp4162
(dp4163
g74
(dp4164
sg83
g4158
sg76
(lp4165
g69
(g70
g71
NtRp4166
(dp4167
g74
(dp4168
g82
I1
ssg83
g4162
sg76
(lp4169
S'http://www.web2py.com/book'
p4170
asbasbasbag69
(g85
g71
NtRp4171
(dp4172
g74
(dp4173
sg83
g4129
sg76
(lp4174
g69
(g90
g71
NtRp4175
(dp4176
g74
(dp4177
sg83
g4171
sg76
(lp4178
g69
(g70
g71
NtRp4179
(dp4180
g74
(dp4181
g82
I1
ssg83
g4175
sg76
(lp4182
(lp4183
(g3760
(S't\x07\x00\x00\x00Preface'
tRp4184
I00
S'http://www.web2py.com/book/default/chapter/00'
p4185
tp4186
a(g3760
(S't\x0c\x00\x00\x00Introduction'
tRp4187
I00
S'http://www.web2py.com/book/default/chapter/01'
p4188
tp4189
a(g3760
(S't\x06\x00\x00\x00Python'
tRp4190
I00
S'http://www.web2py.com/book/default/chapter/02'
p4191
tp4192
a(g3760
(S't\x08\x00\x00\x00Overview'
tRp4193
I00
S'http://www.web2py.com/book/default/chapter/03'
p4194
tp4195
a(g3760
(S's\x08\x00\x00\x00The Core'
tRp4196
I00
S'http://www.web2py.com/book/default/chapter/04'
p4197
tp4198
a(g3760
(S's\t\x00\x00\x00The Views'
tRp4199
I00
S'http://www.web2py.com/book/default/chapter/05'
p4200
tp4201
a(g3760
(S't\x08\x00\x00\x00Database'
tRp4202
I00
S'http://www.web2py.com/book/default/chapter/06'
p4203
tp4204
a(g3760
(S's\x14\x00\x00\x00Forms and Validators'
tRp4205
I00
S'http://www.web2py.com/book/default/chapter/07'
p4206
tp4207
a(g3760
(S's\r\x00\x00\x00Email and SMS'
tRp4208
I00
S'http://www.web2py.com/book/default/chapter/08'
p4209
tp4210
a(g3760
(S's\x0e\x00\x00\x00Access Control'
tRp4211
I00
S'http://www.web2py.com/book/default/chapter/09'
p4212
tp4213
a(g3760
(S't\x08\x00\x00\x00Services'
tRp4214
I00
S'http://www.web2py.com/book/default/chapter/10'
p4215
tp4216
a(g3760
(S's\x0c\x00\x00\x00Ajax Recipes'
tRp4217
I00
S'http://www.web2py.com/book/default/chapter/11'
p4218
tp4219
a(g3760
(S's\x16\x00\x00\x00Components and Plugins'
tRp4220
I00
S'http://www.web2py.com/book/default/chapter/12'
p4221
tp4222
a(g3760
(S's\x12\x00\x00\x00Deployment Recipes'
tRp4223
I00
S'http://www.web2py.com/book/default/chapter/13'
p4224
tp4225
a(g3760
(S's\r\x00\x00\x00Other Recipes'
tRp4226
I00
S'http://www.web2py.com/book/default/chapter/14'
p4227
tp4228
a(g3760
(S's\r\x00\x00\x00Buy this book'
tRp4229
I00
S'http://stores.lulu.com/web2py'
p4230
tp4231
aasbasbasbasbasbasbasbag69
(g85
g71
NtRp4232
(dp4233
g74
(dp4234
sg83
g3874
sg76
(lp4235
g69
(g90
g71
NtRp4236
(dp4237
g74
(dp4238
sg83
g4232
sg76
(lp4239
g69
(g70
g71
NtRp4240
(dp4241
g74
(dp4242
g82
I2
ssg83
g4236
sg76
(lp4243
g69
(g78
g71
NtRp4244
(dp4245
g74
(dp4246
g82
I1
ssg83
Nsg76
(lp4247
g69
(g85
g71
NtRp4248
(dp4249
g74
(dp4250
sg83
g4244
sg76
(lp4251
g69
(g90
g71
NtRp4252
(dp4253
g74
(dp4254
sg83
g4248
sg76
(lp4255
g69
(g70
g71
NtRp4256
(dp4257
g74
(dp4258
g82
I1
ssg83
g4252
sg76
(lp4259
g3760
(S't\t\x00\x00\x00Community'
tRp4260
asbasbasbag69
(g85
g71
NtRp4261
(dp4262
g74
(dp4263
sg83
g4244
sg76
(lp4264
g69
(g90
g71
NtRp4265
(dp4266
g74
(dp4267
sg83
g4261
sg76
(lp4268
g69
(g70
g71
NtRp4269
(dp4270
g74
(dp4271
g82
I1
ssg83
g4265
sg76
(lp4272
I00
asbasbasbag69
(g85
g71
NtRp4273
(dp4274
g74
(dp4275
sg83
g4244
sg76
(lp4276
g69
(g90
g71
NtRp4277
(dp4278
g74
(dp4279
sg83
g4273
sg76
(lp4280
g69
(g70
g71
NtRp4281
(dp4282
g74
(dp4283
g82
I1
ssg83
g4277
sg76
(lp4284
Nasbasbasbag69
(g85
g71
NtRp4285
(dp4286
g74
(dp4287
sg83
g4244
sg76
(lp4288
g69
(g90
g71
NtRp4289
(dp4290
g74
(dp4291
sg83
g4285
sg76
(lp4292
g69
(g70
g71
NtRp4293
(dp4294
g74
(dp4295
g82
I1
ssg83
g4289
sg76
(lp4296
(lp4297
(g3760
(S't\x06\x00\x00\x00Groups'
tRp4298
I00
S'http://www.web2py.com/examples/default/usergroups'
p4299
tp4300
a(g3760
(S't\x07\x00\x00\x00Twitter'
tRp4301
I00
S'http://twitter.com/web2py'
p4302
tp4303
a(g3760
(S's\t\x00\x00\x00Live Chat'
tRp4304
I00
S'http://webchat.freenode.net/?channels=web2py'
p4305
tp4306
aasbasbasbasbasbasbasbag69
(g85
g71
NtRp4307
(dp4308
g74
(dp4309
sg83
g3874
sg76
(lp4310
g69
(g90
g71
NtRp4311
(dp4312
g74
(dp4313
sg83
g4307
sg76
(lp4314
g69
(g70
g71
NtRp4315
(dp4316
g74
(dp4317
g82
I2
ssg83
g4311
sg76
(lp4318
g69
(g78
g71
NtRp4319
(dp4320
g74
(dp4321
g82
I1
ssg83
Nsg76
(lp4322
g69
(g85
g71
NtRp4323
(dp4324
g74
(dp4325
sg83
g4319
sg76
(lp4326
g69
(g90
g71
NtRp4327
(dp4328
g74
(dp4329
sg83
g4323
sg76
(lp4330
g69
(g70
g71
NtRp4331
(dp4332
g74
(dp4333
g82
I1
ssg83
g4327
sg76
(lp4334
g3760
(S't\x07\x00\x00\x00Plugins'
tRp4335
asbasbasbag69
(g85
g71
NtRp4336
(dp4337
g74
(dp4338
sg83
g4319
sg76
(lp4339
g69
(g90
g71
NtRp4340
(dp4341
g74
(dp4342
sg83
g4336
sg76
(lp4343
g69
(g70
g71
NtRp4344
(dp4345
g74
(dp4346
g82
I1
ssg83
g4340
sg76
(lp4347
I00
asbasbasbag69
(g85
g71
NtRp4348
(dp4349
g74
(dp4350
sg83
g4319
sg76
(lp4351
g69
(g90
g71
NtRp4352
(dp4353
g74
(dp4354
sg83
g4348
sg76
(lp4355
g69
(g70
g71
NtRp4356
(dp4357
g74
(dp4358
g82
I1
ssg83
g4352
sg76
(lp4359
Nasbasbasbag69
(g85
g71
NtRp4360
(dp4361
g74
(dp4362
sg83
g4319
sg76
(lp4363
g69
(g90
g71
NtRp4364
(dp4365
g74
(dp4366
sg83
g4360
sg76
(lp4367
g69
(g70
g71
NtRp4368
(dp4369
g74
(dp4370
g82
I1
ssg83
g4364
sg76
(lp4371
(lp4372
(S'plugin_wiki'
p4373
I00
S'http://web2py.com/examples/default/download'
p4374
tp4375
a(g3760
(S's\r\x00\x00\x00Other Plugins'
tRp4376
I00
g4106
tp4377
a(g3760
(S's\x0e\x00\x00\x00Layout Plugins'
tRp4378
I00
g4109
tp4379
aasbasbasbasbasbasbasbasbasbasbasbasbasbasbasbasbasbasbasbag69
(g85
g71
NtRp4380
(dp4381
g74
(dp4382
sg83
g3255
sg76
(lp4383
g69
(g90
g71
NtRp4384
(dp4385
g74
(dp4386
g94
g95
ssg83
g4380
sg76
(lp4387
S'meta'
p4388
asbag69
(g90
g71
NtRp4389
(dp4390
g74
(dp4391
g101
g102
ssg83
g4380
sg76
(lp4392
S':'
asbag69
(g90
g71
NtRp4393
(dp4394
g74
(dp4395
sg83
g4380
sg76
(lp4396
g69
(g70
g71
NtRp4397
(dp4398
g74
(dp4399
g82
I5
ssg83
g4393
sg76
(lp4400
g69
(g78
g71
NtRp4401
(dp4402
g74
(dp4403
g82
I4
ssg83
Nsg76
(lp4404
g69
(g85
g71
NtRp4405
(dp4406
g74
(dp4407
sg83
g4401
sg76
(lp4408
g69
(g90
g71
NtRp4409
(dp4410
g74
(dp4411
g94
g95
ssg83
g4405
sg76
(lp4412
S'author'
p4413
asbag69
(g90
g71
NtRp4414
(dp4415
g74
(dp4416
g101
g102
ssg83
g4405
sg76
(lp4417
S':'
asbag69
(g90
g71
NtRp4418
(dp4419
g74
(dp4420
sg83
g4405
sg76
(lp4421
g69
(g70
g71
NtRp4422
(dp4423
g74
(dp4424
g82
I4
ssg83
g4418
sg76
(lp4425
S'Your Name <you@example.com>'
p4426
asbasbasbag69
(g85
g71
NtRp4427
(dp4428
g74
(dp4429
sg83
g4401
sg76
(lp4430
g69
(g90
g71
NtRp4431
(dp4432
g74
(dp4433
g94
g95
ssg83
g4427
sg76
(lp4434
S'copyright'
p4435
asbag69
(g90
g71
NtRp4436
(dp4437
g74
(dp4438
g101
g102
ssg83
g4427
sg76
(lp4439
S':'
asbag69
(g90
g71
NtRp4440
(dp4441
g74
(dp4442
sg83
g4427
sg76
(lp4443
g69
(g70
g71
NtRp4444
(dp4445
g74
(dp4446
g82
I4
ssg83
g4440
sg76
(lp4447
S'Copyright 2011'
p4448
asbasbasbag69
(g85
g71
NtRp4449
(dp4450
g74
(dp4451
sg83
g4401
sg76
(lp4452
g69
(g90
g71
NtRp4453
(dp4454
g74
(dp4455
g94
g95
ssg83
g4449
sg76
(lp4456
S'description'
p4457
asbag69
(g90
g71
NtRp4458
(dp4459
g74
(dp4460
g101
g102
ssg83
g4449
sg76
(lp4461
S':'
asbag69
(g90
g71
NtRp4462
(dp4463
g74
(dp4464
sg83
g4449
sg76
(lp4465
g69
(g70
g71
NtRp4466
(dp4467
g74
(dp4468
g82
I4
ssg83
g4462
sg76
(lp4469
S'a cool new app'
p4470
asbasbasbag69
(g85
g71
NtRp4471
(dp4472
g74
(dp4473
sg83
g4401
sg76
(lp4474
g69
(g90
g71
NtRp4475
(dp4476
g74
(dp4477
g94
g95
ssg83
g4471
sg76
(lp4478
S'generator'
p4479
asbag69
(g90
g71
NtRp4480
(dp4481
g74
(dp4482
g101
g102
ssg83
g4471
sg76
(lp4483
S':'
asbag69
(g90
g71
NtRp4484
(dp4485
g74
(dp4486
sg83
g4471
sg76
(lp4487
g69
(g70
g71
NtRp4488
(dp4489
g74
(dp4490
g82
I4
ssg83
g4484
sg76
(lp4491
S'Web2py Web Framework'
p4492
asbasbasbag69
(g85
g71
NtRp4493
(dp4494
g74
(dp4495
sg83
g4401
sg76
(lp4496
g69
(g90
g71
NtRp4497
(dp4498
g74
(dp4499
g94
g95
ssg83
g4493
sg76
(lp4500
S'keywords'
p4501
asbag69
(g90
g71
NtRp4502
(dp4503
g74
(dp4504
g101
g102
ssg83
g4493
sg76
(lp4505
S':'
asbag69
(g90
g71
NtRp4506
(dp4507
g74
(dp4508
sg83
g4493
sg76
(lp4509
g69
(g70
g71
NtRp4510
(dp4511
g74
(dp4512
g82
I4
ssg83
g4506
sg76
(lp4513
S'web2py, python, framework'
p4514
asbasbasbasbasbasbasbag69
(g85
g71
NtRp4515
(dp4516
g74
(dp4517
sg83
g3255
sg76
(lp4518
g69
(g90
g71
NtRp4519
(dp4520
g74
(dp4521
g94
g95
ssg83
g4515
sg76
(lp4522
S'postprocessing'
p4523
asbag69
(g90
g71
NtRp4524
(dp4525
g74
(dp4526
g101
g102
ssg83
g4515
sg76
(lp4527
S':'
asbag69
(g90
g71
NtRp4528
(dp4529
g74
(dp4530
sg83
g4515
sg76
(lp4531
g69
(g70
g71
NtRp4532
(dp4533
g74
(dp4534
g82
I5
ssg83
g4528
sg76
(lp4535
g69
(g78
g71
NtRp4536
(dp4537
g74
(dp4538
g82
I4
ssg83
Nsg76
(lp4539
sbasbasbasbag69
(g85
g71
NtRp4540
(dp4541
g74
(dp4542
sg83
g3255
sg76
(lp4543
g69
(g90
g71
NtRp4544
(dp4545
g74
(dp4546
g94
g95
ssg83
g4540
sg76
(lp4547
S'session_file'
p4548
asbag69
(g90
g71
NtRp4549
(dp4550
g74
(dp4551
g101
g102
ssg83
g4540
sg76
(lp4552
S':'
asbag69
(g90
g71
NtRp4553
(dp4554
g74
(dp4555
sg83
g4540
sg76
(lp4556
g69
(g70
g71
NtRp4557
(dp4558
g74
(dp4559
g82
I5
ssg83
g4553
sg76
(lp4560
S"<open file '/home/shaz/Documents/Development/web2py/applications/FormalSignUp/sessions/127.0.0.1-bb45588d-e01d-47a9-9cb0-9a494e35cec8', mode 'rb+' at 0x8eaf8b8>"
p4561
asbasbasbag69
(g85
g71
NtRp4562
(dp4563
g74
(dp4564
sg83
g3255
sg76
(lp4565
g69
(g90
g71
NtRp4566
(dp4567
g74
(dp4568
g94
g95
ssg83
g4562
sg76
(lp4569
S'session_filename'
p4570
asbag69
(g90
g71
NtRp4571
(dp4572
g74
(dp4573
g101
g102
ssg83
g4562
sg76
(lp4574
S':'
asbag69
(g90
g71
NtRp4575
(dp4576
g74
(dp4577
sg83
g4562
sg76
(lp4578
g69
(g70
g71
NtRp4579
(dp4580
g74
(dp4581
g82
I5
ssg83
g4575
sg76
(lp4582
S'/home/shaz/Documents/Development/web2py/applications/FormalSignUp/sessions/127.0.0.1-bb45588d-e01d-47a9-9cb0-9a494e35cec8'
p4583
asbasbasbag69
(g85
g71
NtRp4584
(dp4585
g74
(dp4586
sg83
g3255
sg76
(lp4587
g69
(g90
g71
NtRp4588
(dp4589
g74
(dp4590
g94
g95
ssg83
g4584
sg76
(lp4591
S'session_id'
p4592
asbag69
(g90
g71
NtRp4593
(dp4594
g74
(dp4595
g101
g102
ssg83
g4584
sg76
(lp4596
S':'
asbag69
(g90
g71
NtRp4597
(dp4598
g74
(dp4599
sg83
g4584
sg76
(lp4600
g69
(g70
g71
NtRp4601
(dp4602
g74
(dp4603
g82
I5
ssg83
g4597
sg76
(lp4604
S'127.0.0.1-bb45588d-e01d-47a9-9cb0-9a494e35cec8'
p4605
asbasbasbag69
(g85
g71
NtRp4606
(dp4607
g74
(dp4608
sg83
g3255
sg76
(lp4609
g69
(g90
g71
NtRp4610
(dp4611
g74
(dp4612
g94
g95
ssg83
g4606
sg76
(lp4613
S'session_id_name'
p4614
asbag69
(g90
g71
NtRp4615
(dp4616
g74
(dp4617
g101
g102
ssg83
g4606
sg76
(lp4618
S':'
asbag69
(g90
g71
NtRp4619
(dp4620
g74
(dp4621
sg83
g4606
sg76
(lp4622
g69
(g70
g71
NtRp4623
(dp4624
g74
(dp4625
g82
I5
ssg83
g4619
sg76
(lp4626
g3312
asbasbasbag69
(g85
g71
NtRp4627
(dp4628
g74
(dp4629
sg83
g3255
sg76
(lp4630
g69
(g90
g71
NtRp4631
(dp4632
g74
(dp4633
g94
g95
ssg83
g4627
sg76
(lp4634
S'session_locked'
p4635
asbag69
(g90
g71
NtRp4636
(dp4637
g74
(dp4638
g101
g102
ssg83
g4627
sg76
(lp4639
S':'
asbag69
(g90
g71
NtRp4640
(dp4641
g74
(dp4642
sg83
g4627
sg76
(lp4643
g69
(g70
g71
NtRp4644
(dp4645
g74
(dp4646
g82
I5
ssg83
g4640
sg76
(lp4647
g1527
asbasbasbag69
(g85
g71
NtRp4648
(dp4649
g74
(dp4650
sg83
g3255
sg76
(lp4651
g69
(g90
g71
NtRp4652
(dp4653
g74
(dp4654
g94
g95
ssg83
g4648
sg76
(lp4655
S'session_new'
p4656
asbag69
(g90
g71
NtRp4657
(dp4658
g74
(dp4659
g101
g102
ssg83
g4648
sg76
(lp4660
S':'
asbag69
(g90
g71
NtRp4661
(dp4662
g74
(dp4663
sg83
g4648
sg76
(lp4664
g69
(g70
g71
NtRp4665
(dp4666
g74
(dp4667
g82
I5
ssg83
g4661
sg76
(lp4668
g112
asbasbasbag69
(g85
g71
NtRp4669
(dp4670
g74
(dp4671
sg83
g3255
sg76
(lp4672
g69
(g90
g71
NtRp4673
(dp4674
g74
(dp4675
g94
g95
ssg83
g4669
sg76
(lp4676
S'status'
p4677
asbag69
(g90
g71
NtRp4678
(dp4679
g74
(dp4680
g101
g102
ssg83
g4669
sg76
(lp4681
S':'
asbag69
(g90
g71
NtRp4682
(dp4683
g74
(dp4684
sg83
g4669
sg76
(lp4685
g69
(g70
g71
NtRp4686
(dp4687
g74
(dp4688
g82
I5
ssg83
g4682
sg76
(lp4689
S'200'
p4690
asbasbasbag69
(g85
g71
NtRp4691
(dp4692
g74
(dp4693
sg83
g3255
sg76
(lp4694
g69
(g90
g71
NtRp4695
(dp4696
g74
(dp4697
g94
g95
ssg83
g4691
sg76
(lp4698
S'subtitle'
p4699
asbag69
(g90
g71
NtRp4700
(dp4701
g74
(dp4702
g101
g102
ssg83
g4691
sg76
(lp4703
S':'
asbag69
(g90
g71
NtRp4704
(dp4705
g74
(dp4706
sg83
g4691
sg76
(lp4707
g69
(g70
g71
NtRp4708
(dp4709
g74
(dp4710
g82
I5
ssg83
g4704
sg76
(lp4711
g3760
(S's\r\x00\x00\x00customize me!'
tRp4712
asbasbasbag69
(g85
g71
NtRp4713
(dp4714
g74
(dp4715
sg83
g3255
sg76
(lp4716
g69
(g90
g71
NtRp4717
(dp4718
g74
(dp4719
g94
g95
ssg83
g4713
sg76
(lp4720
S'title'
p4721
asbag69
(g90
g71
NtRp4722
(dp4723
g74
(dp4724
g101
g102
ssg83
g4713
sg76
(lp4725
S':'
asbag69
(g90
g71
NtRp4726
(dp4727
g74
(dp4728
sg83
g4713
sg76
(lp4729
g69
(g70
g71
NtRp4730
(dp4731
g74
(dp4732
g82
I5
ssg83
g4726
sg76
(lp4733
S'Formalsignup'
p4734
asbasbasbag69
(g85
g71
NtRp4735
(dp4736
g74
(dp4737
sg83
g3255
sg76
(lp4738
g69
(g90
g71
NtRp4739
(dp4740
g74
(dp4741
g94
g95
ssg83
g4735
sg76
(lp4742
g2191
asbag69
(g90
g71
NtRp4743
(dp4744
g74
(dp4745
g101
g102
ssg83
g4735
sg76
(lp4746
S':'
asbag69
(g90
g71
NtRp4747
(dp4748
g74
(dp4749
sg83
g4735
sg76
(lp4750
g69
(g70
g71
NtRp4751
(dp4752
g74
(dp4753
g82
I5
ssg83
g4747
sg76
(lp4754
g2204
asbasbasbag69
(g85
g71
NtRp4755
(dp4756
g74
(dp4757
sg83
g3255
sg76
(lp4758
g69
(g90
g71
NtRp4759
(dp4760
g74
(dp4761
g94
g95
ssg83
g4755
sg76
(lp4762
S'view'
p4763
asbag69
(g90
g71
NtRp4764
(dp4765
g74
(dp4766
g101
g102
ssg83
g4755
sg76
(lp4767
S':'
asbag69
(g90
g71
NtRp4768
(dp4769
g74
(dp4770
sg83
g4755
sg76
(lp4771
g69
(g70
g71
NtRp4772
(dp4773
g74
(dp4774
g82
I5
ssg83
g4768
sg76
(lp4775
S'default/index.html'
p4776
asbasbasbasbasbsS'locals'
p4777
(dp4778
g4
S"'/home/shaz/Documents/Development/web2py/applications/FormalSignUp/views/default/index.html'"
p4779
sg6
S'\'response.write(\\\'<!DOCTYPE html>\\\\n<html lang="en"...ite(\\\' -->\\\\n\\\\n  </body>\\\\n</html>\\\\n\\\', escape=False)\''
p4780
sssS'traceback'
p4781
S'Traceback (most recent call last):\n  File "/home/shaz/Documents/Development/web2py/gluon/restricted.py", line 203, in restricted\n    ccode = compile2(code,layer)\n  File "/home/shaz/Documents/Development/web2py/gluon/restricted.py", line 189, in compile2\n    return compile(code.rstrip().replace(\'\\r\\n\',\'\\n\')+\'\\n\', layer, \'exec\')\n  File "/home/shaz/Documents/Development/web2py/applications/FormalSignUp/views/default/index.html", line 38\n    URL(\'show\', args=formal.id))\n                               ^\nSyntaxError: invalid syntax\n'
p4782
s.