(dp1
S'output'
p2
S"<type 'exceptions.NameError'> name 'user_list' is not defined"
p3
sS'layer'
p4
S'/home/shaz/Documents/Development/web2py/applications/FormalSignUp/controllers/default.py'
p5
sS'code'
p6
S'# -*- coding: utf-8 -*-\n# this file is released under public domain and you can use without limitations\n\n#########################################################################\n## This is a samples controller\n## - index is the default action of any application\n## - user is required for authentication and authorization\n## - download is for downloading files uploaded in the db (does streaming)\n## - call exposes all registered services (none by default)\n########################################################################\n\nfrom gluon.custom_import import track_changes; track_changes(True)\nimport SignUpController\n\npointer_list_for_current_signedup_formals = []\n\n@auth.requires_login()\n\ndef index():\n    """\n    example action using the internationalization operator T and flash\n    rendered by views/default/index.html or views/generic.html\n    """\n    \n    current_formal_list = db().select(db.formal.ALL)\n    \n    return dict(formals=current_formal_list)\n\ndef show():\n    formal = db(db.formal.id==request.args(0)).select().first()\n\n    previously_signed_up = db(db.user.created_by==auth.user_id).select()\n\n    currently_signed_up = db(db.signup_list.formal_id==formal).select()\n\n    temp_csp_list = []\n\n    for person in currently_signed_up:\n        temp_u = db(db.user.id==person.user_id).select()\n        temp_csp_list.append(temp_u)\n\n    return dict(formal=formal, previously_signed_up=previously_signed_up, currently_signed_up=temp_csp_list)\n\ndef add_to_list():\n    formal_id, user_id = request.args\n    check = db(db.signup_list.user_id==user_id and db.signup_list.formal_id==formal_id).select()\n    if check.__nonzero__():\n        response.flash = \'Already on the signup list you blind fool!\'\n    #    redirect(URL(\'index\'))\n    else:\n        db.signup_list.insert(user_id= user_id, formal_id=formal_id)\n        response.flash = \'Added to sign up list!\'\n    redirect(URL(\'index\'))\n    return dict()\n\ndef add_formal():\n    form = SQLFORM(db.formal)\n    if form.process().accepted:\n        response.flash = \'New formal added\'\n        signup_object = SignUpController.SignUpToFormal(db, form.vars.id) #does all the work....\n        pointer_list_for_current_signedup_formals.append(signup_object) #add it to a global list....\n        redirect(URL(\'index\'))\n    return dict(form=form)\n\ndef sign_me_up():\n    formal_id = request.args(0)\n    form = SQLFORM.factory(\n        Field(\'username\', requires=IS_NOT_EMPTY()),\n        Field(\'password\', \'password\'))\n    if form.process().accepted:\n        response.flash = \'form accepted\'\n        session.signup_username = form.vars.username\n        session.signup_password = form.vars.password\n\n        user_id = db.user.insert(email=session.signup_username, password=session.signup_password) #add user\n        db.signup_list.insert(user_id=user_id, formal_id=formal_id)\n\n    elif form.errors:\n        response.flash = \'form has errors\'\n    return dict(formal_id=formal_id, form=form)\n\ndef user():\n    """\n    exposes:\n    http://..../[app]/default/user/login\n    http://..../[app]/default/user/logout\n    http://..../[app]/default/user/register\n    http://..../[app]/default/user/profile\n    http://..../[app]/default/user/retrieve_password\n    http://..../[app]/default/user/change_password\n    use @auth.requires_login()\n        @auth.requires_membership(\'group name\')\n        @auth.requires_permission(\'read\',\'table name\',record_id)\n    to decorate functions that need access control\n    """\n    return dict(form=auth())\n\n\ndef download():\n    """\n    allows downloading of uploaded files\n    http://..../[app]/default/download/[filename]\n    """\n    return response.download(request,db)\n\n\ndef call():\n    """\n    exposes services. for example:\n    http://..../[app]/default/call/jsonrpc\n    decorate with @services.jsonrpc the functions to expose\n    supports xml, json, xmlrpc, jsonrpc, amfrpc, rss, csv\n    """\n    return service()\n\n\n@auth.requires_signature()\ndef data():\n    """\n    http://..../[app]/default/data/tables\n    http://..../[app]/default/data/create/[table]\n    http://..../[app]/default/data/read/[table]/[id]\n    http://..../[app]/default/data/update/[table]/[id]\n    http://..../[app]/default/data/delete/[table]/[id]\n    http://..../[app]/default/data/select/[table]\n    http://..../[app]/default/data/search/[table]\n    but URLs must be signed, i.e. linked with\n      A(\'table\',_href=URL(\'data/tables\',user_signature=True))\n    or with the signed load operator\n      LOAD(\'default\',\'data.load\',args=\'tables\',ajax=True,user_signature=True)\n    """\n    return dict(form=crud())\n\n\nresponse._vars=response._caller(index)\n'
p7
sS'snapshot'
p8
(dp9
S'exception'
p10
(dp11
S'__hash__'
p12
S"<method-wrapper '__hash__' of exceptions.NameError object>"
p13
sS'__setattr__'
p14
S"<method-wrapper '__setattr__' of exceptions.NameError object>"
p15
sS'__reduce_ex__'
p16
S'<built-in method __reduce_ex__ of exceptions.NameError object>'
p17
sS'__getslice__'
p18
S"<method-wrapper '__getslice__' of exceptions.NameError object>"
p19
sS'__getitem__'
p20
S"<method-wrapper '__getitem__' of exceptions.NameError object>"
p21
sS'__setstate__'
p22
S'<built-in method __setstate__ of exceptions.NameError object>'
p23
sS'__reduce__'
p24
S'<built-in method __reduce__ of exceptions.NameError object>'
p25
sS'__str__'
p26
S"<method-wrapper '__str__' of exceptions.NameError object>"
p27
sS'__format__'
p28
S'<built-in method __format__ of exceptions.NameError object>'
p29
sS'__getattribute__'
p30
S"<method-wrapper '__getattribute__' of exceptions.NameError object>"
p31
sS'__class__'
p32
S"<type 'exceptions.NameError'>"
p33
sS'__unicode__'
p34
S'<built-in method __unicode__ of exceptions.NameError object>'
p35
sS'__delattr__'
p36
S"<method-wrapper '__delattr__' of exceptions.NameError object>"
p37
sS'__subclasshook__'
p38
S'<built-in method __subclasshook__ of type object>'
p39
sS'__repr__'
p40
S"<method-wrapper '__repr__' of exceptions.NameError object>"
p41
sS'args'
p42
S'("name \'user_list\' is not defined",)'
p43
sS'__dict__'
p44
S'{}'
p45
sS'__sizeof__'
p46
S'<built-in method __sizeof__ of exceptions.NameError object>'
p47
sS'__doc__'
p48
S"'Name not found globally.'"
p49
sS'__init__'
p50
S"<method-wrapper '__init__' of exceptions.NameError object>"
p51
sS'__new__'
p52
S'<built-in method __new__ of type object>'
p53
ssS'evalue'
p54
S"name 'user_list' is not defined"
p55
sS'request'
p56
ccopy_reg
_reconstructor
p57
(cgluon.html
BEAUTIFY
p58
c__builtin__
object
p59
NtRp60
(dp61
S'attributes'
p62
(dp63
sS'components'
p64
(lp65
g57
(cgluon.html
TABLE
p66
g59
NtRp67
(dp68
g62
(dp69
S'level'
p70
I5
ssS'parent'
p71
Nsg64
(lp72
g57
(cgluon.html
TR
p73
g59
NtRp74
(dp75
g62
(dp76
sg71
g67
sg64
(lp77
g57
(cgluon.html
TD
p78
g59
NtRp79
(dp80
g62
(dp81
S'_style'
p82
S'font-weight:bold;vertical-align:top'
p83
ssg71
g74
sg64
(lp84
S'ajax'
p85
asbag57
(g78
g59
NtRp86
(dp87
g62
(dp88
S'_valign'
p89
S'top'
p90
ssg71
g74
sg64
(lp91
S':'
asbag57
(g78
g59
NtRp92
(dp93
g62
(dp94
sg71
g74
sg64
(lp95
g57
(g58
g59
NtRp96
(dp97
g62
(dp98
g70
I5
ssg71
g92
sg64
(lp99
S'False'
p100
asbasbasbag57
(g73
g59
NtRp101
(dp102
g62
(dp103
sg71
g67
sg64
(lp104
g57
(g78
g59
NtRp105
(dp106
g62
(dp107
g82
g83
ssg71
g101
sg64
(lp108
S'application'
p109
asbag57
(g78
g59
NtRp110
(dp111
g62
(dp112
g89
g90
ssg71
g101
sg64
(lp113
S':'
asbag57
(g78
g59
NtRp114
(dp115
g62
(dp116
sg71
g101
sg64
(lp117
g57
(g58
g59
NtRp118
(dp119
g62
(dp120
g70
I5
ssg71
g114
sg64
(lp121
S'FormalSignUp'
p122
asbasbasbag57
(g73
g59
NtRp123
(dp124
g62
(dp125
sg71
g67
sg64
(lp126
g57
(g78
g59
NtRp127
(dp128
g62
(dp129
g82
g83
ssg71
g123
sg64
(lp130
g42
asbag57
(g78
g59
NtRp131
(dp132
g62
(dp133
g89
g90
ssg71
g123
sg64
(lp134
S':'
asbag57
(g78
g59
NtRp135
(dp136
g62
(dp137
sg71
g123
sg64
(lp138
g57
(g58
g59
NtRp139
(dp140
g62
(dp141
g70
I5
ssg71
g135
sg64
(lp142
g57
(g66
g59
NtRp143
(dp144
g62
(dp145
g70
I4
ssg71
Nsg64
(lp146
sbasbasbasbag57
(g73
g59
NtRp147
(dp148
g62
(dp149
sg71
g67
sg64
(lp150
g57
(g78
g59
NtRp151
(dp152
g62
(dp153
g82
g83
ssg71
g147
sg64
(lp154
S'body'
p155
asbag57
(g78
g59
NtRp156
(dp157
g62
(dp158
g89
g90
ssg71
g147
sg64
(lp159
S':'
asbag57
(g78
g59
NtRp160
(dp161
g62
(dp162
sg71
g147
sg64
(lp163
g57
(g58
g59
NtRp164
(dp165
g62
(dp166
g70
I5
ssg71
g160
sg64
(lp167
S'<cStringIO.StringO object at 0x96374e0>'
p168
asbasbasbag57
(g73
g59
NtRp169
(dp170
g62
(dp171
sg71
g67
sg64
(lp172
g57
(g78
g59
NtRp173
(dp174
g62
(dp175
g82
g83
ssg71
g169
sg64
(lp176
S'client'
p177
asbag57
(g78
g59
NtRp178
(dp179
g62
(dp180
g89
g90
ssg71
g169
sg64
(lp181
S':'
asbag57
(g78
g59
NtRp182
(dp183
g62
(dp184
sg71
g169
sg64
(lp185
g57
(g58
g59
NtRp186
(dp187
g62
(dp188
g70
I5
ssg71
g182
sg64
(lp189
S'127.0.0.1'
p190
asbasbasbag57
(g73
g59
NtRp191
(dp192
g62
(dp193
sg71
g67
sg64
(lp194
g57
(g78
g59
NtRp195
(dp196
g62
(dp197
g82
g83
ssg71
g191
sg64
(lp198
S'controller'
p199
asbag57
(g78
g59
NtRp200
(dp201
g62
(dp202
g89
g90
ssg71
g191
sg64
(lp203
S':'
asbag57
(g78
g59
NtRp204
(dp205
g62
(dp206
sg71
g191
sg64
(lp207
g57
(g58
g59
NtRp208
(dp209
g62
(dp210
g70
I5
ssg71
g204
sg64
(lp211
S'default'
p212
asbasbasbag57
(g73
g59
NtRp213
(dp214
g62
(dp215
sg71
g67
sg64
(lp216
g57
(g78
g59
NtRp217
(dp218
g62
(dp219
g82
g83
ssg71
g213
sg64
(lp220
S'cookies'
p221
asbag57
(g78
g59
NtRp222
(dp223
g62
(dp224
g89
g90
ssg71
g213
sg64
(lp225
S':'
asbag57
(g78
g59
NtRp226
(dp227
g62
(dp228
sg71
g213
sg64
(lp229
g57
(g58
g59
NtRp230
(dp231
g62
(dp232
g70
I5
ssg71
g226
sg64
(lp233
g57
(g66
g59
NtRp234
(dp235
g62
(dp236
g70
I4
ssg71
Nsg64
(lp237
g57
(g73
g59
NtRp238
(dp239
g62
(dp240
sg71
g234
sg64
(lp241
g57
(g78
g59
NtRp242
(dp243
g62
(dp244
g82
g83
ssg71
g238
sg64
(lp245
S'session_id_admin'
p246
asbag57
(g78
g59
NtRp247
(dp248
g62
(dp249
g89
g90
ssg71
g238
sg64
(lp250
S':'
asbag57
(g78
g59
NtRp251
(dp252
g62
(dp253
sg71
g238
sg64
(lp254
g57
(g58
g59
NtRp255
(dp256
g62
(dp257
g70
I4
ssg71
g251
sg64
(lp258
g57
(g66
g59
NtRp259
(dp260
g62
(dp261
g70
I3
ssg71
Nsg64
(lp262
g57
(g73
g59
NtRp263
(dp264
g62
(dp265
sg71
g259
sg64
(lp266
g57
(g78
g59
NtRp267
(dp268
g62
(dp269
g82
g83
ssg71
g263
sg64
(lp270
S'comment'
p271
asbag57
(g78
g59
NtRp272
(dp273
g62
(dp274
g89
g90
ssg71
g263
sg64
(lp275
S':'
asbag57
(g78
g59
NtRp276
(dp277
g62
(dp278
sg71
g263
sg64
(lp279
g57
(g58
g59
NtRp280
(dp281
g62
(dp282
g70
I3
ssg71
g276
sg64
(lp283
S''
asbasbasbag57
(g73
g59
NtRp284
(dp285
g62
(dp286
sg71
g259
sg64
(lp287
g57
(g78
g59
NtRp288
(dp289
g62
(dp290
g82
g83
ssg71
g284
sg64
(lp291
S'domain'
p292
asbag57
(g78
g59
NtRp293
(dp294
g62
(dp295
g89
g90
ssg71
g284
sg64
(lp296
S':'
asbag57
(g78
g59
NtRp297
(dp298
g62
(dp299
sg71
g284
sg64
(lp300
g57
(g58
g59
NtRp301
(dp302
g62
(dp303
g70
I3
ssg71
g297
sg64
(lp304
S''
asbasbasbag57
(g73
g59
NtRp305
(dp306
g62
(dp307
sg71
g259
sg64
(lp308
g57
(g78
g59
NtRp309
(dp310
g62
(dp311
g82
g83
ssg71
g305
sg64
(lp312
S'expires'
p313
asbag57
(g78
g59
NtRp314
(dp315
g62
(dp316
g89
g90
ssg71
g305
sg64
(lp317
S':'
asbag57
(g78
g59
NtRp318
(dp319
g62
(dp320
sg71
g305
sg64
(lp321
g57
(g58
g59
NtRp322
(dp323
g62
(dp324
g70
I3
ssg71
g318
sg64
(lp325
S''
asbasbasbag57
(g73
g59
NtRp326
(dp327
g62
(dp328
sg71
g259
sg64
(lp329
g57
(g78
g59
NtRp330
(dp331
g62
(dp332
g82
g83
ssg71
g326
sg64
(lp333
S'httponly'
p334
asbag57
(g78
g59
NtRp335
(dp336
g62
(dp337
g89
g90
ssg71
g326
sg64
(lp338
S':'
asbag57
(g78
g59
NtRp339
(dp340
g62
(dp341
sg71
g326
sg64
(lp342
g57
(g58
g59
NtRp343
(dp344
g62
(dp345
g70
I3
ssg71
g339
sg64
(lp346
S''
asbasbasbag57
(g73
g59
NtRp347
(dp348
g62
(dp349
sg71
g259
sg64
(lp350
g57
(g78
g59
NtRp351
(dp352
g62
(dp353
g82
g83
ssg71
g347
sg64
(lp354
S'max-age'
p355
asbag57
(g78
g59
NtRp356
(dp357
g62
(dp358
g89
g90
ssg71
g347
sg64
(lp359
S':'
asbag57
(g78
g59
NtRp360
(dp361
g62
(dp362
sg71
g347
sg64
(lp363
g57
(g58
g59
NtRp364
(dp365
g62
(dp366
g70
I3
ssg71
g360
sg64
(lp367
S''
asbasbasbag57
(g73
g59
NtRp368
(dp369
g62
(dp370
sg71
g259
sg64
(lp371
g57
(g78
g59
NtRp372
(dp373
g62
(dp374
g82
g83
ssg71
g368
sg64
(lp375
S'path'
p376
asbag57
(g78
g59
NtRp377
(dp378
g62
(dp379
g89
g90
ssg71
g368
sg64
(lp380
S':'
asbag57
(g78
g59
NtRp381
(dp382
g62
(dp383
sg71
g368
sg64
(lp384
g57
(g58
g59
NtRp385
(dp386
g62
(dp387
g70
I3
ssg71
g381
sg64
(lp388
S''
asbasbasbag57
(g73
g59
NtRp389
(dp390
g62
(dp391
sg71
g259
sg64
(lp392
g57
(g78
g59
NtRp393
(dp394
g62
(dp395
g82
g83
ssg71
g389
sg64
(lp396
S'secure'
p397
asbag57
(g78
g59
NtRp398
(dp399
g62
(dp400
g89
g90
ssg71
g389
sg64
(lp401
S':'
asbag57
(g78
g59
NtRp402
(dp403
g62
(dp404
sg71
g389
sg64
(lp405
g57
(g58
g59
NtRp406
(dp407
g62
(dp408
g70
I3
ssg71
g402
sg64
(lp409
S''
asbasbasbag57
(g73
g59
NtRp410
(dp411
g62
(dp412
sg71
g259
sg64
(lp413
g57
(g78
g59
NtRp414
(dp415
g62
(dp416
g82
g83
ssg71
g410
sg64
(lp417
S'version'
p418
asbag57
(g78
g59
NtRp419
(dp420
g62
(dp421
g89
g90
ssg71
g410
sg64
(lp422
S':'
asbag57
(g78
g59
NtRp423
(dp424
g62
(dp425
sg71
g410
sg64
(lp426
g57
(g58
g59
NtRp427
(dp428
g62
(dp429
g70
I3
ssg71
g423
sg64
(lp430
S''
asbasbasbasbasbasbasbag57
(g73
g59
NtRp431
(dp432
g62
(dp433
sg71
g234
sg64
(lp434
g57
(g78
g59
NtRp435
(dp436
g62
(dp437
g82
g83
ssg71
g431
sg64
(lp438
S'session_id_formalsignup'
p439
asbag57
(g78
g59
NtRp440
(dp441
g62
(dp442
g89
g90
ssg71
g431
sg64
(lp443
S':'
asbag57
(g78
g59
NtRp444
(dp445
g62
(dp446
sg71
g431
sg64
(lp447
g57
(g58
g59
NtRp448
(dp449
g62
(dp450
g70
I4
ssg71
g444
sg64
(lp451
g57
(g66
g59
NtRp452
(dp453
g62
(dp454
g70
I3
ssg71
Nsg64
(lp455
g57
(g73
g59
NtRp456
(dp457
g62
(dp458
sg71
g452
sg64
(lp459
g57
(g78
g59
NtRp460
(dp461
g62
(dp462
g82
g83
ssg71
g456
sg64
(lp463
g271
asbag57
(g78
g59
NtRp464
(dp465
g62
(dp466
g89
g90
ssg71
g456
sg64
(lp467
S':'
asbag57
(g78
g59
NtRp468
(dp469
g62
(dp470
sg71
g456
sg64
(lp471
g57
(g58
g59
NtRp472
(dp473
g62
(dp474
g70
I3
ssg71
g468
sg64
(lp475
S''
asbasbasbag57
(g73
g59
NtRp476
(dp477
g62
(dp478
sg71
g452
sg64
(lp479
g57
(g78
g59
NtRp480
(dp481
g62
(dp482
g82
g83
ssg71
g476
sg64
(lp483
g292
asbag57
(g78
g59
NtRp484
(dp485
g62
(dp486
g89
g90
ssg71
g476
sg64
(lp487
S':'
asbag57
(g78
g59
NtRp488
(dp489
g62
(dp490
sg71
g476
sg64
(lp491
g57
(g58
g59
NtRp492
(dp493
g62
(dp494
g70
I3
ssg71
g488
sg64
(lp495
S''
asbasbasbag57
(g73
g59
NtRp496
(dp497
g62
(dp498
sg71
g452
sg64
(lp499
g57
(g78
g59
NtRp500
(dp501
g62
(dp502
g82
g83
ssg71
g496
sg64
(lp503
g313
asbag57
(g78
g59
NtRp504
(dp505
g62
(dp506
g89
g90
ssg71
g496
sg64
(lp507
S':'
asbag57
(g78
g59
NtRp508
(dp509
g62
(dp510
sg71
g496
sg64
(lp511
g57
(g58
g59
NtRp512
(dp513
g62
(dp514
g70
I3
ssg71
g508
sg64
(lp515
S''
asbasbasbag57
(g73
g59
NtRp516
(dp517
g62
(dp518
sg71
g452
sg64
(lp519
g57
(g78
g59
NtRp520
(dp521
g62
(dp522
g82
g83
ssg71
g516
sg64
(lp523
g334
asbag57
(g78
g59
NtRp524
(dp525
g62
(dp526
g89
g90
ssg71
g516
sg64
(lp527
S':'
asbag57
(g78
g59
NtRp528
(dp529
g62
(dp530
sg71
g516
sg64
(lp531
g57
(g58
g59
NtRp532
(dp533
g62
(dp534
g70
I3
ssg71
g528
sg64
(lp535
S''
asbasbasbag57
(g73
g59
NtRp536
(dp537
g62
(dp538
sg71
g452
sg64
(lp539
g57
(g78
g59
NtRp540
(dp541
g62
(dp542
g82
g83
ssg71
g536
sg64
(lp543
g355
asbag57
(g78
g59
NtRp544
(dp545
g62
(dp546
g89
g90
ssg71
g536
sg64
(lp547
S':'
asbag57
(g78
g59
NtRp548
(dp549
g62
(dp550
sg71
g536
sg64
(lp551
g57
(g58
g59
NtRp552
(dp553
g62
(dp554
g70
I3
ssg71
g548
sg64
(lp555
S''
asbasbasbag57
(g73
g59
NtRp556
(dp557
g62
(dp558
sg71
g452
sg64
(lp559
g57
(g78
g59
NtRp560
(dp561
g62
(dp562
g82
g83
ssg71
g556
sg64
(lp563
g376
asbag57
(g78
g59
NtRp564
(dp565
g62
(dp566
g89
g90
ssg71
g556
sg64
(lp567
S':'
asbag57
(g78
g59
NtRp568
(dp569
g62
(dp570
sg71
g556
sg64
(lp571
g57
(g58
g59
NtRp572
(dp573
g62
(dp574
g70
I3
ssg71
g568
sg64
(lp575
S''
asbasbasbag57
(g73
g59
NtRp576
(dp577
g62
(dp578
sg71
g452
sg64
(lp579
g57
(g78
g59
NtRp580
(dp581
g62
(dp582
g82
g83
ssg71
g576
sg64
(lp583
g397
asbag57
(g78
g59
NtRp584
(dp585
g62
(dp586
g89
g90
ssg71
g576
sg64
(lp587
S':'
asbag57
(g78
g59
NtRp588
(dp589
g62
(dp590
sg71
g576
sg64
(lp591
g57
(g58
g59
NtRp592
(dp593
g62
(dp594
g70
I3
ssg71
g588
sg64
(lp595
S''
asbasbasbag57
(g73
g59
NtRp596
(dp597
g62
(dp598
sg71
g452
sg64
(lp599
g57
(g78
g59
NtRp600
(dp601
g62
(dp602
g82
g83
ssg71
g596
sg64
(lp603
g418
asbag57
(g78
g59
NtRp604
(dp605
g62
(dp606
g89
g90
ssg71
g596
sg64
(lp607
S':'
asbag57
(g78
g59
NtRp608
(dp609
g62
(dp610
sg71
g596
sg64
(lp611
g57
(g58
g59
NtRp612
(dp613
g62
(dp614
g70
I3
ssg71
g608
sg64
(lp615
S''
asbasbasbasbasbasbasbag57
(g73
g59
NtRp616
(dp617
g62
(dp618
sg71
g234
sg64
(lp619
g57
(g78
g59
NtRp620
(dp621
g62
(dp622
g82
g83
ssg71
g616
sg64
(lp623
S'session_id_images'
p624
asbag57
(g78
g59
NtRp625
(dp626
g62
(dp627
g89
g90
ssg71
g616
sg64
(lp628
S':'
asbag57
(g78
g59
NtRp629
(dp630
g62
(dp631
sg71
g616
sg64
(lp632
g57
(g58
g59
NtRp633
(dp634
g62
(dp635
g70
I4
ssg71
g629
sg64
(lp636
g57
(g66
g59
NtRp637
(dp638
g62
(dp639
g70
I3
ssg71
Nsg64
(lp640
g57
(g73
g59
NtRp641
(dp642
g62
(dp643
sg71
g637
sg64
(lp644
g57
(g78
g59
NtRp645
(dp646
g62
(dp647
g82
g83
ssg71
g641
sg64
(lp648
g271
asbag57
(g78
g59
NtRp649
(dp650
g62
(dp651
g89
g90
ssg71
g641
sg64
(lp652
S':'
asbag57
(g78
g59
NtRp653
(dp654
g62
(dp655
sg71
g641
sg64
(lp656
g57
(g58
g59
NtRp657
(dp658
g62
(dp659
g70
I3
ssg71
g653
sg64
(lp660
S''
asbasbasbag57
(g73
g59
NtRp661
(dp662
g62
(dp663
sg71
g637
sg64
(lp664
g57
(g78
g59
NtRp665
(dp666
g62
(dp667
g82
g83
ssg71
g661
sg64
(lp668
g292
asbag57
(g78
g59
NtRp669
(dp670
g62
(dp671
g89
g90
ssg71
g661
sg64
(lp672
S':'
asbag57
(g78
g59
NtRp673
(dp674
g62
(dp675
sg71
g661
sg64
(lp676
g57
(g58
g59
NtRp677
(dp678
g62
(dp679
g70
I3
ssg71
g673
sg64
(lp680
S''
asbasbasbag57
(g73
g59
NtRp681
(dp682
g62
(dp683
sg71
g637
sg64
(lp684
g57
(g78
g59
NtRp685
(dp686
g62
(dp687
g82
g83
ssg71
g681
sg64
(lp688
g313
asbag57
(g78
g59
NtRp689
(dp690
g62
(dp691
g89
g90
ssg71
g681
sg64
(lp692
S':'
asbag57
(g78
g59
NtRp693
(dp694
g62
(dp695
sg71
g681
sg64
(lp696
g57
(g58
g59
NtRp697
(dp698
g62
(dp699
g70
I3
ssg71
g693
sg64
(lp700
S''
asbasbasbag57
(g73
g59
NtRp701
(dp702
g62
(dp703
sg71
g637
sg64
(lp704
g57
(g78
g59
NtRp705
(dp706
g62
(dp707
g82
g83
ssg71
g701
sg64
(lp708
g334
asbag57
(g78
g59
NtRp709
(dp710
g62
(dp711
g89
g90
ssg71
g701
sg64
(lp712
S':'
asbag57
(g78
g59
NtRp713
(dp714
g62
(dp715
sg71
g701
sg64
(lp716
g57
(g58
g59
NtRp717
(dp718
g62
(dp719
g70
I3
ssg71
g713
sg64
(lp720
S''
asbasbasbag57
(g73
g59
NtRp721
(dp722
g62
(dp723
sg71
g637
sg64
(lp724
g57
(g78
g59
NtRp725
(dp726
g62
(dp727
g82
g83
ssg71
g721
sg64
(lp728
g355
asbag57
(g78
g59
NtRp729
(dp730
g62
(dp731
g89
g90
ssg71
g721
sg64
(lp732
S':'
asbag57
(g78
g59
NtRp733
(dp734
g62
(dp735
sg71
g721
sg64
(lp736
g57
(g58
g59
NtRp737
(dp738
g62
(dp739
g70
I3
ssg71
g733
sg64
(lp740
S''
asbasbasbag57
(g73
g59
NtRp741
(dp742
g62
(dp743
sg71
g637
sg64
(lp744
g57
(g78
g59
NtRp745
(dp746
g62
(dp747
g82
g83
ssg71
g741
sg64
(lp748
g376
asbag57
(g78
g59
NtRp749
(dp750
g62
(dp751
g89
g90
ssg71
g741
sg64
(lp752
S':'
asbag57
(g78
g59
NtRp753
(dp754
g62
(dp755
sg71
g741
sg64
(lp756
g57
(g58
g59
NtRp757
(dp758
g62
(dp759
g70
I3
ssg71
g753
sg64
(lp760
S''
asbasbasbag57
(g73
g59
NtRp761
(dp762
g62
(dp763
sg71
g637
sg64
(lp764
g57
(g78
g59
NtRp765
(dp766
g62
(dp767
g82
g83
ssg71
g761
sg64
(lp768
g397
asbag57
(g78
g59
NtRp769
(dp770
g62
(dp771
g89
g90
ssg71
g761
sg64
(lp772
S':'
asbag57
(g78
g59
NtRp773
(dp774
g62
(dp775
sg71
g761
sg64
(lp776
g57
(g58
g59
NtRp777
(dp778
g62
(dp779
g70
I3
ssg71
g773
sg64
(lp780
S''
asbasbasbag57
(g73
g59
NtRp781
(dp782
g62
(dp783
sg71
g637
sg64
(lp784
g57
(g78
g59
NtRp785
(dp786
g62
(dp787
g82
g83
ssg71
g781
sg64
(lp788
g418
asbag57
(g78
g59
NtRp789
(dp790
g62
(dp791
g89
g90
ssg71
g781
sg64
(lp792
S':'
asbag57
(g78
g59
NtRp793
(dp794
g62
(dp795
sg71
g781
sg64
(lp796
g57
(g58
g59
NtRp797
(dp798
g62
(dp799
g70
I3
ssg71
g793
sg64
(lp800
S''
asbasbasbasbasbasbasbag57
(g73
g59
NtRp801
(dp802
g62
(dp803
sg71
g234
sg64
(lp804
g57
(g78
g59
NtRp805
(dp806
g62
(dp807
g82
g83
ssg71
g801
sg64
(lp808
S'session_id_rudesignup'
p809
asbag57
(g78
g59
NtRp810
(dp811
g62
(dp812
g89
g90
ssg71
g801
sg64
(lp813
S':'
asbag57
(g78
g59
NtRp814
(dp815
g62
(dp816
sg71
g801
sg64
(lp817
g57
(g58
g59
NtRp818
(dp819
g62
(dp820
g70
I4
ssg71
g814
sg64
(lp821
g57
(g66
g59
NtRp822
(dp823
g62
(dp824
g70
I3
ssg71
Nsg64
(lp825
g57
(g73
g59
NtRp826
(dp827
g62
(dp828
sg71
g822
sg64
(lp829
g57
(g78
g59
NtRp830
(dp831
g62
(dp832
g82
g83
ssg71
g826
sg64
(lp833
g271
asbag57
(g78
g59
NtRp834
(dp835
g62
(dp836
g89
g90
ssg71
g826
sg64
(lp837
S':'
asbag57
(g78
g59
NtRp838
(dp839
g62
(dp840
sg71
g826
sg64
(lp841
g57
(g58
g59
NtRp842
(dp843
g62
(dp844
g70
I3
ssg71
g838
sg64
(lp845
S''
asbasbasbag57
(g73
g59
NtRp846
(dp847
g62
(dp848
sg71
g822
sg64
(lp849
g57
(g78
g59
NtRp850
(dp851
g62
(dp852
g82
g83
ssg71
g846
sg64
(lp853
g292
asbag57
(g78
g59
NtRp854
(dp855
g62
(dp856
g89
g90
ssg71
g846
sg64
(lp857
S':'
asbag57
(g78
g59
NtRp858
(dp859
g62
(dp860
sg71
g846
sg64
(lp861
g57
(g58
g59
NtRp862
(dp863
g62
(dp864
g70
I3
ssg71
g858
sg64
(lp865
S''
asbasbasbag57
(g73
g59
NtRp866
(dp867
g62
(dp868
sg71
g822
sg64
(lp869
g57
(g78
g59
NtRp870
(dp871
g62
(dp872
g82
g83
ssg71
g866
sg64
(lp873
g313
asbag57
(g78
g59
NtRp874
(dp875
g62
(dp876
g89
g90
ssg71
g866
sg64
(lp877
S':'
asbag57
(g78
g59
NtRp878
(dp879
g62
(dp880
sg71
g866
sg64
(lp881
g57
(g58
g59
NtRp882
(dp883
g62
(dp884
g70
I3
ssg71
g878
sg64
(lp885
S''
asbasbasbag57
(g73
g59
NtRp886
(dp887
g62
(dp888
sg71
g822
sg64
(lp889
g57
(g78
g59
NtRp890
(dp891
g62
(dp892
g82
g83
ssg71
g886
sg64
(lp893
g334
asbag57
(g78
g59
NtRp894
(dp895
g62
(dp896
g89
g90
ssg71
g886
sg64
(lp897
S':'
asbag57
(g78
g59
NtRp898
(dp899
g62
(dp900
sg71
g886
sg64
(lp901
g57
(g58
g59
NtRp902
(dp903
g62
(dp904
g70
I3
ssg71
g898
sg64
(lp905
S''
asbasbasbag57
(g73
g59
NtRp906
(dp907
g62
(dp908
sg71
g822
sg64
(lp909
g57
(g78
g59
NtRp910
(dp911
g62
(dp912
g82
g83
ssg71
g906
sg64
(lp913
g355
asbag57
(g78
g59
NtRp914
(dp915
g62
(dp916
g89
g90
ssg71
g906
sg64
(lp917
S':'
asbag57
(g78
g59
NtRp918
(dp919
g62
(dp920
sg71
g906
sg64
(lp921
g57
(g58
g59
NtRp922
(dp923
g62
(dp924
g70
I3
ssg71
g918
sg64
(lp925
S''
asbasbasbag57
(g73
g59
NtRp926
(dp927
g62
(dp928
sg71
g822
sg64
(lp929
g57
(g78
g59
NtRp930
(dp931
g62
(dp932
g82
g83
ssg71
g926
sg64
(lp933
g376
asbag57
(g78
g59
NtRp934
(dp935
g62
(dp936
g89
g90
ssg71
g926
sg64
(lp937
S':'
asbag57
(g78
g59
NtRp938
(dp939
g62
(dp940
sg71
g926
sg64
(lp941
g57
(g58
g59
NtRp942
(dp943
g62
(dp944
g70
I3
ssg71
g938
sg64
(lp945
S''
asbasbasbag57
(g73
g59
NtRp946
(dp947
g62
(dp948
sg71
g822
sg64
(lp949
g57
(g78
g59
NtRp950
(dp951
g62
(dp952
g82
g83
ssg71
g946
sg64
(lp953
g397
asbag57
(g78
g59
NtRp954
(dp955
g62
(dp956
g89
g90
ssg71
g946
sg64
(lp957
S':'
asbag57
(g78
g59
NtRp958
(dp959
g62
(dp960
sg71
g946
sg64
(lp961
g57
(g58
g59
NtRp962
(dp963
g62
(dp964
g70
I3
ssg71
g958
sg64
(lp965
S''
asbasbasbag57
(g73
g59
NtRp966
(dp967
g62
(dp968
sg71
g822
sg64
(lp969
g57
(g78
g59
NtRp970
(dp971
g62
(dp972
g82
g83
ssg71
g966
sg64
(lp973
g418
asbag57
(g78
g59
NtRp974
(dp975
g62
(dp976
g89
g90
ssg71
g966
sg64
(lp977
S':'
asbag57
(g78
g59
NtRp978
(dp979
g62
(dp980
sg71
g966
sg64
(lp981
g57
(g58
g59
NtRp982
(dp983
g62
(dp984
g70
I3
ssg71
g978
sg64
(lp985
S''
asbasbasbasbasbasbasbag57
(g73
g59
NtRp986
(dp987
g62
(dp988
sg71
g234
sg64
(lp989
g57
(g78
g59
NtRp990
(dp991
g62
(dp992
g82
g83
ssg71
g986
sg64
(lp993
S'session_id_testapp'
p994
asbag57
(g78
g59
NtRp995
(dp996
g62
(dp997
g89
g90
ssg71
g986
sg64
(lp998
S':'
asbag57
(g78
g59
NtRp999
(dp1000
g62
(dp1001
sg71
g986
sg64
(lp1002
g57
(g58
g59
NtRp1003
(dp1004
g62
(dp1005
g70
I4
ssg71
g999
sg64
(lp1006
g57
(g66
g59
NtRp1007
(dp1008
g62
(dp1009
g70
I3
ssg71
Nsg64
(lp1010
g57
(g73
g59
NtRp1011
(dp1012
g62
(dp1013
sg71
g1007
sg64
(lp1014
g57
(g78
g59
NtRp1015
(dp1016
g62
(dp1017
g82
g83
ssg71
g1011
sg64
(lp1018
g271
asbag57
(g78
g59
NtRp1019
(dp1020
g62
(dp1021
g89
g90
ssg71
g1011
sg64
(lp1022
S':'
asbag57
(g78
g59
NtRp1023
(dp1024
g62
(dp1025
sg71
g1011
sg64
(lp1026
g57
(g58
g59
NtRp1027
(dp1028
g62
(dp1029
g70
I3
ssg71
g1023
sg64
(lp1030
S''
asbasbasbag57
(g73
g59
NtRp1031
(dp1032
g62
(dp1033
sg71
g1007
sg64
(lp1034
g57
(g78
g59
NtRp1035
(dp1036
g62
(dp1037
g82
g83
ssg71
g1031
sg64
(lp1038
g292
asbag57
(g78
g59
NtRp1039
(dp1040
g62
(dp1041
g89
g90
ssg71
g1031
sg64
(lp1042
S':'
asbag57
(g78
g59
NtRp1043
(dp1044
g62
(dp1045
sg71
g1031
sg64
(lp1046
g57
(g58
g59
NtRp1047
(dp1048
g62
(dp1049
g70
I3
ssg71
g1043
sg64
(lp1050
S''
asbasbasbag57
(g73
g59
NtRp1051
(dp1052
g62
(dp1053
sg71
g1007
sg64
(lp1054
g57
(g78
g59
NtRp1055
(dp1056
g62
(dp1057
g82
g83
ssg71
g1051
sg64
(lp1058
g313
asbag57
(g78
g59
NtRp1059
(dp1060
g62
(dp1061
g89
g90
ssg71
g1051
sg64
(lp1062
S':'
asbag57
(g78
g59
NtRp1063
(dp1064
g62
(dp1065
sg71
g1051
sg64
(lp1066
g57
(g58
g59
NtRp1067
(dp1068
g62
(dp1069
g70
I3
ssg71
g1063
sg64
(lp1070
S''
asbasbasbag57
(g73
g59
NtRp1071
(dp1072
g62
(dp1073
sg71
g1007
sg64
(lp1074
g57
(g78
g59
NtRp1075
(dp1076
g62
(dp1077
g82
g83
ssg71
g1071
sg64
(lp1078
g334
asbag57
(g78
g59
NtRp1079
(dp1080
g62
(dp1081
g89
g90
ssg71
g1071
sg64
(lp1082
S':'
asbag57
(g78
g59
NtRp1083
(dp1084
g62
(dp1085
sg71
g1071
sg64
(lp1086
g57
(g58
g59
NtRp1087
(dp1088
g62
(dp1089
g70
I3
ssg71
g1083
sg64
(lp1090
S''
asbasbasbag57
(g73
g59
NtRp1091
(dp1092
g62
(dp1093
sg71
g1007
sg64
(lp1094
g57
(g78
g59
NtRp1095
(dp1096
g62
(dp1097
g82
g83
ssg71
g1091
sg64
(lp1098
g355
asbag57
(g78
g59
NtRp1099
(dp1100
g62
(dp1101
g89
g90
ssg71
g1091
sg64
(lp1102
S':'
asbag57
(g78
g59
NtRp1103
(dp1104
g62
(dp1105
sg71
g1091
sg64
(lp1106
g57
(g58
g59
NtRp1107
(dp1108
g62
(dp1109
g70
I3
ssg71
g1103
sg64
(lp1110
S''
asbasbasbag57
(g73
g59
NtRp1111
(dp1112
g62
(dp1113
sg71
g1007
sg64
(lp1114
g57
(g78
g59
NtRp1115
(dp1116
g62
(dp1117
g82
g83
ssg71
g1111
sg64
(lp1118
g376
asbag57
(g78
g59
NtRp1119
(dp1120
g62
(dp1121
g89
g90
ssg71
g1111
sg64
(lp1122
S':'
asbag57
(g78
g59
NtRp1123
(dp1124
g62
(dp1125
sg71
g1111
sg64
(lp1126
g57
(g58
g59
NtRp1127
(dp1128
g62
(dp1129
g70
I3
ssg71
g1123
sg64
(lp1130
S''
asbasbasbag57
(g73
g59
NtRp1131
(dp1132
g62
(dp1133
sg71
g1007
sg64
(lp1134
g57
(g78
g59
NtRp1135
(dp1136
g62
(dp1137
g82
g83
ssg71
g1131
sg64
(lp1138
g397
asbag57
(g78
g59
NtRp1139
(dp1140
g62
(dp1141
g89
g90
ssg71
g1131
sg64
(lp1142
S':'
asbag57
(g78
g59
NtRp1143
(dp1144
g62
(dp1145
sg71
g1131
sg64
(lp1146
g57
(g58
g59
NtRp1147
(dp1148
g62
(dp1149
g70
I3
ssg71
g1143
sg64
(lp1150
S''
asbasbasbag57
(g73
g59
NtRp1151
(dp1152
g62
(dp1153
sg71
g1007
sg64
(lp1154
g57
(g78
g59
NtRp1155
(dp1156
g62
(dp1157
g82
g83
ssg71
g1151
sg64
(lp1158
g418
asbag57
(g78
g59
NtRp1159
(dp1160
g62
(dp1161
g89
g90
ssg71
g1151
sg64
(lp1162
S':'
asbag57
(g78
g59
NtRp1163
(dp1164
g62
(dp1165
sg71
g1151
sg64
(lp1166
g57
(g58
g59
NtRp1167
(dp1168
g62
(dp1169
g70
I3
ssg71
g1163
sg64
(lp1170
S''
asbasbasbasbasbasbasbag57
(g73
g59
NtRp1171
(dp1172
g62
(dp1173
sg71
g234
sg64
(lp1174
g57
(g78
g59
NtRp1175
(dp1176
g62
(dp1177
g82
g83
ssg71
g1171
sg64
(lp1178
S'session_id_welcome'
p1179
asbag57
(g78
g59
NtRp1180
(dp1181
g62
(dp1182
g89
g90
ssg71
g1171
sg64
(lp1183
S':'
asbag57
(g78
g59
NtRp1184
(dp1185
g62
(dp1186
sg71
g1171
sg64
(lp1187
g57
(g58
g59
NtRp1188
(dp1189
g62
(dp1190
g70
I4
ssg71
g1184
sg64
(lp1191
g57
(g66
g59
NtRp1192
(dp1193
g62
(dp1194
g70
I3
ssg71
Nsg64
(lp1195
g57
(g73
g59
NtRp1196
(dp1197
g62
(dp1198
sg71
g1192
sg64
(lp1199
g57
(g78
g59
NtRp1200
(dp1201
g62
(dp1202
g82
g83
ssg71
g1196
sg64
(lp1203
g271
asbag57
(g78
g59
NtRp1204
(dp1205
g62
(dp1206
g89
g90
ssg71
g1196
sg64
(lp1207
S':'
asbag57
(g78
g59
NtRp1208
(dp1209
g62
(dp1210
sg71
g1196
sg64
(lp1211
g57
(g58
g59
NtRp1212
(dp1213
g62
(dp1214
g70
I3
ssg71
g1208
sg64
(lp1215
S''
asbasbasbag57
(g73
g59
NtRp1216
(dp1217
g62
(dp1218
sg71
g1192
sg64
(lp1219
g57
(g78
g59
NtRp1220
(dp1221
g62
(dp1222
g82
g83
ssg71
g1216
sg64
(lp1223
g292
asbag57
(g78
g59
NtRp1224
(dp1225
g62
(dp1226
g89
g90
ssg71
g1216
sg64
(lp1227
S':'
asbag57
(g78
g59
NtRp1228
(dp1229
g62
(dp1230
sg71
g1216
sg64
(lp1231
g57
(g58
g59
NtRp1232
(dp1233
g62
(dp1234
g70
I3
ssg71
g1228
sg64
(lp1235
S''
asbasbasbag57
(g73
g59
NtRp1236
(dp1237
g62
(dp1238
sg71
g1192
sg64
(lp1239
g57
(g78
g59
NtRp1240
(dp1241
g62
(dp1242
g82
g83
ssg71
g1236
sg64
(lp1243
g313
asbag57
(g78
g59
NtRp1244
(dp1245
g62
(dp1246
g89
g90
ssg71
g1236
sg64
(lp1247
S':'
asbag57
(g78
g59
NtRp1248
(dp1249
g62
(dp1250
sg71
g1236
sg64
(lp1251
g57
(g58
g59
NtRp1252
(dp1253
g62
(dp1254
g70
I3
ssg71
g1248
sg64
(lp1255
S''
asbasbasbag57
(g73
g59
NtRp1256
(dp1257
g62
(dp1258
sg71
g1192
sg64
(lp1259
g57
(g78
g59
NtRp1260
(dp1261
g62
(dp1262
g82
g83
ssg71
g1256
sg64
(lp1263
g334
asbag57
(g78
g59
NtRp1264
(dp1265
g62
(dp1266
g89
g90
ssg71
g1256
sg64
(lp1267
S':'
asbag57
(g78
g59
NtRp1268
(dp1269
g62
(dp1270
sg71
g1256
sg64
(lp1271
g57
(g58
g59
NtRp1272
(dp1273
g62
(dp1274
g70
I3
ssg71
g1268
sg64
(lp1275
S''
asbasbasbag57
(g73
g59
NtRp1276
(dp1277
g62
(dp1278
sg71
g1192
sg64
(lp1279
g57
(g78
g59
NtRp1280
(dp1281
g62
(dp1282
g82
g83
ssg71
g1276
sg64
(lp1283
g355
asbag57
(g78
g59
NtRp1284
(dp1285
g62
(dp1286
g89
g90
ssg71
g1276
sg64
(lp1287
S':'
asbag57
(g78
g59
NtRp1288
(dp1289
g62
(dp1290
sg71
g1276
sg64
(lp1291
g57
(g58
g59
NtRp1292
(dp1293
g62
(dp1294
g70
I3
ssg71
g1288
sg64
(lp1295
S''
asbasbasbag57
(g73
g59
NtRp1296
(dp1297
g62
(dp1298
sg71
g1192
sg64
(lp1299
g57
(g78
g59
NtRp1300
(dp1301
g62
(dp1302
g82
g83
ssg71
g1296
sg64
(lp1303
g376
asbag57
(g78
g59
NtRp1304
(dp1305
g62
(dp1306
g89
g90
ssg71
g1296
sg64
(lp1307
S':'
asbag57
(g78
g59
NtRp1308
(dp1309
g62
(dp1310
sg71
g1296
sg64
(lp1311
g57
(g58
g59
NtRp1312
(dp1313
g62
(dp1314
g70
I3
ssg71
g1308
sg64
(lp1315
S''
asbasbasbag57
(g73
g59
NtRp1316
(dp1317
g62
(dp1318
sg71
g1192
sg64
(lp1319
g57
(g78
g59
NtRp1320
(dp1321
g62
(dp1322
g82
g83
ssg71
g1316
sg64
(lp1323
g397
asbag57
(g78
g59
NtRp1324
(dp1325
g62
(dp1326
g89
g90
ssg71
g1316
sg64
(lp1327
S':'
asbag57
(g78
g59
NtRp1328
(dp1329
g62
(dp1330
sg71
g1316
sg64
(lp1331
g57
(g58
g59
NtRp1332
(dp1333
g62
(dp1334
g70
I3
ssg71
g1328
sg64
(lp1335
S''
asbasbasbag57
(g73
g59
NtRp1336
(dp1337
g62
(dp1338
sg71
g1192
sg64
(lp1339
g57
(g78
g59
NtRp1340
(dp1341
g62
(dp1342
g82
g83
ssg71
g1336
sg64
(lp1343
g418
asbag57
(g78
g59
NtRp1344
(dp1345
g62
(dp1346
g89
g90
ssg71
g1336
sg64
(lp1347
S':'
asbag57
(g78
g59
NtRp1348
(dp1349
g62
(dp1350
sg71
g1336
sg64
(lp1351
g57
(g58
g59
NtRp1352
(dp1353
g62
(dp1354
g70
I3
ssg71
g1348
sg64
(lp1355
S''
asbasbasbasbasbasbasbasbasbasbasbag57
(g73
g59
NtRp1356
(dp1357
g62
(dp1358
sg71
g67
sg64
(lp1359
g57
(g78
g59
NtRp1360
(dp1361
g62
(dp1362
g82
g83
ssg71
g1356
sg64
(lp1363
S'env'
p1364
asbag57
(g78
g59
NtRp1365
(dp1366
g62
(dp1367
g89
g90
ssg71
g1356
sg64
(lp1368
S':'
asbag57
(g78
g59
NtRp1369
(dp1370
g62
(dp1371
sg71
g1356
sg64
(lp1372
g57
(g58
g59
NtRp1373
(dp1374
g62
(dp1375
g70
I5
ssg71
g1369
sg64
(lp1376
g57
(g66
g59
NtRp1377
(dp1378
g62
(dp1379
g70
I4
ssg71
Nsg64
(lp1380
g57
(g73
g59
NtRp1381
(dp1382
g62
(dp1383
sg71
g1377
sg64
(lp1384
g57
(g78
g59
NtRp1385
(dp1386
g62
(dp1387
g82
g83
ssg71
g1381
sg64
(lp1388
S'app_folders'
p1389
asbag57
(g78
g59
NtRp1390
(dp1391
g62
(dp1392
g89
g90
ssg71
g1381
sg64
(lp1393
S':'
asbag57
(g78
g59
NtRp1394
(dp1395
g62
(dp1396
sg71
g1381
sg64
(lp1397
g57
(g58
g59
NtRp1398
(dp1399
g62
(dp1400
g70
I4
ssg71
g1394
sg64
(lp1401
S"set(['/home/shaz/Documents/Development/web2py/applications/FormalSignUp/'])"
p1402
asbasbasbag57
(g73
g59
NtRp1403
(dp1404
g62
(dp1405
sg71
g1377
sg64
(lp1406
g57
(g78
g59
NtRp1407
(dp1408
g62
(dp1409
g82
g83
ssg71
g1403
sg64
(lp1410
S'applications_parent'
p1411
asbag57
(g78
g59
NtRp1412
(dp1413
g62
(dp1414
g89
g90
ssg71
g1403
sg64
(lp1415
S':'
asbag57
(g78
g59
NtRp1416
(dp1417
g62
(dp1418
sg71
g1403
sg64
(lp1419
g57
(g58
g59
NtRp1420
(dp1421
g62
(dp1422
g70
I4
ssg71
g1416
sg64
(lp1423
S'/home/shaz/Documents/Development/web2py'
p1424
asbasbasbag57
(g73
g59
NtRp1425
(dp1426
g62
(dp1427
sg71
g1377
sg64
(lp1428
g57
(g78
g59
NtRp1429
(dp1430
g62
(dp1431
g82
g83
ssg71
g1425
sg64
(lp1432
S'cmd_args'
p1433
asbag57
(g78
g59
NtRp1434
(dp1435
g62
(dp1436
g89
g90
ssg71
g1425
sg64
(lp1437
S':'
asbag57
(g78
g59
NtRp1438
(dp1439
g62
(dp1440
sg71
g1425
sg64
(lp1441
g57
(g58
g59
NtRp1442
(dp1443
g62
(dp1444
g70
I4
ssg71
g1438
sg64
(lp1445
g57
(g66
g59
NtRp1446
(dp1447
g62
(dp1448
g70
I3
ssg71
Nsg64
(lp1449
sbasbasbasbag57
(g73
g59
NtRp1450
(dp1451
g62
(dp1452
sg71
g1377
sg64
(lp1453
g57
(g78
g59
NtRp1454
(dp1455
g62
(dp1456
g82
g83
ssg71
g1450
sg64
(lp1457
S'cmd_options'
p1458
asbag57
(g78
g59
NtRp1459
(dp1460
g62
(dp1461
g89
g90
ssg71
g1450
sg64
(lp1462
S':'
asbag57
(g78
g59
NtRp1463
(dp1464
g62
(dp1465
sg71
g1450
sg64
(lp1466
g57
(g58
g59
NtRp1467
(dp1468
g62
(dp1469
g70
I4
ssg71
g1463
sg64
(lp1470
S"<Values at 0x95be9ac: {'verbose': False, 'ip': '127.0.0.1', 'shutdown_timeout': 5, 'taskbar': False, 'nocron': False, 'pid_filename': 'httpserver.pid', 'maxthreads': None, 'softcron': False, 'server_name': 'ubuntu', 'bpython': False, 'nogui': False, 'port': 8000, 'extcron': False, 'debuglevel': 30, 'test': None, 'folder': '/home/shaz/Documents/Development/web2py', 'config': '', 'import_models': False, 'winservice': '', 'shell': None, 'run': '', 'log_filename': 'httpserver.log', 'args': [''], 'socket_timeout': 1, 'ssl_ca_certificate': None, 'scheduler': None, 'profiler_filename': None, 'ssl_private_key': '', 'password': 'shaz', 'request_queue_size': 5, 'ssl_certificate': '', 'cronjob': False, 'numthreads': None, 'quiet': False, 'interfaces': None, 'minthreads': None, 'timeout': 10, 'plain': False, 'nobanner': False}>"
p1471
asbasbasbag57
(g73
g59
NtRp1472
(dp1473
g62
(dp1474
sg71
g1377
sg64
(lp1475
g57
(g78
g59
NtRp1476
(dp1477
g62
(dp1478
g82
g83
ssg71
g1472
sg64
(lp1479
S'db_sessions'
p1480
asbag57
(g78
g59
NtRp1481
(dp1482
g62
(dp1483
g89
g90
ssg71
g1472
sg64
(lp1484
S':'
asbag57
(g78
g59
NtRp1485
(dp1486
g62
(dp1487
sg71
g1472
sg64
(lp1488
g57
(g58
g59
NtRp1489
(dp1490
g62
(dp1491
g70
I4
ssg71
g1485
sg64
(lp1492
S'set([])'
p1493
asbasbasbag57
(g73
g59
NtRp1494
(dp1495
g62
(dp1496
sg71
g1377
sg64
(lp1497
g57
(g78
g59
NtRp1498
(dp1499
g62
(dp1500
g82
g83
ssg71
g1494
sg64
(lp1501
S'debugging'
p1502
asbag57
(g78
g59
NtRp1503
(dp1504
g62
(dp1505
g89
g90
ssg71
g1494
sg64
(lp1506
S':'
asbag57
(g78
g59
NtRp1507
(dp1508
g62
(dp1509
sg71
g1494
sg64
(lp1510
g57
(g58
g59
NtRp1511
(dp1512
g62
(dp1513
g70
I4
ssg71
g1507
sg64
(lp1514
g100
asbasbasbag57
(g73
g59
NtRp1515
(dp1516
g62
(dp1517
sg71
g1377
sg64
(lp1518
g57
(g78
g59
NtRp1519
(dp1520
g62
(dp1521
g82
g83
ssg71
g1515
sg64
(lp1522
S'gluon_parent'
p1523
asbag57
(g78
g59
NtRp1524
(dp1525
g62
(dp1526
g89
g90
ssg71
g1515
sg64
(lp1527
S':'
asbag57
(g78
g59
NtRp1528
(dp1529
g62
(dp1530
sg71
g1515
sg64
(lp1531
g57
(g58
g59
NtRp1532
(dp1533
g62
(dp1534
g70
I4
ssg71
g1528
sg64
(lp1535
S'/home/shaz/Documents/Development/web2py'
p1536
asbasbasbag57
(g73
g59
NtRp1537
(dp1538
g62
(dp1539
sg71
g1377
sg64
(lp1540
g57
(g78
g59
NtRp1541
(dp1542
g62
(dp1543
g82
g83
ssg71
g1537
sg64
(lp1544
S'http_accept'
p1545
asbag57
(g78
g59
NtRp1546
(dp1547
g62
(dp1548
g89
g90
ssg71
g1537
sg64
(lp1549
S':'
asbag57
(g78
g59
NtRp1550
(dp1551
g62
(dp1552
sg71
g1537
sg64
(lp1553
g57
(g58
g59
NtRp1554
(dp1555
g62
(dp1556
g70
I4
ssg71
g1550
sg64
(lp1557
S'text/html,application/xhtml+xml,application/xml;q=0.9,*/*;q=0.8'
p1558
asbasbasbag57
(g73
g59
NtRp1559
(dp1560
g62
(dp1561
sg71
g1377
sg64
(lp1562
g57
(g78
g59
NtRp1563
(dp1564
g62
(dp1565
g82
g83
ssg71
g1559
sg64
(lp1566
S'http_accept_charset'
p1567
asbag57
(g78
g59
NtRp1568
(dp1569
g62
(dp1570
g89
g90
ssg71
g1559
sg64
(lp1571
S':'
asbag57
(g78
g59
NtRp1572
(dp1573
g62
(dp1574
sg71
g1559
sg64
(lp1575
g57
(g58
g59
NtRp1576
(dp1577
g62
(dp1578
g70
I4
ssg71
g1572
sg64
(lp1579
S'ISO-8859-1,utf-8;q=0.7,*;q=0.3'
p1580
asbasbasbag57
(g73
g59
NtRp1581
(dp1582
g62
(dp1583
sg71
g1377
sg64
(lp1584
g57
(g78
g59
NtRp1585
(dp1586
g62
(dp1587
g82
g83
ssg71
g1581
sg64
(lp1588
S'http_accept_encoding'
p1589
asbag57
(g78
g59
NtRp1590
(dp1591
g62
(dp1592
g89
g90
ssg71
g1581
sg64
(lp1593
S':'
asbag57
(g78
g59
NtRp1594
(dp1595
g62
(dp1596
sg71
g1581
sg64
(lp1597
g57
(g58
g59
NtRp1598
(dp1599
g62
(dp1600
g70
I4
ssg71
g1594
sg64
(lp1601
S'gzip,deflate,sdch'
p1602
asbasbasbag57
(g73
g59
NtRp1603
(dp1604
g62
(dp1605
sg71
g1377
sg64
(lp1606
g57
(g78
g59
NtRp1607
(dp1608
g62
(dp1609
g82
g83
ssg71
g1603
sg64
(lp1610
S'http_accept_language'
p1611
asbag57
(g78
g59
NtRp1612
(dp1613
g62
(dp1614
g89
g90
ssg71
g1603
sg64
(lp1615
S':'
asbag57
(g78
g59
NtRp1616
(dp1617
g62
(dp1618
sg71
g1603
sg64
(lp1619
g57
(g58
g59
NtRp1620
(dp1621
g62
(dp1622
g70
I4
ssg71
g1616
sg64
(lp1623
S'en-GB,en-US;q=0.8,en;q=0.6'
p1624
asbasbasbag57
(g73
g59
NtRp1625
(dp1626
g62
(dp1627
sg71
g1377
sg64
(lp1628
g57
(g78
g59
NtRp1629
(dp1630
g62
(dp1631
g82
g83
ssg71
g1625
sg64
(lp1632
S'http_cache_control'
p1633
asbag57
(g78
g59
NtRp1634
(dp1635
g62
(dp1636
g89
g90
ssg71
g1625
sg64
(lp1637
S':'
asbag57
(g78
g59
NtRp1638
(dp1639
g62
(dp1640
sg71
g1625
sg64
(lp1641
g57
(g58
g59
NtRp1642
(dp1643
g62
(dp1644
g70
I4
ssg71
g1638
sg64
(lp1645
S'max-age=0'
p1646
asbasbasbag57
(g73
g59
NtRp1647
(dp1648
g62
(dp1649
sg71
g1377
sg64
(lp1650
g57
(g78
g59
NtRp1651
(dp1652
g62
(dp1653
g82
g83
ssg71
g1647
sg64
(lp1654
S'http_connection'
p1655
asbag57
(g78
g59
NtRp1656
(dp1657
g62
(dp1658
g89
g90
ssg71
g1647
sg64
(lp1659
S':'
asbag57
(g78
g59
NtRp1660
(dp1661
g62
(dp1662
sg71
g1647
sg64
(lp1663
g57
(g58
g59
NtRp1664
(dp1665
g62
(dp1666
g70
I4
ssg71
g1660
sg64
(lp1667
S'keep-alive'
p1668
asbasbasbag57
(g73
g59
NtRp1669
(dp1670
g62
(dp1671
sg71
g1377
sg64
(lp1672
g57
(g78
g59
NtRp1673
(dp1674
g62
(dp1675
g82
g83
ssg71
g1669
sg64
(lp1676
S'http_cookie'
p1677
asbag57
(g78
g59
NtRp1678
(dp1679
g62
(dp1680
g89
g90
ssg71
g1669
sg64
(lp1681
S':'
asbag57
(g78
g59
NtRp1682
(dp1683
g62
(dp1684
sg71
g1669
sg64
(lp1685
g57
(g58
g59
NtRp1686
(dp1687
g62
(dp1688
g70
I4
ssg71
g1682
sg64
(lp1689
S'session_id_testapp=127.0.0.1-aa5a721c-20cc-4b35-a083-2efb6e806743; session_id_rudesignup=127.0.0.1-60f7ec6d-3a4f-44d0-a23c-a8aecd0052c0; session_id_images=127.0.0.1-204a1593-b299-4c4c-8182-0fdacc09a47d; session_id_formalsignup=127.0.0.1-bcf52975-051f-4e10-8957-74bbb96e4c8c; session_id_welcome=127.0.0.1-06a0e5c2-10f4-4ba1-9d5b-c651a00da366; session_id_admin=127.0.0.1-e7dbe846-48c0-45b5-bc3e-3d1acecd2192'
p1690
asbasbasbag57
(g73
g59
NtRp1691
(dp1692
g62
(dp1693
sg71
g1377
sg64
(lp1694
g57
(g78
g59
NtRp1695
(dp1696
g62
(dp1697
g82
g83
ssg71
g1691
sg64
(lp1698
S'http_host'
p1699
asbag57
(g78
g59
NtRp1700
(dp1701
g62
(dp1702
g89
g90
ssg71
g1691
sg64
(lp1703
S':'
asbag57
(g78
g59
NtRp1704
(dp1705
g62
(dp1706
sg71
g1691
sg64
(lp1707
g57
(g58
g59
NtRp1708
(dp1709
g62
(dp1710
g70
I4
ssg71
g1704
sg64
(lp1711
S'127.0.0.1:8000'
p1712
asbasbasbag57
(g73
g59
NtRp1713
(dp1714
g62
(dp1715
sg71
g1377
sg64
(lp1716
g57
(g78
g59
NtRp1717
(dp1718
g62
(dp1719
g82
g83
ssg71
g1713
sg64
(lp1720
S'http_user_agent'
p1721
asbag57
(g78
g59
NtRp1722
(dp1723
g62
(dp1724
g89
g90
ssg71
g1713
sg64
(lp1725
S':'
asbag57
(g78
g59
NtRp1726
(dp1727
g62
(dp1728
sg71
g1713
sg64
(lp1729
g57
(g58
g59
NtRp1730
(dp1731
g62
(dp1732
g70
I4
ssg71
g1726
sg64
(lp1733
S'Mozilla/5.0 (X11; Linux i686) AppleWebKit/535.11 (KHTML, like Gecko) Chrome/17.0.963.56 Safari/535.11'
p1734
asbasbasbag57
(g73
g59
NtRp1735
(dp1736
g62
(dp1737
sg71
g1377
sg64
(lp1738
g57
(g78
g59
NtRp1739
(dp1740
g62
(dp1741
g82
g83
ssg71
g1735
sg64
(lp1742
S'is_jython'
p1743
asbag57
(g78
g59
NtRp1744
(dp1745
g62
(dp1746
g89
g90
ssg71
g1735
sg64
(lp1747
S':'
asbag57
(g78
g59
NtRp1748
(dp1749
g62
(dp1750
sg71
g1735
sg64
(lp1751
g57
(g58
g59
NtRp1752
(dp1753
g62
(dp1754
g70
I4
ssg71
g1748
sg64
(lp1755
g100
asbasbasbag57
(g73
g59
NtRp1756
(dp1757
g62
(dp1758
sg71
g1377
sg64
(lp1759
g57
(g78
g59
NtRp1760
(dp1761
g62
(dp1762
g82
g83
ssg71
g1756
sg64
(lp1763
S'is_pypy'
p1764
asbag57
(g78
g59
NtRp1765
(dp1766
g62
(dp1767
g89
g90
ssg71
g1756
sg64
(lp1768
S':'
asbag57
(g78
g59
NtRp1769
(dp1770
g62
(dp1771
sg71
g1756
sg64
(lp1772
g57
(g58
g59
NtRp1773
(dp1774
g62
(dp1775
g70
I4
ssg71
g1769
sg64
(lp1776
g100
asbasbasbag57
(g73
g59
NtRp1777
(dp1778
g62
(dp1779
sg71
g1377
sg64
(lp1780
g57
(g78
g59
NtRp1781
(dp1782
g62
(dp1783
g82
g83
ssg71
g1777
sg64
(lp1784
S'path_info'
p1785
asbag57
(g78
g59
NtRp1786
(dp1787
g62
(dp1788
g89
g90
ssg71
g1777
sg64
(lp1789
S':'
asbag57
(g78
g59
NtRp1790
(dp1791
g62
(dp1792
sg71
g1777
sg64
(lp1793
g57
(g58
g59
NtRp1794
(dp1795
g62
(dp1796
g70
I4
ssg71
g1790
sg64
(lp1797
S'/FormalSignUp/'
p1798
asbasbasbag57
(g73
g59
NtRp1799
(dp1800
g62
(dp1801
sg71
g1377
sg64
(lp1802
g57
(g78
g59
NtRp1803
(dp1804
g62
(dp1805
g82
g83
ssg71
g1799
sg64
(lp1806
S'query_string'
p1807
asbag57
(g78
g59
NtRp1808
(dp1809
g62
(dp1810
g89
g90
ssg71
g1799
sg64
(lp1811
S':'
asbag57
(g78
g59
NtRp1812
(dp1813
g62
(dp1814
sg71
g1799
sg64
(lp1815
g57
(g58
g59
NtRp1816
(dp1817
g62
(dp1818
g70
I4
ssg71
g1812
sg64
(lp1819
S''
asbasbasbag57
(g73
g59
NtRp1820
(dp1821
g62
(dp1822
sg71
g1377
sg64
(lp1823
g57
(g78
g59
NtRp1824
(dp1825
g62
(dp1826
g82
g83
ssg71
g1820
sg64
(lp1827
S'remote_addr'
p1828
asbag57
(g78
g59
NtRp1829
(dp1830
g62
(dp1831
g89
g90
ssg71
g1820
sg64
(lp1832
S':'
asbag57
(g78
g59
NtRp1833
(dp1834
g62
(dp1835
sg71
g1820
sg64
(lp1836
g57
(g58
g59
NtRp1837
(dp1838
g62
(dp1839
g70
I4
ssg71
g1833
sg64
(lp1840
g190
asbasbasbag57
(g73
g59
NtRp1841
(dp1842
g62
(dp1843
sg71
g1377
sg64
(lp1844
g57
(g78
g59
NtRp1845
(dp1846
g62
(dp1847
g82
g83
ssg71
g1841
sg64
(lp1848
S'remote_port'
p1849
asbag57
(g78
g59
NtRp1850
(dp1851
g62
(dp1852
g89
g90
ssg71
g1841
sg64
(lp1853
S':'
asbag57
(g78
g59
NtRp1854
(dp1855
g62
(dp1856
sg71
g1841
sg64
(lp1857
g57
(g58
g59
NtRp1858
(dp1859
g62
(dp1860
g70
I4
ssg71
g1854
sg64
(lp1861
S'56328'
p1862
asbasbasbag57
(g73
g59
NtRp1863
(dp1864
g62
(dp1865
sg71
g1377
sg64
(lp1866
g57
(g78
g59
NtRp1867
(dp1868
g62
(dp1869
g82
g83
ssg71
g1863
sg64
(lp1870
S'request_method'
p1871
asbag57
(g78
g59
NtRp1872
(dp1873
g62
(dp1874
g89
g90
ssg71
g1863
sg64
(lp1875
S':'
asbag57
(g78
g59
NtRp1876
(dp1877
g62
(dp1878
sg71
g1863
sg64
(lp1879
g57
(g58
g59
NtRp1880
(dp1881
g62
(dp1882
g70
I4
ssg71
g1876
sg64
(lp1883
S'GET'
p1884
asbasbasbag57
(g73
g59
NtRp1885
(dp1886
g62
(dp1887
sg71
g1377
sg64
(lp1888
g57
(g78
g59
NtRp1889
(dp1890
g62
(dp1891
g82
g83
ssg71
g1885
sg64
(lp1892
S'script_name'
p1893
asbag57
(g78
g59
NtRp1894
(dp1895
g62
(dp1896
g89
g90
ssg71
g1885
sg64
(lp1897
S':'
asbag57
(g78
g59
NtRp1898
(dp1899
g62
(dp1900
sg71
g1885
sg64
(lp1901
g57
(g58
g59
NtRp1902
(dp1903
g62
(dp1904
g70
I4
ssg71
g1898
sg64
(lp1905
S''
asbasbasbag57
(g73
g59
NtRp1906
(dp1907
g62
(dp1908
sg71
g1377
sg64
(lp1909
g57
(g78
g59
NtRp1910
(dp1911
g62
(dp1912
g82
g83
ssg71
g1906
sg64
(lp1913
S'server_name'
p1914
asbag57
(g78
g59
NtRp1915
(dp1916
g62
(dp1917
g89
g90
ssg71
g1906
sg64
(lp1918
S':'
asbag57
(g78
g59
NtRp1919
(dp1920
g62
(dp1921
sg71
g1906
sg64
(lp1922
g57
(g58
g59
NtRp1923
(dp1924
g62
(dp1925
g70
I4
ssg71
g1919
sg64
(lp1926
S'ubuntu'
p1927
asbasbasbag57
(g73
g59
NtRp1928
(dp1929
g62
(dp1930
sg71
g1377
sg64
(lp1931
g57
(g78
g59
NtRp1932
(dp1933
g62
(dp1934
g82
g83
ssg71
g1928
sg64
(lp1935
S'server_port'
p1936
asbag57
(g78
g59
NtRp1937
(dp1938
g62
(dp1939
g89
g90
ssg71
g1928
sg64
(lp1940
S':'
asbag57
(g78
g59
NtRp1941
(dp1942
g62
(dp1943
sg71
g1928
sg64
(lp1944
g57
(g58
g59
NtRp1945
(dp1946
g62
(dp1947
g70
I4
ssg71
g1941
sg64
(lp1948
S'8000'
p1949
asbasbasbag57
(g73
g59
NtRp1950
(dp1951
g62
(dp1952
sg71
g1377
sg64
(lp1953
g57
(g78
g59
NtRp1954
(dp1955
g62
(dp1956
g82
g83
ssg71
g1950
sg64
(lp1957
S'server_protocol'
p1958
asbag57
(g78
g59
NtRp1959
(dp1960
g62
(dp1961
g89
g90
ssg71
g1950
sg64
(lp1962
S':'
asbag57
(g78
g59
NtRp1963
(dp1964
g62
(dp1965
sg71
g1950
sg64
(lp1966
g57
(g58
g59
NtRp1967
(dp1968
g62
(dp1969
g70
I4
ssg71
g1963
sg64
(lp1970
S'HTTP/1.1'
p1971
asbasbasbag57
(g73
g59
NtRp1972
(dp1973
g62
(dp1974
sg71
g1377
sg64
(lp1975
g57
(g78
g59
NtRp1976
(dp1977
g62
(dp1978
g82
g83
ssg71
g1972
sg64
(lp1979
S'server_software'
p1980
asbag57
(g78
g59
NtRp1981
(dp1982
g62
(dp1983
g89
g90
ssg71
g1972
sg64
(lp1984
S':'
asbag57
(g78
g59
NtRp1985
(dp1986
g62
(dp1987
sg71
g1972
sg64
(lp1988
g57
(g58
g59
NtRp1989
(dp1990
g62
(dp1991
g70
I4
ssg71
g1985
sg64
(lp1992
S'Rocket 1.2.4'
p1993
asbasbasbag57
(g73
g59
NtRp1994
(dp1995
g62
(dp1996
sg71
g1377
sg64
(lp1997
g57
(g78
g59
NtRp1998
(dp1999
g62
(dp2000
g82
g83
ssg71
g1994
sg64
(lp2001
S'web2py_crontype'
p2002
asbag57
(g78
g59
NtRp2003
(dp2004
g62
(dp2005
g89
g90
ssg71
g1994
sg64
(lp2006
S':'
asbag57
(g78
g59
NtRp2007
(dp2008
g62
(dp2009
sg71
g1994
sg64
(lp2010
g57
(g58
g59
NtRp2011
(dp2012
g62
(dp2013
g70
I4
ssg71
g2007
sg64
(lp2014
S'hard'
p2015
asbasbasbag57
(g73
g59
NtRp2016
(dp2017
g62
(dp2018
sg71
g1377
sg64
(lp2019
g57
(g78
g59
NtRp2020
(dp2021
g62
(dp2022
g82
g83
ssg71
g2016
sg64
(lp2023
S'web2py_path'
p2024
asbag57
(g78
g59
NtRp2025
(dp2026
g62
(dp2027
g89
g90
ssg71
g2016
sg64
(lp2028
S':'
asbag57
(g78
g59
NtRp2029
(dp2030
g62
(dp2031
sg71
g2016
sg64
(lp2032
g57
(g58
g59
NtRp2033
(dp2034
g62
(dp2035
g70
I4
ssg71
g2029
sg64
(lp2036
g1424
asbasbasbag57
(g73
g59
NtRp2037
(dp2038
g62
(dp2039
sg71
g1377
sg64
(lp2040
g57
(g78
g59
NtRp2041
(dp2042
g62
(dp2043
g82
g83
ssg71
g2037
sg64
(lp2044
S'web2py_version'
p2045
asbag57
(g78
g59
NtRp2046
(dp2047
g62
(dp2048
g89
g90
ssg71
g2037
sg64
(lp2049
S':'
asbag57
(g78
g59
NtRp2050
(dp2051
g62
(dp2052
sg71
g2037
sg64
(lp2053
g57
(g58
g59
NtRp2054
(dp2055
g62
(dp2056
g70
I4
ssg71
g2050
sg64
(lp2057
g57
(g66
g59
NtRp2058
(dp2059
g62
(dp2060
g70
I3
ssg71
Nsg64
(lp2061
g57
(g73
g59
NtRp2062
(dp2063
g62
(dp2064
sg71
g2058
sg64
(lp2065
g57
(g78
g59
NtRp2066
(dp2067
g62
(dp2068
sg71
g2062
sg64
(lp2069
g57
(g58
g59
NtRp2070
(dp2071
g62
(dp2072
g70
I3
ssg71
g2066
sg64
(lp2073
S'1'
asbasbasbag57
(g73
g59
NtRp2074
(dp2075
g62
(dp2076
sg71
g2058
sg64
(lp2077
g57
(g78
g59
NtRp2078
(dp2079
g62
(dp2080
sg71
g2074
sg64
(lp2081
g57
(g58
g59
NtRp2082
(dp2083
g62
(dp2084
g70
I3
ssg71
g2078
sg64
(lp2085
S'99'
p2086
asbasbasbag57
(g73
g59
NtRp2087
(dp2088
g62
(dp2089
sg71
g2058
sg64
(lp2090
g57
(g78
g59
NtRp2091
(dp2092
g62
(dp2093
sg71
g2087
sg64
(lp2094
g57
(g58
g59
NtRp2095
(dp2096
g62
(dp2097
g70
I3
ssg71
g2091
sg64
(lp2098
S'4'
asbasbasbag57
(g73
g59
NtRp2099
(dp2100
g62
(dp2101
sg71
g2058
sg64
(lp2102
g57
(g78
g59
NtRp2103
(dp2104
g62
(dp2105
sg71
g2099
sg64
(lp2106
g57
(g58
g59
NtRp2107
(dp2108
g62
(dp2109
g70
I3
ssg71
g2103
sg64
(lp2110
S'datetime.datetime(2011, 12, 14, 14, 46, 14)'
p2111
asbasbasbag57
(g73
g59
NtRp2112
(dp2113
g62
(dp2114
sg71
g2058
sg64
(lp2115
g57
(g78
g59
NtRp2116
(dp2117
g62
(dp2118
sg71
g2112
sg64
(lp2119
g57
(g58
g59
NtRp2120
(dp2121
g62
(dp2122
g70
I3
ssg71
g2116
sg64
(lp2123
S'stable'
p2124
asbasbasbasbasbasbasbag57
(g73
g59
NtRp2125
(dp2126
g62
(dp2127
sg71
g1377
sg64
(lp2128
g57
(g78
g59
NtRp2129
(dp2130
g62
(dp2131
g82
g83
ssg71
g2125
sg64
(lp2132
S'wsgi_errors'
p2133
asbag57
(g78
g59
NtRp2134
(dp2135
g62
(dp2136
g89
g90
ssg71
g2125
sg64
(lp2137
S':'
asbag57
(g78
g59
NtRp2138
(dp2139
g62
(dp2140
sg71
g2125
sg64
(lp2141
g57
(g58
g59
NtRp2142
(dp2143
g62
(dp2144
g70
I4
ssg71
g2138
sg64
(lp2145
S"<open file '<stderr>', mode 'w' at 0xb74b90d0>"
p2146
asbasbasbag57
(g73
g59
NtRp2147
(dp2148
g62
(dp2149
sg71
g1377
sg64
(lp2150
g57
(g78
g59
NtRp2151
(dp2152
g62
(dp2153
g82
g83
ssg71
g2147
sg64
(lp2154
S'wsgi_file_wrapper'
p2155
asbag57
(g78
g59
NtRp2156
(dp2157
g62
(dp2158
g89
g90
ssg71
g2147
sg64
(lp2159
S':'
asbag57
(g78
g59
NtRp2160
(dp2161
g62
(dp2162
sg71
g2147
sg64
(lp2163
g57
(g58
g59
NtRp2164
(dp2165
g62
(dp2166
g70
I4
ssg71
g2160
sg64
(lp2167
S'<class wsgiref.util.FileWrapper at 0x95692cc>'
p2168
asbasbasbag57
(g73
g59
NtRp2169
(dp2170
g62
(dp2171
sg71
g1377
sg64
(lp2172
g57
(g78
g59
NtRp2173
(dp2174
g62
(dp2175
g82
g83
ssg71
g2169
sg64
(lp2176
S'wsgi_input'
p2177
asbag57
(g78
g59
NtRp2178
(dp2179
g62
(dp2180
g89
g90
ssg71
g2169
sg64
(lp2181
S':'
asbag57
(g78
g59
NtRp2182
(dp2183
g62
(dp2184
sg71
g2169
sg64
(lp2185
g57
(g58
g59
NtRp2186
(dp2187
g62
(dp2188
g70
I4
ssg71
g2182
sg64
(lp2189
S'<socket._fileobject object at 0x962e4ac>'
p2190
asbasbasbag57
(g73
g59
NtRp2191
(dp2192
g62
(dp2193
sg71
g1377
sg64
(lp2194
g57
(g78
g59
NtRp2195
(dp2196
g62
(dp2197
g82
g83
ssg71
g2191
sg64
(lp2198
S'wsgi_multiprocess'
p2199
asbag57
(g78
g59
NtRp2200
(dp2201
g62
(dp2202
g89
g90
ssg71
g2191
sg64
(lp2203
S':'
asbag57
(g78
g59
NtRp2204
(dp2205
g62
(dp2206
sg71
g2191
sg64
(lp2207
g57
(g58
g59
NtRp2208
(dp2209
g62
(dp2210
g70
I4
ssg71
g2204
sg64
(lp2211
g100
asbasbasbag57
(g73
g59
NtRp2212
(dp2213
g62
(dp2214
sg71
g1377
sg64
(lp2215
g57
(g78
g59
NtRp2216
(dp2217
g62
(dp2218
g82
g83
ssg71
g2212
sg64
(lp2219
S'wsgi_multithread'
p2220
asbag57
(g78
g59
NtRp2221
(dp2222
g62
(dp2223
g89
g90
ssg71
g2212
sg64
(lp2224
S':'
asbag57
(g78
g59
NtRp2225
(dp2226
g62
(dp2227
sg71
g2212
sg64
(lp2228
g57
(g58
g59
NtRp2229
(dp2230
g62
(dp2231
g70
I4
ssg71
g2225
sg64
(lp2232
S'True'
p2233
asbasbasbag57
(g73
g59
NtRp2234
(dp2235
g62
(dp2236
sg71
g1377
sg64
(lp2237
g57
(g78
g59
NtRp2238
(dp2239
g62
(dp2240
g82
g83
ssg71
g2234
sg64
(lp2241
S'wsgi_run_once'
p2242
asbag57
(g78
g59
NtRp2243
(dp2244
g62
(dp2245
g89
g90
ssg71
g2234
sg64
(lp2246
S':'
asbag57
(g78
g59
NtRp2247
(dp2248
g62
(dp2249
sg71
g2234
sg64
(lp2250
g57
(g58
g59
NtRp2251
(dp2252
g62
(dp2253
g70
I4
ssg71
g2247
sg64
(lp2254
g100
asbasbasbag57
(g73
g59
NtRp2255
(dp2256
g62
(dp2257
sg71
g1377
sg64
(lp2258
g57
(g78
g59
NtRp2259
(dp2260
g62
(dp2261
g82
g83
ssg71
g2255
sg64
(lp2262
S'wsgi_url_scheme'
p2263
asbag57
(g78
g59
NtRp2264
(dp2265
g62
(dp2266
g89
g90
ssg71
g2255
sg64
(lp2267
S':'
asbag57
(g78
g59
NtRp2268
(dp2269
g62
(dp2270
sg71
g2255
sg64
(lp2271
g57
(g58
g59
NtRp2272
(dp2273
g62
(dp2274
g70
I4
ssg71
g2268
sg64
(lp2275
S'http'
p2276
asbasbasbag57
(g73
g59
NtRp2277
(dp2278
g62
(dp2279
sg71
g1377
sg64
(lp2280
g57
(g78
g59
NtRp2281
(dp2282
g62
(dp2283
g82
g83
ssg71
g2277
sg64
(lp2284
S'wsgi_version'
p2285
asbag57
(g78
g59
NtRp2286
(dp2287
g62
(dp2288
g89
g90
ssg71
g2277
sg64
(lp2289
S':'
asbag57
(g78
g59
NtRp2290
(dp2291
g62
(dp2292
sg71
g2277
sg64
(lp2293
g57
(g58
g59
NtRp2294
(dp2295
g62
(dp2296
g70
I4
ssg71
g2290
sg64
(lp2297
g57
(g66
g59
NtRp2298
(dp2299
g62
(dp2300
g70
I3
ssg71
Nsg64
(lp2301
g57
(g73
g59
NtRp2302
(dp2303
g62
(dp2304
sg71
g2298
sg64
(lp2305
g57
(g78
g59
NtRp2306
(dp2307
g62
(dp2308
sg71
g2302
sg64
(lp2309
g57
(g58
g59
NtRp2310
(dp2311
g62
(dp2312
g70
I3
ssg71
g2306
sg64
(lp2313
S'1'
asbasbasbag57
(g73
g59
NtRp2314
(dp2315
g62
(dp2316
sg71
g2298
sg64
(lp2317
g57
(g78
g59
NtRp2318
(dp2319
g62
(dp2320
sg71
g2314
sg64
(lp2321
g57
(g58
g59
NtRp2322
(dp2323
g62
(dp2324
g70
I3
ssg71
g2318
sg64
(lp2325
S'0'
asbasbasbasbasbasbasbasbasbasbasbag57
(g73
g59
NtRp2326
(dp2327
g62
(dp2328
sg71
g67
sg64
(lp2329
g57
(g78
g59
NtRp2330
(dp2331
g62
(dp2332
g82
g83
ssg71
g2326
sg64
(lp2333
S'extension'
p2334
asbag57
(g78
g59
NtRp2335
(dp2336
g62
(dp2337
g89
g90
ssg71
g2326
sg64
(lp2338
S':'
asbag57
(g78
g59
NtRp2339
(dp2340
g62
(dp2341
sg71
g2326
sg64
(lp2342
g57
(g58
g59
NtRp2343
(dp2344
g62
(dp2345
g70
I5
ssg71
g2339
sg64
(lp2346
S'html'
p2347
asbasbasbag57
(g73
g59
NtRp2348
(dp2349
g62
(dp2350
sg71
g67
sg64
(lp2351
g57
(g78
g59
NtRp2352
(dp2353
g62
(dp2354
g82
g83
ssg71
g2348
sg64
(lp2355
S'folder'
p2356
asbag57
(g78
g59
NtRp2357
(dp2358
g62
(dp2359
g89
g90
ssg71
g2348
sg64
(lp2360
S':'
asbag57
(g78
g59
NtRp2361
(dp2362
g62
(dp2363
sg71
g2348
sg64
(lp2364
g57
(g58
g59
NtRp2365
(dp2366
g62
(dp2367
g70
I5
ssg71
g2361
sg64
(lp2368
S'/home/shaz/Documents/Development/web2py/applications/FormalSignUp/'
p2369
asbasbasbag57
(g73
g59
NtRp2370
(dp2371
g62
(dp2372
sg71
g67
sg64
(lp2373
g57
(g78
g59
NtRp2374
(dp2375
g62
(dp2376
g82
g83
ssg71
g2370
sg64
(lp2377
S'function'
p2378
asbag57
(g78
g59
NtRp2379
(dp2380
g62
(dp2381
g89
g90
ssg71
g2370
sg64
(lp2382
S':'
asbag57
(g78
g59
NtRp2383
(dp2384
g62
(dp2385
sg71
g2370
sg64
(lp2386
g57
(g58
g59
NtRp2387
(dp2388
g62
(dp2389
g70
I5
ssg71
g2383
sg64
(lp2390
S'index'
p2391
asbasbasbag57
(g73
g59
NtRp2392
(dp2393
g62
(dp2394
sg71
g67
sg64
(lp2395
g57
(g78
g59
NtRp2396
(dp2397
g62
(dp2398
g82
g83
ssg71
g2392
sg64
(lp2399
S'get_vars'
p2400
asbag57
(g78
g59
NtRp2401
(dp2402
g62
(dp2403
g89
g90
ssg71
g2392
sg64
(lp2404
S':'
asbag57
(g78
g59
NtRp2405
(dp2406
g62
(dp2407
sg71
g2392
sg64
(lp2408
g57
(g58
g59
NtRp2409
(dp2410
g62
(dp2411
g70
I5
ssg71
g2405
sg64
(lp2412
g57
(g66
g59
NtRp2413
(dp2414
g62
(dp2415
g70
I4
ssg71
Nsg64
(lp2416
sbasbasbasbag57
(g73
g59
NtRp2417
(dp2418
g62
(dp2419
sg71
g67
sg64
(lp2420
g57
(g78
g59
NtRp2421
(dp2422
g62
(dp2423
g82
g83
ssg71
g2417
sg64
(lp2424
S'global_settings'
p2425
asbag57
(g78
g59
NtRp2426
(dp2427
g62
(dp2428
g89
g90
ssg71
g2417
sg64
(lp2429
S':'
asbag57
(g78
g59
NtRp2430
(dp2431
g62
(dp2432
sg71
g2417
sg64
(lp2433
g57
(g58
g59
NtRp2434
(dp2435
g62
(dp2436
g70
I5
ssg71
g2430
sg64
(lp2437
g57
(g66
g59
NtRp2438
(dp2439
g62
(dp2440
g70
I4
ssg71
Nsg64
(lp2441
g57
(g73
g59
NtRp2442
(dp2443
g62
(dp2444
sg71
g2438
sg64
(lp2445
g57
(g78
g59
NtRp2446
(dp2447
g62
(dp2448
g82
g83
ssg71
g2442
sg64
(lp2449
g1389
asbag57
(g78
g59
NtRp2450
(dp2451
g62
(dp2452
g89
g90
ssg71
g2442
sg64
(lp2453
S':'
asbag57
(g78
g59
NtRp2454
(dp2455
g62
(dp2456
sg71
g2442
sg64
(lp2457
g57
(g58
g59
NtRp2458
(dp2459
g62
(dp2460
g70
I4
ssg71
g2454
sg64
(lp2461
S"set(['/home/shaz/Documents/Development/web2py/applications/FormalSignUp/'])"
p2462
asbasbasbag57
(g73
g59
NtRp2463
(dp2464
g62
(dp2465
sg71
g2438
sg64
(lp2466
g57
(g78
g59
NtRp2467
(dp2468
g62
(dp2469
g82
g83
ssg71
g2463
sg64
(lp2470
g1411
asbag57
(g78
g59
NtRp2471
(dp2472
g62
(dp2473
g89
g90
ssg71
g2463
sg64
(lp2474
S':'
asbag57
(g78
g59
NtRp2475
(dp2476
g62
(dp2477
sg71
g2463
sg64
(lp2478
g57
(g58
g59
NtRp2479
(dp2480
g62
(dp2481
g70
I4
ssg71
g2475
sg64
(lp2482
g1424
asbasbasbag57
(g73
g59
NtRp2483
(dp2484
g62
(dp2485
sg71
g2438
sg64
(lp2486
g57
(g78
g59
NtRp2487
(dp2488
g62
(dp2489
g82
g83
ssg71
g2483
sg64
(lp2490
g1433
asbag57
(g78
g59
NtRp2491
(dp2492
g62
(dp2493
g89
g90
ssg71
g2483
sg64
(lp2494
S':'
asbag57
(g78
g59
NtRp2495
(dp2496
g62
(dp2497
sg71
g2483
sg64
(lp2498
g57
(g58
g59
NtRp2499
(dp2500
g62
(dp2501
g70
I4
ssg71
g2495
sg64
(lp2502
g57
(g66
g59
NtRp2503
(dp2504
g62
(dp2505
g70
I3
ssg71
Nsg64
(lp2506
sbasbasbasbag57
(g73
g59
NtRp2507
(dp2508
g62
(dp2509
sg71
g2438
sg64
(lp2510
g57
(g78
g59
NtRp2511
(dp2512
g62
(dp2513
g82
g83
ssg71
g2507
sg64
(lp2514
g1458
asbag57
(g78
g59
NtRp2515
(dp2516
g62
(dp2517
g89
g90
ssg71
g2507
sg64
(lp2518
S':'
asbag57
(g78
g59
NtRp2519
(dp2520
g62
(dp2521
sg71
g2507
sg64
(lp2522
g57
(g58
g59
NtRp2523
(dp2524
g62
(dp2525
g70
I4
ssg71
g2519
sg64
(lp2526
S"<Values at 0x95be9ac: {'verbose': False, 'ip': '127.0.0.1', 'shutdown_timeout': 5, 'taskbar': False, 'nocron': False, 'pid_filename': 'httpserver.pid', 'maxthreads': None, 'softcron': False, 'server_name': 'ubuntu', 'bpython': False, 'nogui': False, 'port': 8000, 'extcron': False, 'debuglevel': 30, 'test': None, 'folder': '/home/shaz/Documents/Development/web2py', 'config': '', 'import_models': False, 'winservice': '', 'shell': None, 'run': '', 'log_filename': 'httpserver.log', 'args': [''], 'socket_timeout': 1, 'ssl_ca_certificate': None, 'scheduler': None, 'profiler_filename': None, 'ssl_private_key': '', 'password': 'shaz', 'request_queue_size': 5, 'ssl_certificate': '', 'cronjob': False, 'numthreads': None, 'quiet': False, 'interfaces': None, 'minthreads': None, 'timeout': 10, 'plain': False, 'nobanner': False}>"
p2527
asbasbasbag57
(g73
g59
NtRp2528
(dp2529
g62
(dp2530
sg71
g2438
sg64
(lp2531
g57
(g78
g59
NtRp2532
(dp2533
g62
(dp2534
g82
g83
ssg71
g2528
sg64
(lp2535
g1480
asbag57
(g78
g59
NtRp2536
(dp2537
g62
(dp2538
g89
g90
ssg71
g2528
sg64
(lp2539
S':'
asbag57
(g78
g59
NtRp2540
(dp2541
g62
(dp2542
sg71
g2528
sg64
(lp2543
g57
(g58
g59
NtRp2544
(dp2545
g62
(dp2546
g70
I4
ssg71
g2540
sg64
(lp2547
S'set([])'
p2548
asbasbasbag57
(g73
g59
NtRp2549
(dp2550
g62
(dp2551
sg71
g2438
sg64
(lp2552
g57
(g78
g59
NtRp2553
(dp2554
g62
(dp2555
g82
g83
ssg71
g2549
sg64
(lp2556
g1502
asbag57
(g78
g59
NtRp2557
(dp2558
g62
(dp2559
g89
g90
ssg71
g2549
sg64
(lp2560
S':'
asbag57
(g78
g59
NtRp2561
(dp2562
g62
(dp2563
sg71
g2549
sg64
(lp2564
g57
(g58
g59
NtRp2565
(dp2566
g62
(dp2567
g70
I4
ssg71
g2561
sg64
(lp2568
g100
asbasbasbag57
(g73
g59
NtRp2569
(dp2570
g62
(dp2571
sg71
g2438
sg64
(lp2572
g57
(g78
g59
NtRp2573
(dp2574
g62
(dp2575
g82
g83
ssg71
g2569
sg64
(lp2576
g1523
asbag57
(g78
g59
NtRp2577
(dp2578
g62
(dp2579
g89
g90
ssg71
g2569
sg64
(lp2580
S':'
asbag57
(g78
g59
NtRp2581
(dp2582
g62
(dp2583
sg71
g2569
sg64
(lp2584
g57
(g58
g59
NtRp2585
(dp2586
g62
(dp2587
g70
I4
ssg71
g2581
sg64
(lp2588
g1536
asbasbasbag57
(g73
g59
NtRp2589
(dp2590
g62
(dp2591
sg71
g2438
sg64
(lp2592
g57
(g78
g59
NtRp2593
(dp2594
g62
(dp2595
g82
g83
ssg71
g2589
sg64
(lp2596
g1743
asbag57
(g78
g59
NtRp2597
(dp2598
g62
(dp2599
g89
g90
ssg71
g2589
sg64
(lp2600
S':'
asbag57
(g78
g59
NtRp2601
(dp2602
g62
(dp2603
sg71
g2589
sg64
(lp2604
g57
(g58
g59
NtRp2605
(dp2606
g62
(dp2607
g70
I4
ssg71
g2601
sg64
(lp2608
g100
asbasbasbag57
(g73
g59
NtRp2609
(dp2610
g62
(dp2611
sg71
g2438
sg64
(lp2612
g57
(g78
g59
NtRp2613
(dp2614
g62
(dp2615
g82
g83
ssg71
g2609
sg64
(lp2616
g1764
asbag57
(g78
g59
NtRp2617
(dp2618
g62
(dp2619
g89
g90
ssg71
g2609
sg64
(lp2620
S':'
asbag57
(g78
g59
NtRp2621
(dp2622
g62
(dp2623
sg71
g2609
sg64
(lp2624
g57
(g58
g59
NtRp2625
(dp2626
g62
(dp2627
g70
I4
ssg71
g2621
sg64
(lp2628
g100
asbasbasbag57
(g73
g59
NtRp2629
(dp2630
g62
(dp2631
sg71
g2438
sg64
(lp2632
g57
(g78
g59
NtRp2633
(dp2634
g62
(dp2635
g82
g83
ssg71
g2629
sg64
(lp2636
g2002
asbag57
(g78
g59
NtRp2637
(dp2638
g62
(dp2639
g89
g90
ssg71
g2629
sg64
(lp2640
S':'
asbag57
(g78
g59
NtRp2641
(dp2642
g62
(dp2643
sg71
g2629
sg64
(lp2644
g57
(g58
g59
NtRp2645
(dp2646
g62
(dp2647
g70
I4
ssg71
g2641
sg64
(lp2648
g2015
asbasbasbag57
(g73
g59
NtRp2649
(dp2650
g62
(dp2651
sg71
g2438
sg64
(lp2652
g57
(g78
g59
NtRp2653
(dp2654
g62
(dp2655
g82
g83
ssg71
g2649
sg64
(lp2656
g2045
asbag57
(g78
g59
NtRp2657
(dp2658
g62
(dp2659
g89
g90
ssg71
g2649
sg64
(lp2660
S':'
asbag57
(g78
g59
NtRp2661
(dp2662
g62
(dp2663
sg71
g2649
sg64
(lp2664
g57
(g58
g59
NtRp2665
(dp2666
g62
(dp2667
g70
I4
ssg71
g2661
sg64
(lp2668
g57
(g66
g59
NtRp2669
(dp2670
g62
(dp2671
g70
I3
ssg71
Nsg64
(lp2672
g57
(g73
g59
NtRp2673
(dp2674
g62
(dp2675
sg71
g2669
sg64
(lp2676
g57
(g78
g59
NtRp2677
(dp2678
g62
(dp2679
sg71
g2673
sg64
(lp2680
g57
(g58
g59
NtRp2681
(dp2682
g62
(dp2683
g70
I3
ssg71
g2677
sg64
(lp2684
S'1'
asbasbasbag57
(g73
g59
NtRp2685
(dp2686
g62
(dp2687
sg71
g2669
sg64
(lp2688
g57
(g78
g59
NtRp2689
(dp2690
g62
(dp2691
sg71
g2685
sg64
(lp2692
g57
(g58
g59
NtRp2693
(dp2694
g62
(dp2695
g70
I3
ssg71
g2689
sg64
(lp2696
S'99'
p2697
asbasbasbag57
(g73
g59
NtRp2698
(dp2699
g62
(dp2700
sg71
g2669
sg64
(lp2701
g57
(g78
g59
NtRp2702
(dp2703
g62
(dp2704
sg71
g2698
sg64
(lp2705
g57
(g58
g59
NtRp2706
(dp2707
g62
(dp2708
g70
I3
ssg71
g2702
sg64
(lp2709
S'4'
asbasbasbag57
(g73
g59
NtRp2710
(dp2711
g62
(dp2712
sg71
g2669
sg64
(lp2713
g57
(g78
g59
NtRp2714
(dp2715
g62
(dp2716
sg71
g2710
sg64
(lp2717
g57
(g58
g59
NtRp2718
(dp2719
g62
(dp2720
g70
I3
ssg71
g2714
sg64
(lp2721
S'datetime.datetime(2011, 12, 14, 14, 46, 14)'
p2722
asbasbasbag57
(g73
g59
NtRp2723
(dp2724
g62
(dp2725
sg71
g2669
sg64
(lp2726
g57
(g78
g59
NtRp2727
(dp2728
g62
(dp2729
sg71
g2723
sg64
(lp2730
g57
(g58
g59
NtRp2731
(dp2732
g62
(dp2733
g70
I3
ssg71
g2727
sg64
(lp2734
g2124
asbasbasbasbasbasbasbasbasbasbasbag57
(g73
g59
NtRp2735
(dp2736
g62
(dp2737
sg71
g67
sg64
(lp2738
g57
(g78
g59
NtRp2739
(dp2740
g62
(dp2741
g82
g83
ssg71
g2735
sg64
(lp2742
S'is_https'
p2743
asbag57
(g78
g59
NtRp2744
(dp2745
g62
(dp2746
g89
g90
ssg71
g2735
sg64
(lp2747
S':'
asbag57
(g78
g59
NtRp2748
(dp2749
g62
(dp2750
sg71
g2735
sg64
(lp2751
g57
(g58
g59
NtRp2752
(dp2753
g62
(dp2754
g70
I5
ssg71
g2748
sg64
(lp2755
g100
asbasbasbag57
(g73
g59
NtRp2756
(dp2757
g62
(dp2758
sg71
g67
sg64
(lp2759
g57
(g78
g59
NtRp2760
(dp2761
g62
(dp2762
g82
g83
ssg71
g2756
sg64
(lp2763
S'is_local'
p2764
asbag57
(g78
g59
NtRp2765
(dp2766
g62
(dp2767
g89
g90
ssg71
g2756
sg64
(lp2768
S':'
asbag57
(g78
g59
NtRp2769
(dp2770
g62
(dp2771
sg71
g2756
sg64
(lp2772
g57
(g58
g59
NtRp2773
(dp2774
g62
(dp2775
g70
I5
ssg71
g2769
sg64
(lp2776
g2233
asbasbasbag57
(g73
g59
NtRp2777
(dp2778
g62
(dp2779
sg71
g67
sg64
(lp2780
g57
(g78
g59
NtRp2781
(dp2782
g62
(dp2783
g82
g83
ssg71
g2777
sg64
(lp2784
S'is_restful'
p2785
asbag57
(g78
g59
NtRp2786
(dp2787
g62
(dp2788
g89
g90
ssg71
g2777
sg64
(lp2789
S':'
asbag57
(g78
g59
NtRp2790
(dp2791
g62
(dp2792
sg71
g2777
sg64
(lp2793
g57
(g58
g59
NtRp2794
(dp2795
g62
(dp2796
g70
I5
ssg71
g2790
sg64
(lp2797
g100
asbasbasbag57
(g73
g59
NtRp2798
(dp2799
g62
(dp2800
sg71
g67
sg64
(lp2801
g57
(g78
g59
NtRp2802
(dp2803
g62
(dp2804
g82
g83
ssg71
g2798
sg64
(lp2805
S'now'
p2806
asbag57
(g78
g59
NtRp2807
(dp2808
g62
(dp2809
g89
g90
ssg71
g2798
sg64
(lp2810
S':'
asbag57
(g78
g59
NtRp2811
(dp2812
g62
(dp2813
sg71
g2798
sg64
(lp2814
g57
(g58
g59
NtRp2815
(dp2816
g62
(dp2817
g70
I5
ssg71
g2811
sg64
(lp2818
S'datetime.datetime(2012, 2, 29, 1, 50, 40, 299130)'
p2819
asbasbasbag57
(g73
g59
NtRp2820
(dp2821
g62
(dp2822
sg71
g67
sg64
(lp2823
g57
(g78
g59
NtRp2824
(dp2825
g62
(dp2826
g82
g83
ssg71
g2820
sg64
(lp2827
S'post_vars'
p2828
asbag57
(g78
g59
NtRp2829
(dp2830
g62
(dp2831
g89
g90
ssg71
g2820
sg64
(lp2832
S':'
asbag57
(g78
g59
NtRp2833
(dp2834
g62
(dp2835
sg71
g2820
sg64
(lp2836
g57
(g58
g59
NtRp2837
(dp2838
g62
(dp2839
g70
I5
ssg71
g2833
sg64
(lp2840
g57
(g66
g59
NtRp2841
(dp2842
g62
(dp2843
g70
I4
ssg71
Nsg64
(lp2844
sbasbasbasbag57
(g73
g59
NtRp2845
(dp2846
g62
(dp2847
sg71
g67
sg64
(lp2848
g57
(g78
g59
NtRp2849
(dp2850
g62
(dp2851
g82
g83
ssg71
g2845
sg64
(lp2852
S'url'
p2853
asbag57
(g78
g59
NtRp2854
(dp2855
g62
(dp2856
g89
g90
ssg71
g2845
sg64
(lp2857
S':'
asbag57
(g78
g59
NtRp2858
(dp2859
g62
(dp2860
sg71
g2845
sg64
(lp2861
g57
(g58
g59
NtRp2862
(dp2863
g62
(dp2864
g70
I5
ssg71
g2858
sg64
(lp2865
S'/FormalSignUp/default/index'
p2866
asbasbasbag57
(g73
g59
NtRp2867
(dp2868
g62
(dp2869
sg71
g67
sg64
(lp2870
g57
(g78
g59
NtRp2871
(dp2872
g62
(dp2873
g82
g83
ssg71
g2867
sg64
(lp2874
S'utcnow'
p2875
asbag57
(g78
g59
NtRp2876
(dp2877
g62
(dp2878
g89
g90
ssg71
g2867
sg64
(lp2879
S':'
asbag57
(g78
g59
NtRp2880
(dp2881
g62
(dp2882
sg71
g2867
sg64
(lp2883
g57
(g58
g59
NtRp2884
(dp2885
g62
(dp2886
g70
I5
ssg71
g2880
sg64
(lp2887
S'datetime.datetime(2012, 2, 29, 1, 50, 40, 299147)'
p2888
asbasbasbag57
(g73
g59
NtRp2889
(dp2890
g62
(dp2891
sg71
g67
sg64
(lp2892
g57
(g78
g59
NtRp2893
(dp2894
g62
(dp2895
g82
g83
ssg71
g2889
sg64
(lp2896
S'uuid'
p2897
asbag57
(g78
g59
NtRp2898
(dp2899
g62
(dp2900
g89
g90
ssg71
g2889
sg64
(lp2901
S':'
asbag57
(g78
g59
NtRp2902
(dp2903
g62
(dp2904
sg71
g2889
sg64
(lp2905
g57
(g58
g59
NtRp2906
(dp2907
g62
(dp2908
g70
I5
ssg71
g2902
sg64
(lp2909
S'FormalSignUp/127.0.0.1.2012-02-29.01-50-40.2485570b-5e81-4c8a-9aa5-3a735cdbfeeb'
p2910
asbasbasbag57
(g73
g59
NtRp2911
(dp2912
g62
(dp2913
sg71
g67
sg64
(lp2914
g57
(g78
g59
NtRp2915
(dp2916
g62
(dp2917
g82
g83
ssg71
g2911
sg64
(lp2918
S'vars'
p2919
asbag57
(g78
g59
NtRp2920
(dp2921
g62
(dp2922
g89
g90
ssg71
g2911
sg64
(lp2923
S':'
asbag57
(g78
g59
NtRp2924
(dp2925
g62
(dp2926
sg71
g2911
sg64
(lp2927
g57
(g58
g59
NtRp2928
(dp2929
g62
(dp2930
g70
I5
ssg71
g2924
sg64
(lp2931
g57
(g66
g59
NtRp2932
(dp2933
g62
(dp2934
g70
I4
ssg71
Nsg64
(lp2935
sbasbasbasbag57
(g73
g59
NtRp2936
(dp2937
g62
(dp2938
sg71
g67
sg64
(lp2939
g57
(g78
g59
NtRp2940
(dp2941
g62
(dp2942
g82
g83
ssg71
g2936
sg64
(lp2943
S'wsgi'
p2944
asbag57
(g78
g59
NtRp2945
(dp2946
g62
(dp2947
g89
g90
ssg71
g2936
sg64
(lp2948
S':'
asbag57
(g78
g59
NtRp2949
(dp2950
g62
(dp2951
sg71
g2936
sg64
(lp2952
g57
(g58
g59
NtRp2953
(dp2954
g62
(dp2955
g70
I5
ssg71
g2949
sg64
(lp2956
g57
(g66
g59
NtRp2957
(dp2958
g62
(dp2959
g70
I4
ssg71
Nsg64
(lp2960
g57
(g73
g59
NtRp2961
(dp2962
g62
(dp2963
sg71
g2957
sg64
(lp2964
g57
(g78
g59
NtRp2965
(dp2966
g62
(dp2967
g82
g83
ssg71
g2961
sg64
(lp2968
S'environ'
p2969
asbag57
(g78
g59
NtRp2970
(dp2971
g62
(dp2972
g89
g90
ssg71
g2961
sg64
(lp2973
S':'
asbag57
(g78
g59
NtRp2974
(dp2975
g62
(dp2976
sg71
g2961
sg64
(lp2977
g57
(g58
g59
NtRp2978
(dp2979
g62
(dp2980
g70
I4
ssg71
g2974
sg64
(lp2981
g57
(g66
g59
NtRp2982
(dp2983
g62
(dp2984
g70
I3
ssg71
Nsg64
(lp2985
g57
(g73
g59
NtRp2986
(dp2987
g62
(dp2988
sg71
g2982
sg64
(lp2989
g57
(g78
g59
NtRp2990
(dp2991
g62
(dp2992
g82
g83
ssg71
g2986
sg64
(lp2993
S'HTTP_ACCEPT'
p2994
asbag57
(g78
g59
NtRp2995
(dp2996
g62
(dp2997
g89
g90
ssg71
g2986
sg64
(lp2998
S':'
asbag57
(g78
g59
NtRp2999
(dp3000
g62
(dp3001
sg71
g2986
sg64
(lp3002
g57
(g58
g59
NtRp3003
(dp3004
g62
(dp3005
g70
I3
ssg71
g2999
sg64
(lp3006
g1558
asbasbasbag57
(g73
g59
NtRp3007
(dp3008
g62
(dp3009
sg71
g2982
sg64
(lp3010
g57
(g78
g59
NtRp3011
(dp3012
g62
(dp3013
g82
g83
ssg71
g3007
sg64
(lp3014
S'HTTP_ACCEPT_CHARSET'
p3015
asbag57
(g78
g59
NtRp3016
(dp3017
g62
(dp3018
g89
g90
ssg71
g3007
sg64
(lp3019
S':'
asbag57
(g78
g59
NtRp3020
(dp3021
g62
(dp3022
sg71
g3007
sg64
(lp3023
g57
(g58
g59
NtRp3024
(dp3025
g62
(dp3026
g70
I3
ssg71
g3020
sg64
(lp3027
g1580
asbasbasbag57
(g73
g59
NtRp3028
(dp3029
g62
(dp3030
sg71
g2982
sg64
(lp3031
g57
(g78
g59
NtRp3032
(dp3033
g62
(dp3034
g82
g83
ssg71
g3028
sg64
(lp3035
S'HTTP_ACCEPT_ENCODING'
p3036
asbag57
(g78
g59
NtRp3037
(dp3038
g62
(dp3039
g89
g90
ssg71
g3028
sg64
(lp3040
S':'
asbag57
(g78
g59
NtRp3041
(dp3042
g62
(dp3043
sg71
g3028
sg64
(lp3044
g57
(g58
g59
NtRp3045
(dp3046
g62
(dp3047
g70
I3
ssg71
g3041
sg64
(lp3048
g1602
asbasbasbag57
(g73
g59
NtRp3049
(dp3050
g62
(dp3051
sg71
g2982
sg64
(lp3052
g57
(g78
g59
NtRp3053
(dp3054
g62
(dp3055
g82
g83
ssg71
g3049
sg64
(lp3056
S'HTTP_ACCEPT_LANGUAGE'
p3057
asbag57
(g78
g59
NtRp3058
(dp3059
g62
(dp3060
g89
g90
ssg71
g3049
sg64
(lp3061
S':'
asbag57
(g78
g59
NtRp3062
(dp3063
g62
(dp3064
sg71
g3049
sg64
(lp3065
g57
(g58
g59
NtRp3066
(dp3067
g62
(dp3068
g70
I3
ssg71
g3062
sg64
(lp3069
g1624
asbasbasbag57
(g73
g59
NtRp3070
(dp3071
g62
(dp3072
sg71
g2982
sg64
(lp3073
g57
(g78
g59
NtRp3074
(dp3075
g62
(dp3076
g82
g83
ssg71
g3070
sg64
(lp3077
S'HTTP_CACHE_CONTROL'
p3078
asbag57
(g78
g59
NtRp3079
(dp3080
g62
(dp3081
g89
g90
ssg71
g3070
sg64
(lp3082
S':'
asbag57
(g78
g59
NtRp3083
(dp3084
g62
(dp3085
sg71
g3070
sg64
(lp3086
g57
(g58
g59
NtRp3087
(dp3088
g62
(dp3089
g70
I3
ssg71
g3083
sg64
(lp3090
g1646
asbasbasbag57
(g73
g59
NtRp3091
(dp3092
g62
(dp3093
sg71
g2982
sg64
(lp3094
g57
(g78
g59
NtRp3095
(dp3096
g62
(dp3097
g82
g83
ssg71
g3091
sg64
(lp3098
S'HTTP_CONNECTION'
p3099
asbag57
(g78
g59
NtRp3100
(dp3101
g62
(dp3102
g89
g90
ssg71
g3091
sg64
(lp3103
S':'
asbag57
(g78
g59
NtRp3104
(dp3105
g62
(dp3106
sg71
g3091
sg64
(lp3107
g57
(g58
g59
NtRp3108
(dp3109
g62
(dp3110
g70
I3
ssg71
g3104
sg64
(lp3111
g1668
asbasbasbag57
(g73
g59
NtRp3112
(dp3113
g62
(dp3114
sg71
g2982
sg64
(lp3115
g57
(g78
g59
NtRp3116
(dp3117
g62
(dp3118
g82
g83
ssg71
g3112
sg64
(lp3119
S'HTTP_COOKIE'
p3120
asbag57
(g78
g59
NtRp3121
(dp3122
g62
(dp3123
g89
g90
ssg71
g3112
sg64
(lp3124
S':'
asbag57
(g78
g59
NtRp3125
(dp3126
g62
(dp3127
sg71
g3112
sg64
(lp3128
g57
(g58
g59
NtRp3129
(dp3130
g62
(dp3131
g70
I3
ssg71
g3125
sg64
(lp3132
g1690
asbasbasbag57
(g73
g59
NtRp3133
(dp3134
g62
(dp3135
sg71
g2982
sg64
(lp3136
g57
(g78
g59
NtRp3137
(dp3138
g62
(dp3139
g82
g83
ssg71
g3133
sg64
(lp3140
S'HTTP_HOST'
p3141
asbag57
(g78
g59
NtRp3142
(dp3143
g62
(dp3144
g89
g90
ssg71
g3133
sg64
(lp3145
S':'
asbag57
(g78
g59
NtRp3146
(dp3147
g62
(dp3148
sg71
g3133
sg64
(lp3149
g57
(g58
g59
NtRp3150
(dp3151
g62
(dp3152
g70
I3
ssg71
g3146
sg64
(lp3153
g1712
asbasbasbag57
(g73
g59
NtRp3154
(dp3155
g62
(dp3156
sg71
g2982
sg64
(lp3157
g57
(g78
g59
NtRp3158
(dp3159
g62
(dp3160
g82
g83
ssg71
g3154
sg64
(lp3161
S'HTTP_USER_AGENT'
p3162
asbag57
(g78
g59
NtRp3163
(dp3164
g62
(dp3165
g89
g90
ssg71
g3154
sg64
(lp3166
S':'
asbag57
(g78
g59
NtRp3167
(dp3168
g62
(dp3169
sg71
g3154
sg64
(lp3170
g57
(g58
g59
NtRp3171
(dp3172
g62
(dp3173
g70
I3
ssg71
g3167
sg64
(lp3174
g1734
asbasbasbag57
(g73
g59
NtRp3175
(dp3176
g62
(dp3177
sg71
g2982
sg64
(lp3178
g57
(g78
g59
NtRp3179
(dp3180
g62
(dp3181
g82
g83
ssg71
g3175
sg64
(lp3182
S'PATH_INFO'
p3183
asbag57
(g78
g59
NtRp3184
(dp3185
g62
(dp3186
g89
g90
ssg71
g3175
sg64
(lp3187
S':'
asbag57
(g78
g59
NtRp3188
(dp3189
g62
(dp3190
sg71
g3175
sg64
(lp3191
g57
(g58
g59
NtRp3192
(dp3193
g62
(dp3194
g70
I3
ssg71
g3188
sg64
(lp3195
g1798
asbasbasbag57
(g73
g59
NtRp3196
(dp3197
g62
(dp3198
sg71
g2982
sg64
(lp3199
g57
(g78
g59
NtRp3200
(dp3201
g62
(dp3202
g82
g83
ssg71
g3196
sg64
(lp3203
S'QUERY_STRING'
p3204
asbag57
(g78
g59
NtRp3205
(dp3206
g62
(dp3207
g89
g90
ssg71
g3196
sg64
(lp3208
S':'
asbag57
(g78
g59
NtRp3209
(dp3210
g62
(dp3211
sg71
g3196
sg64
(lp3212
g57
(g58
g59
NtRp3213
(dp3214
g62
(dp3215
g70
I3
ssg71
g3209
sg64
(lp3216
S''
asbasbasbag57
(g73
g59
NtRp3217
(dp3218
g62
(dp3219
sg71
g2982
sg64
(lp3220
g57
(g78
g59
NtRp3221
(dp3222
g62
(dp3223
g82
g83
ssg71
g3217
sg64
(lp3224
S'REMOTE_ADDR'
p3225
asbag57
(g78
g59
NtRp3226
(dp3227
g62
(dp3228
g89
g90
ssg71
g3217
sg64
(lp3229
S':'
asbag57
(g78
g59
NtRp3230
(dp3231
g62
(dp3232
sg71
g3217
sg64
(lp3233
g57
(g58
g59
NtRp3234
(dp3235
g62
(dp3236
g70
I3
ssg71
g3230
sg64
(lp3237
g190
asbasbasbag57
(g73
g59
NtRp3238
(dp3239
g62
(dp3240
sg71
g2982
sg64
(lp3241
g57
(g78
g59
NtRp3242
(dp3243
g62
(dp3244
g82
g83
ssg71
g3238
sg64
(lp3245
S'REMOTE_PORT'
p3246
asbag57
(g78
g59
NtRp3247
(dp3248
g62
(dp3249
g89
g90
ssg71
g3238
sg64
(lp3250
S':'
asbag57
(g78
g59
NtRp3251
(dp3252
g62
(dp3253
sg71
g3238
sg64
(lp3254
g57
(g58
g59
NtRp3255
(dp3256
g62
(dp3257
g70
I3
ssg71
g3251
sg64
(lp3258
g1862
asbasbasbag57
(g73
g59
NtRp3259
(dp3260
g62
(dp3261
sg71
g2982
sg64
(lp3262
g57
(g78
g59
NtRp3263
(dp3264
g62
(dp3265
g82
g83
ssg71
g3259
sg64
(lp3266
S'REQUEST_METHOD'
p3267
asbag57
(g78
g59
NtRp3268
(dp3269
g62
(dp3270
g89
g90
ssg71
g3259
sg64
(lp3271
S':'
asbag57
(g78
g59
NtRp3272
(dp3273
g62
(dp3274
sg71
g3259
sg64
(lp3275
g57
(g58
g59
NtRp3276
(dp3277
g62
(dp3278
g70
I3
ssg71
g3272
sg64
(lp3279
g1884
asbasbasbag57
(g73
g59
NtRp3280
(dp3281
g62
(dp3282
sg71
g2982
sg64
(lp3283
g57
(g78
g59
NtRp3284
(dp3285
g62
(dp3286
g82
g83
ssg71
g3280
sg64
(lp3287
S'SCRIPT_NAME'
p3288
asbag57
(g78
g59
NtRp3289
(dp3290
g62
(dp3291
g89
g90
ssg71
g3280
sg64
(lp3292
S':'
asbag57
(g78
g59
NtRp3293
(dp3294
g62
(dp3295
sg71
g3280
sg64
(lp3296
g57
(g58
g59
NtRp3297
(dp3298
g62
(dp3299
g70
I3
ssg71
g3293
sg64
(lp3300
S''
asbasbasbag57
(g73
g59
NtRp3301
(dp3302
g62
(dp3303
sg71
g2982
sg64
(lp3304
g57
(g78
g59
NtRp3305
(dp3306
g62
(dp3307
g82
g83
ssg71
g3301
sg64
(lp3308
S'SERVER_NAME'
p3309
asbag57
(g78
g59
NtRp3310
(dp3311
g62
(dp3312
g89
g90
ssg71
g3301
sg64
(lp3313
S':'
asbag57
(g78
g59
NtRp3314
(dp3315
g62
(dp3316
sg71
g3301
sg64
(lp3317
g57
(g58
g59
NtRp3318
(dp3319
g62
(dp3320
g70
I3
ssg71
g3314
sg64
(lp3321
g1927
asbasbasbag57
(g73
g59
NtRp3322
(dp3323
g62
(dp3324
sg71
g2982
sg64
(lp3325
g57
(g78
g59
NtRp3326
(dp3327
g62
(dp3328
g82
g83
ssg71
g3322
sg64
(lp3329
S'SERVER_PORT'
p3330
asbag57
(g78
g59
NtRp3331
(dp3332
g62
(dp3333
g89
g90
ssg71
g3322
sg64
(lp3334
S':'
asbag57
(g78
g59
NtRp3335
(dp3336
g62
(dp3337
sg71
g3322
sg64
(lp3338
g57
(g58
g59
NtRp3339
(dp3340
g62
(dp3341
g70
I3
ssg71
g3335
sg64
(lp3342
g1949
asbasbasbag57
(g73
g59
NtRp3343
(dp3344
g62
(dp3345
sg71
g2982
sg64
(lp3346
g57
(g78
g59
NtRp3347
(dp3348
g62
(dp3349
g82
g83
ssg71
g3343
sg64
(lp3350
S'SERVER_PROTOCOL'
p3351
asbag57
(g78
g59
NtRp3352
(dp3353
g62
(dp3354
g89
g90
ssg71
g3343
sg64
(lp3355
S':'
asbag57
(g78
g59
NtRp3356
(dp3357
g62
(dp3358
sg71
g3343
sg64
(lp3359
g57
(g58
g59
NtRp3360
(dp3361
g62
(dp3362
g70
I3
ssg71
g3356
sg64
(lp3363
g1971
asbasbasbag57
(g73
g59
NtRp3364
(dp3365
g62
(dp3366
sg71
g2982
sg64
(lp3367
g57
(g78
g59
NtRp3368
(dp3369
g62
(dp3370
g82
g83
ssg71
g3364
sg64
(lp3371
S'SERVER_SOFTWARE'
p3372
asbag57
(g78
g59
NtRp3373
(dp3374
g62
(dp3375
g89
g90
ssg71
g3364
sg64
(lp3376
S':'
asbag57
(g78
g59
NtRp3377
(dp3378
g62
(dp3379
sg71
g3364
sg64
(lp3380
g57
(g58
g59
NtRp3381
(dp3382
g62
(dp3383
g70
I3
ssg71
g3377
sg64
(lp3384
g1993
asbasbasbag57
(g73
g59
NtRp3385
(dp3386
g62
(dp3387
sg71
g2982
sg64
(lp3388
g57
(g78
g59
NtRp3389
(dp3390
g62
(dp3391
g82
g83
ssg71
g3385
sg64
(lp3392
S'wsgi.errors'
p3393
asbag57
(g78
g59
NtRp3394
(dp3395
g62
(dp3396
g89
g90
ssg71
g3385
sg64
(lp3397
S':'
asbag57
(g78
g59
NtRp3398
(dp3399
g62
(dp3400
sg71
g3385
sg64
(lp3401
g57
(g58
g59
NtRp3402
(dp3403
g62
(dp3404
g70
I3
ssg71
g3398
sg64
(lp3405
S"<open file '<stderr>', mode 'w' at 0xb74b90d0>"
p3406
asbasbasbag57
(g73
g59
NtRp3407
(dp3408
g62
(dp3409
sg71
g2982
sg64
(lp3410
g57
(g78
g59
NtRp3411
(dp3412
g62
(dp3413
g82
g83
ssg71
g3407
sg64
(lp3414
S'wsgi.file_wrapper'
p3415
asbag57
(g78
g59
NtRp3416
(dp3417
g62
(dp3418
g89
g90
ssg71
g3407
sg64
(lp3419
S':'
asbag57
(g78
g59
NtRp3420
(dp3421
g62
(dp3422
sg71
g3407
sg64
(lp3423
g57
(g58
g59
NtRp3424
(dp3425
g62
(dp3426
g70
I3
ssg71
g3420
sg64
(lp3427
S'<class wsgiref.util.FileWrapper at 0x95692cc>'
p3428
asbasbasbag57
(g73
g59
NtRp3429
(dp3430
g62
(dp3431
sg71
g2982
sg64
(lp3432
g57
(g78
g59
NtRp3433
(dp3434
g62
(dp3435
g82
g83
ssg71
g3429
sg64
(lp3436
S'wsgi.input'
p3437
asbag57
(g78
g59
NtRp3438
(dp3439
g62
(dp3440
g89
g90
ssg71
g3429
sg64
(lp3441
S':'
asbag57
(g78
g59
NtRp3442
(dp3443
g62
(dp3444
sg71
g3429
sg64
(lp3445
g57
(g58
g59
NtRp3446
(dp3447
g62
(dp3448
g70
I3
ssg71
g3442
sg64
(lp3449
S'<cStringIO.StringO object at 0x96374e0>'
p3450
asbasbasbag57
(g73
g59
NtRp3451
(dp3452
g62
(dp3453
sg71
g2982
sg64
(lp3454
g57
(g78
g59
NtRp3455
(dp3456
g62
(dp3457
g82
g83
ssg71
g3451
sg64
(lp3458
S'wsgi.multiprocess'
p3459
asbag57
(g78
g59
NtRp3460
(dp3461
g62
(dp3462
g89
g90
ssg71
g3451
sg64
(lp3463
S':'
asbag57
(g78
g59
NtRp3464
(dp3465
g62
(dp3466
sg71
g3451
sg64
(lp3467
g57
(g58
g59
NtRp3468
(dp3469
g62
(dp3470
g70
I3
ssg71
g3464
sg64
(lp3471
g100
asbasbasbag57
(g73
g59
NtRp3472
(dp3473
g62
(dp3474
sg71
g2982
sg64
(lp3475
g57
(g78
g59
NtRp3476
(dp3477
g62
(dp3478
g82
g83
ssg71
g3472
sg64
(lp3479
S'wsgi.multithread'
p3480
asbag57
(g78
g59
NtRp3481
(dp3482
g62
(dp3483
g89
g90
ssg71
g3472
sg64
(lp3484
S':'
asbag57
(g78
g59
NtRp3485
(dp3486
g62
(dp3487
sg71
g3472
sg64
(lp3488
g57
(g58
g59
NtRp3489
(dp3490
g62
(dp3491
g70
I3
ssg71
g3485
sg64
(lp3492
g2233
asbasbasbag57
(g73
g59
NtRp3493
(dp3494
g62
(dp3495
sg71
g2982
sg64
(lp3496
g57
(g78
g59
NtRp3497
(dp3498
g62
(dp3499
g82
g83
ssg71
g3493
sg64
(lp3500
S'wsgi.run_once'
p3501
asbag57
(g78
g59
NtRp3502
(dp3503
g62
(dp3504
g89
g90
ssg71
g3493
sg64
(lp3505
S':'
asbag57
(g78
g59
NtRp3506
(dp3507
g62
(dp3508
sg71
g3493
sg64
(lp3509
g57
(g58
g59
NtRp3510
(dp3511
g62
(dp3512
g70
I3
ssg71
g3506
sg64
(lp3513
g100
asbasbasbag57
(g73
g59
NtRp3514
(dp3515
g62
(dp3516
sg71
g2982
sg64
(lp3517
g57
(g78
g59
NtRp3518
(dp3519
g62
(dp3520
g82
g83
ssg71
g3514
sg64
(lp3521
S'wsgi.url_scheme'
p3522
asbag57
(g78
g59
NtRp3523
(dp3524
g62
(dp3525
g89
g90
ssg71
g3514
sg64
(lp3526
S':'
asbag57
(g78
g59
NtRp3527
(dp3528
g62
(dp3529
sg71
g3514
sg64
(lp3530
g57
(g58
g59
NtRp3531
(dp3532
g62
(dp3533
g70
I3
ssg71
g3527
sg64
(lp3534
g2276
asbasbasbag57
(g73
g59
NtRp3535
(dp3536
g62
(dp3537
sg71
g2982
sg64
(lp3538
g57
(g78
g59
NtRp3539
(dp3540
g62
(dp3541
g82
g83
ssg71
g3535
sg64
(lp3542
S'wsgi.version'
p3543
asbag57
(g78
g59
NtRp3544
(dp3545
g62
(dp3546
g89
g90
ssg71
g3535
sg64
(lp3547
S':'
asbag57
(g78
g59
NtRp3548
(dp3549
g62
(dp3550
sg71
g3535
sg64
(lp3551
g57
(g58
g59
NtRp3552
(dp3553
g62
(dp3554
g70
I3
ssg71
g3548
sg64
(lp3555
S'1'
asbasbasbasbasbasbasbasbasbasbasbasbasbsS'frames'
p3556
(lp3557
(dp3558
S'file'
p3559
S'/home/shaz/Documents/Development/web2py/gluon/restricted.py'
p3560
sS'dump'
p3561
(dp3562
S'environment'
p3563
S"{'A': <class 'gluon.html.A'>, 'Auth': <class 'gluon.tools.Auth'>, 'B': <class 'gluon.html.B'>, 'BEAUTIFY': <class 'gluon.html.BEAUTIFY'>, 'BODY': <class 'gluon.html.BODY'>, 'BR': <class 'gluon.html.BR'>, 'BUTTON': <class 'gluon.html.BUTTON'>, 'CAT': <class 'gluon.html.CAT'>, 'CENTER': <class 'gluon.html.CENTER'>, 'CLEANUP': <class 'gluon.validators.CLEANUP'>, ...}"
p3564
sS'ccode'
p3565
S'<code object <module> at 0x9725d10, file "/home/...ns/FormalSignUp/controllers/default.py", line 12>'
p3566
ssS'lnum'
p3567
I204
sS'lines'
p3568
(dp3569
I199
S'    try:'
p3570
sI200
S'        if type(code) == types.CodeType:'
p3571
sI201
S'            ccode = code'
p3572
sI202
S'        else:'
p3573
sI203
S'            ccode = compile2(code,layer)'
p3574
sI204
S'        exec ccode in environment'
p3575
sI205
S'    except HTTP:'
p3576
sI206
S'        raise'
p3577
sI207
S'    except RestrictedError:'
p3578
sI208
S'        # do not encapsulate (obfuscate) the original RestrictedError'
p3579
ssS'call'
p3580
S"(code='# -*- coding: utf-8 -*-\\n# this file is released ...crud())\\n\\n\\nresponse._vars=response._caller(index)\\n', environment={'A': <class 'gluon.html.A'>, 'Auth': <class 'gluon.tools.Auth'>, 'B': <class 'gluon.html.B'>, 'BEAUTIFY': <class 'gluon.html.BEAUTIFY'>, 'BODY': <class 'gluon.html.BODY'>, 'BR': <class 'gluon.html.BR'>, 'BUTTON': <class 'gluon.html.BUTTON'>, 'CAT': <class 'gluon.html.CAT'>, 'CENTER': <class 'gluon.html.CENTER'>, 'CLEANUP': <class 'gluon.validators.CLEANUP'>, ...}, layer='/home/shaz/Documents/Development/web2py/applications/FormalSignUp/controllers/default.py')"
p3581
sS'func'
p3582
S'restricted'
p3583
sa(dp3584
g3559
S'/home/shaz/Documents/Development/web2py/applications/FormalSignUp/controllers/default.py'
p3585
sg3561
(dp3586
S'SignUpController'
p3587
S'undefined'
p3588
ssg3567
I13
sg3568
(dp3589
I8
S'## - download is for downloading files uploaded in the db (does streaming)'
p3590
sI9
S'## - call exposes all registered services (none by default)'
p3591
sI10
S'########################################################################'
p3592
sI11
S''
sI12
S'from gluon.custom_import import track_changes; track_changes(True)'
p3593
sI13
S'import SignUpController'
p3594
sI14
S''
sI15
S'pointer_list_for_current_signedup_formals = []'
p3595
sI16
S''
sI17
S'@auth.requires_login()'
p3596
ssg3580
S'()'
p3597
sg3582
S'<module>'
p3598
sa(dp3599
g3559
S'/home/shaz/Documents/Development/web2py/gluon/custom_import.py'
p3600
sg3561
(dp3601
S'fromlist'
p3602
S'[]'
p3603
sS'globals'
p3604
S"{'A': <class 'gluon.html.A'>, 'Auth': <class 'gluon.tools.Auth'>, 'B': <class 'gluon.html.B'>, 'BEAUTIFY': <class 'gluon.html.BEAUTIFY'>, 'BODY': <class 'gluon.html.BODY'>, 'BR': <class 'gluon.html.BR'>, 'BUTTON': <class 'gluon.html.BUTTON'>, 'CAT': <class 'gluon.html.CAT'>, 'CENTER': <class 'gluon.html.CENTER'>, 'CLEANUP': <class 'gluon.validators.CLEANUP'>, ...}"
p3605
sS'locals'
p3606
S"{'A': <class 'gluon.html.A'>, 'Auth': <class 'gluon.tools.Auth'>, 'B': <class 'gluon.html.B'>, 'BEAUTIFY': <class 'gluon.html.BEAUTIFY'>, 'BODY': <class 'gluon.html.BODY'>, 'BR': <class 'gluon.html.BR'>, 'BUTTON': <class 'gluon.html.BUTTON'>, 'CAT': <class 'gluon.html.CAT'>, 'CENTER': <class 'gluon.html.CENTER'>, 'CLEANUP': <class 'gluon.validators.CLEANUP'>, ...}"
p3607
sS'level'
p3608
S'-1'
p3609
ssg3567
I284
sg3568
(dp3610
I288
S'                            .__call__(modules_prefix+"."+name,'
p3611
sI279
S'                        ".".join((match_app_dir.group(1). \\'
p3612
sI280
S'                        replace(os.path.sep, "."), "modules"))'
p3613
sI281
S'                    if not fromlist:'
p3614
sI282
S'                        # import like "import x" or "import x.y"'
p3615
sI283
S'                        return self.__import__dot(modules_prefix, name,'
p3616
sI284
S'                            globals, locals, fromlist, level)'
p3617
sI285
S'                    else:'
p3618
sI286
S'                        # import like "from x import a, b, ..."'
p3619
sI287
S'                        return super(_Web2pyImporter, self) \\'
p3620
ssg3580
S"(self=<gluon.custom_import._Web2pyDateTrackerImporter object>, name='SignUpController', globals={'A': <class 'gluon.html.A'>, 'Auth': <class 'gluon.tools.Auth'>, 'B': <class 'gluon.html.B'>, 'BEAUTIFY': <class 'gluon.html.BEAUTIFY'>, 'BODY': <class 'gluon.html.BODY'>, 'BR': <class 'gluon.html.BR'>, 'BUTTON': <class 'gluon.html.BUTTON'>, 'CAT': <class 'gluon.html.CAT'>, 'CENTER': <class 'gluon.html.CENTER'>, 'CLEANUP': <class 'gluon.validators.CLEANUP'>, ...}, locals={'A': <class 'gluon.html.A'>, 'Auth': <class 'gluon.tools.Auth'>, 'B': <class 'gluon.html.B'>, 'BEAUTIFY': <class 'gluon.html.BEAUTIFY'>, 'BODY': <class 'gluon.html.BODY'>, 'BR': <class 'gluon.html.BR'>, 'BUTTON': <class 'gluon.html.BUTTON'>, 'CAT': <class 'gluon.html.CAT'>, 'CENTER': <class 'gluon.html.CENTER'>, 'CLEANUP': <class 'gluon.validators.CLEANUP'>, ...}, fromlist=[], level=-1)"
p3621
sg3582
S'__call__'
p3622
sa(dp3623
g3559
S'/home/shaz/Documents/Development/web2py/gluon/custom_import.py'
p3624
sg3561
(dp3625
S'name'
p3626
S"'SignUpController'"
p3627
sS'locals'
p3628
S"{'A': <class 'gluon.html.A'>, 'Auth': <class 'gluon.tools.Auth'>, 'B': <class 'gluon.html.B'>, 'BEAUTIFY': <class 'gluon.html.BEAUTIFY'>, 'BODY': <class 'gluon.html.BODY'>, 'BR': <class 'gluon.html.BR'>, 'BUTTON': <class 'gluon.html.BUTTON'>, 'CAT': <class 'gluon.html.CAT'>, 'CENTER': <class 'gluon.html.CENTER'>, 'CLEANUP': <class 'gluon.validators.CLEANUP'>, ...}"
p3629
sS'level'
p3630
S'-1'
p3631
ssg3567
I312
sg3568
(dp3632
I307
S'        """'
p3633
sI308
S''
sI309
S'        result = None'
p3634
sI310
S'        for name in name.split("."):'
p3635
sI311
S'            new_mod = super(_Web2pyImporter, self).__call__(prefix, globals,'
p3636
sI312
S'                                                        locals, [name], level)'
p3637
sI313
S'            try:'
p3638
sI314
S'                result = result or new_mod.__dict__[name]'
p3639
sI315
S'            except KeyError:'
p3640
sI316
S'                raise ImportError()'
p3641
ssg3580
S"(self=<gluon.custom_import._Web2pyDateTrackerImporter object>, prefix='applications.FormalSignUp.modules', name='SignUpController', globals={'A': <class 'gluon.html.A'>, 'Auth': <class 'gluon.tools.Auth'>, 'B': <class 'gluon.html.B'>, 'BEAUTIFY': <class 'gluon.html.BEAUTIFY'>, 'BODY': <class 'gluon.html.BODY'>, 'BR': <class 'gluon.html.BR'>, 'BUTTON': <class 'gluon.html.BUTTON'>, 'CAT': <class 'gluon.html.CAT'>, 'CENTER': <class 'gluon.html.CENTER'>, 'CLEANUP': <class 'gluon.validators.CLEANUP'>, ...}, locals={'A': <class 'gluon.html.A'>, 'Auth': <class 'gluon.tools.Auth'>, 'B': <class 'gluon.html.B'>, 'BEAUTIFY': <class 'gluon.html.BEAUTIFY'>, 'BODY': <class 'gluon.html.BODY'>, 'BR': <class 'gluon.html.BR'>, 'BUTTON': <class 'gluon.html.BUTTON'>, 'CAT': <class 'gluon.html.CAT'>, 'CENTER': <class 'gluon.html.CENTER'>, 'CLEANUP': <class 'gluon.validators.CLEANUP'>, ...}, fromlist=[], level=-1)"
p3642
sg3582
S'__import__dot'
p3643
sa(dp3644
g3559
S'/home/shaz/Documents/Development/web2py/gluon/custom_import.py'
p3645
sg3561
(dp3646
S'e'
S'NameError("name \'user_list\' is not defined",)'
p3647
ssg3567
I132
sg3568
(dp3648
I128
S'            # Module maybe loaded for the 1st time so we need to set the date'
p3649
sI129
S'            self._update_dates(name, fromlist)'
p3650
sI130
S'            return result'
p3651
sI131
S'        except Exception, e:'
p3652
sI132
S"            raise e  # Don't hide something that went wrong"
p3653
sI133
S'        finally:'
p3654
sI134
S'            if call_begin_end:'
p3655
sI135
S'                self.end()'
p3656
sI136
S''
sI127
S'              .__call__(name, globals, locals, fromlist, level)'
p3657
ssg3580
S"(self=<gluon.custom_import._Web2pyDateTrackerImporter object>, name='applications.FormalSignUp.modules', globals={'A': <class 'gluon.html.A'>, 'Auth': <class 'gluon.tools.Auth'>, 'B': <class 'gluon.html.B'>, 'BEAUTIFY': <class 'gluon.html.BEAUTIFY'>, 'BODY': <class 'gluon.html.BODY'>, 'BR': <class 'gluon.html.BR'>, 'BUTTON': <class 'gluon.html.BUTTON'>, 'CAT': <class 'gluon.html.CAT'>, 'CENTER': <class 'gluon.html.CENTER'>, 'CLEANUP': <class 'gluon.validators.CLEANUP'>, ...}, locals={'A': <class 'gluon.html.A'>, 'Auth': <class 'gluon.tools.Auth'>, 'B': <class 'gluon.html.B'>, 'BEAUTIFY': <class 'gluon.html.BEAUTIFY'>, 'BODY': <class 'gluon.html.BODY'>, 'BR': <class 'gluon.html.BR'>, 'BUTTON': <class 'gluon.html.BUTTON'>, 'CAT': <class 'gluon.html.CAT'>, 'CENTER': <class 'gluon.html.CENTER'>, 'CLEANUP': <class 'gluon.validators.CLEANUP'>, ...}, fromlist=['SignUpController'], level=-1)"
p3658
sg3582
g3622
sasS'pyver'
p3659
S'Python 2.7.2+: /usr/bin/python'
p3660
sS'session'
p3661
g57
(g58
g59
NtRp3662
(dp3663
g62
(dp3664
sg64
(lp3665
g57
(g66
g59
NtRp3666
(dp3667
g62
(dp3668
g70
I5
ssg71
Nsg64
(lp3669
sbasbsS'etype'
p3670
S"<type 'exceptions.NameError'>"
p3671
sS'date'
p3672
S'Wed Feb 29 01:50:40 2012'
p3673
sS'response'
p3674
g57
(g58
g59
NtRp3675
(dp3676
g62
(dp3677
sg64
(lp3678
g57
(g66
g59
NtRp3679
(dp3680
g62
(dp3681
g70
I5
ssg71
Nsg64
(lp3682
g57
(g73
g59
NtRp3683
(dp3684
g62
(dp3685
sg71
g3679
sg64
(lp3686
g57
(g78
g59
NtRp3687
(dp3688
g62
(dp3689
g82
g83
ssg71
g3683
sg64
(lp3690
g155
asbag57
(g78
g59
NtRp3691
(dp3692
g62
(dp3693
g89
g90
ssg71
g3683
sg64
(lp3694
S':'
asbag57
(g78
g59
NtRp3695
(dp3696
g62
(dp3697
sg71
g3683
sg64
(lp3698
g57
(g58
g59
NtRp3699
(dp3700
g62
(dp3701
g70
I5
ssg71
g3695
sg64
(lp3702
S'<cStringIO.StringO object at 0x9633e80>'
p3703
asbasbasbag57
(g73
g59
NtRp3704
(dp3705
g62
(dp3706
sg71
g3679
sg64
(lp3707
g57
(g78
g59
NtRp3708
(dp3709
g62
(dp3710
g82
g83
ssg71
g3704
sg64
(lp3711
g221
asbag57
(g78
g59
NtRp3712
(dp3713
g62
(dp3714
g89
g90
ssg71
g3704
sg64
(lp3715
S':'
asbag57
(g78
g59
NtRp3716
(dp3717
g62
(dp3718
sg71
g3704
sg64
(lp3719
g57
(g58
g59
NtRp3720
(dp3721
g62
(dp3722
g70
I5
ssg71
g3716
sg64
(lp3723
g57
(g66
g59
NtRp3724
(dp3725
g62
(dp3726
g70
I4
ssg71
Nsg64
(lp3727
g57
(g73
g59
NtRp3728
(dp3729
g62
(dp3730
sg71
g3724
sg64
(lp3731
g57
(g78
g59
NtRp3732
(dp3733
g62
(dp3734
g82
g83
ssg71
g3728
sg64
(lp3735
S'session_id_formalsignup'
p3736
asbag57
(g78
g59
NtRp3737
(dp3738
g62
(dp3739
g89
g90
ssg71
g3728
sg64
(lp3740
S':'
asbag57
(g78
g59
NtRp3741
(dp3742
g62
(dp3743
sg71
g3728
sg64
(lp3744
g57
(g58
g59
NtRp3745
(dp3746
g62
(dp3747
g70
I4
ssg71
g3741
sg64
(lp3748
g57
(g66
g59
NtRp3749
(dp3750
g62
(dp3751
g70
I3
ssg71
Nsg64
(lp3752
g57
(g73
g59
NtRp3753
(dp3754
g62
(dp3755
sg71
g3749
sg64
(lp3756
g57
(g78
g59
NtRp3757
(dp3758
g62
(dp3759
g82
g83
ssg71
g3753
sg64
(lp3760
g271
asbag57
(g78
g59
NtRp3761
(dp3762
g62
(dp3763
g89
g90
ssg71
g3753
sg64
(lp3764
S':'
asbag57
(g78
g59
NtRp3765
(dp3766
g62
(dp3767
sg71
g3753
sg64
(lp3768
g57
(g58
g59
NtRp3769
(dp3770
g62
(dp3771
g70
I3
ssg71
g3765
sg64
(lp3772
S''
asbasbasbag57
(g73
g59
NtRp3773
(dp3774
g62
(dp3775
sg71
g3749
sg64
(lp3776
g57
(g78
g59
NtRp3777
(dp3778
g62
(dp3779
g82
g83
ssg71
g3773
sg64
(lp3780
g292
asbag57
(g78
g59
NtRp3781
(dp3782
g62
(dp3783
g89
g90
ssg71
g3773
sg64
(lp3784
S':'
asbag57
(g78
g59
NtRp3785
(dp3786
g62
(dp3787
sg71
g3773
sg64
(lp3788
g57
(g58
g59
NtRp3789
(dp3790
g62
(dp3791
g70
I3
ssg71
g3785
sg64
(lp3792
S''
asbasbasbag57
(g73
g59
NtRp3793
(dp3794
g62
(dp3795
sg71
g3749
sg64
(lp3796
g57
(g78
g59
NtRp3797
(dp3798
g62
(dp3799
g82
g83
ssg71
g3793
sg64
(lp3800
g313
asbag57
(g78
g59
NtRp3801
(dp3802
g62
(dp3803
g89
g90
ssg71
g3793
sg64
(lp3804
S':'
asbag57
(g78
g59
NtRp3805
(dp3806
g62
(dp3807
sg71
g3793
sg64
(lp3808
g57
(g58
g59
NtRp3809
(dp3810
g62
(dp3811
g70
I3
ssg71
g3805
sg64
(lp3812
S''
asbasbasbag57
(g73
g59
NtRp3813
(dp3814
g62
(dp3815
sg71
g3749
sg64
(lp3816
g57
(g78
g59
NtRp3817
(dp3818
g62
(dp3819
g82
g83
ssg71
g3813
sg64
(lp3820
g334
asbag57
(g78
g59
NtRp3821
(dp3822
g62
(dp3823
g89
g90
ssg71
g3813
sg64
(lp3824
S':'
asbag57
(g78
g59
NtRp3825
(dp3826
g62
(dp3827
sg71
g3813
sg64
(lp3828
g57
(g58
g59
NtRp3829
(dp3830
g62
(dp3831
g70
I3
ssg71
g3825
sg64
(lp3832
S''
asbasbasbag57
(g73
g59
NtRp3833
(dp3834
g62
(dp3835
sg71
g3749
sg64
(lp3836
g57
(g78
g59
NtRp3837
(dp3838
g62
(dp3839
g82
g83
ssg71
g3833
sg64
(lp3840
g355
asbag57
(g78
g59
NtRp3841
(dp3842
g62
(dp3843
g89
g90
ssg71
g3833
sg64
(lp3844
S':'
asbag57
(g78
g59
NtRp3845
(dp3846
g62
(dp3847
sg71
g3833
sg64
(lp3848
g57
(g58
g59
NtRp3849
(dp3850
g62
(dp3851
g70
I3
ssg71
g3845
sg64
(lp3852
S''
asbasbasbag57
(g73
g59
NtRp3853
(dp3854
g62
(dp3855
sg71
g3749
sg64
(lp3856
g57
(g78
g59
NtRp3857
(dp3858
g62
(dp3859
g82
g83
ssg71
g3853
sg64
(lp3860
g376
asbag57
(g78
g59
NtRp3861
(dp3862
g62
(dp3863
g89
g90
ssg71
g3853
sg64
(lp3864
S':'
asbag57
(g78
g59
NtRp3865
(dp3866
g62
(dp3867
sg71
g3853
sg64
(lp3868
g57
(g58
g59
NtRp3869
(dp3870
g62
(dp3871
g70
I3
ssg71
g3865
sg64
(lp3872
S'/'
asbasbasbag57
(g73
g59
NtRp3873
(dp3874
g62
(dp3875
sg71
g3749
sg64
(lp3876
g57
(g78
g59
NtRp3877
(dp3878
g62
(dp3879
g82
g83
ssg71
g3873
sg64
(lp3880
g397
asbag57
(g78
g59
NtRp3881
(dp3882
g62
(dp3883
g89
g90
ssg71
g3873
sg64
(lp3884
S':'
asbag57
(g78
g59
NtRp3885
(dp3886
g62
(dp3887
sg71
g3873
sg64
(lp3888
g57
(g58
g59
NtRp3889
(dp3890
g62
(dp3891
g70
I3
ssg71
g3885
sg64
(lp3892
S''
asbasbasbag57
(g73
g59
NtRp3893
(dp3894
g62
(dp3895
sg71
g3749
sg64
(lp3896
g57
(g78
g59
NtRp3897
(dp3898
g62
(dp3899
g82
g83
ssg71
g3893
sg64
(lp3900
g418
asbag57
(g78
g59
NtRp3901
(dp3902
g62
(dp3903
g89
g90
ssg71
g3893
sg64
(lp3904
S':'
asbag57
(g78
g59
NtRp3905
(dp3906
g62
(dp3907
sg71
g3893
sg64
(lp3908
g57
(g58
g59
NtRp3909
(dp3910
g62
(dp3911
g70
I3
ssg71
g3905
sg64
(lp3912
S''
asbasbasbasbasbasbasbasbasbasbasbag57
(g73
g59
NtRp3913
(dp3914
g62
(dp3915
sg71
g3679
sg64
(lp3916
g57
(g78
g59
NtRp3917
(dp3918
g62
(dp3919
g82
g83
ssg71
g3913
sg64
(lp3920
S'files'
p3921
asbag57
(g78
g59
NtRp3922
(dp3923
g62
(dp3924
g89
g90
ssg71
g3913
sg64
(lp3925
S':'
asbag57
(g78
g59
NtRp3926
(dp3927
g62
(dp3928
sg71
g3913
sg64
(lp3929
g57
(g58
g59
NtRp3930
(dp3931
g62
(dp3932
g70
I5
ssg71
g3926
sg64
(lp3933
g57
(g66
g59
NtRp3934
(dp3935
g62
(dp3936
g70
I4
ssg71
Nsg64
(lp3937
sbasbasbasbag57
(g73
g59
NtRp3938
(dp3939
g62
(dp3940
sg71
g3679
sg64
(lp3941
g57
(g78
g59
NtRp3942
(dp3943
g62
(dp3944
g82
g83
ssg71
g3938
sg64
(lp3945
S'flash'
p3946
asbag57
(g78
g59
NtRp3947
(dp3948
g62
(dp3949
g89
g90
ssg71
g3938
sg64
(lp3950
S':'
asbag57
(g78
g59
NtRp3951
(dp3952
g62
(dp3953
sg71
g3938
sg64
(lp3954
g57
(g58
g59
NtRp3955
(dp3956
g62
(dp3957
g70
I5
ssg71
g3951
sg64
(lp3958
S''
asbasbasbag57
(g73
g59
NtRp3959
(dp3960
g62
(dp3961
sg71
g3679
sg64
(lp3962
g57
(g78
g59
NtRp3963
(dp3964
g62
(dp3965
g82
g83
ssg71
g3959
sg64
(lp3966
S'generic_patterns'
p3967
asbag57
(g78
g59
NtRp3968
(dp3969
g62
(dp3970
g89
g90
ssg71
g3959
sg64
(lp3971
S':'
asbag57
(g78
g59
NtRp3972
(dp3973
g62
(dp3974
sg71
g3959
sg64
(lp3975
g57
(g58
g59
NtRp3976
(dp3977
g62
(dp3978
g70
I5
ssg71
g3972
sg64
(lp3979
g57
(g66
g59
NtRp3980
(dp3981
g62
(dp3982
g70
I4
ssg71
Nsg64
(lp3983
g57
(g73
g59
NtRp3984
(dp3985
g62
(dp3986
sg71
g3980
sg64
(lp3987
g57
(g78
g59
NtRp3988
(dp3989
g62
(dp3990
sg71
g3984
sg64
(lp3991
g57
(g58
g59
NtRp3992
(dp3993
g62
(dp3994
g70
I4
ssg71
g3988
sg64
(lp3995
S'*'
asbasbasbasbasbasbasbag57
(g73
g59
NtRp3996
(dp3997
g62
(dp3998
sg71
g3679
sg64
(lp3999
g57
(g78
g59
NtRp4000
(dp4001
g62
(dp4002
g82
g83
ssg71
g3996
sg64
(lp4003
S'headers'
p4004
asbag57
(g78
g59
NtRp4005
(dp4006
g62
(dp4007
g89
g90
ssg71
g3996
sg64
(lp4008
S':'
asbag57
(g78
g59
NtRp4009
(dp4010
g62
(dp4011
sg71
g3996
sg64
(lp4012
g57
(g58
g59
NtRp4013
(dp4014
g62
(dp4015
g70
I5
ssg71
g4009
sg64
(lp4016
g57
(g66
g59
NtRp4017
(dp4018
g62
(dp4019
g70
I4
ssg71
Nsg64
(lp4020
g57
(g73
g59
NtRp4021
(dp4022
g62
(dp4023
sg71
g4017
sg64
(lp4024
g57
(g78
g59
NtRp4025
(dp4026
g62
(dp4027
g82
g83
ssg71
g4021
sg64
(lp4028
S'Cache-Control'
p4029
asbag57
(g78
g59
NtRp4030
(dp4031
g62
(dp4032
g89
g90
ssg71
g4021
sg64
(lp4033
S':'
asbag57
(g78
g59
NtRp4034
(dp4035
g62
(dp4036
sg71
g4021
sg64
(lp4037
g57
(g58
g59
NtRp4038
(dp4039
g62
(dp4040
g70
I4
ssg71
g4034
sg64
(lp4041
S'no-store, no-cache, must-revalidate, post-check=0, pre-check=0'
p4042
asbasbasbag57
(g73
g59
NtRp4043
(dp4044
g62
(dp4045
sg71
g4017
sg64
(lp4046
g57
(g78
g59
NtRp4047
(dp4048
g62
(dp4049
g82
g83
ssg71
g4043
sg64
(lp4050
S'Content-Type'
p4051
asbag57
(g78
g59
NtRp4052
(dp4053
g62
(dp4054
g89
g90
ssg71
g4043
sg64
(lp4055
S':'
asbag57
(g78
g59
NtRp4056
(dp4057
g62
(dp4058
sg71
g4043
sg64
(lp4059
g57
(g58
g59
NtRp4060
(dp4061
g62
(dp4062
g70
I4
ssg71
g4056
sg64
(lp4063
S'text/html; charset=utf-8'
p4064
asbasbasbag57
(g73
g59
NtRp4065
(dp4066
g62
(dp4067
sg71
g4017
sg64
(lp4068
g57
(g78
g59
NtRp4069
(dp4070
g62
(dp4071
g82
g83
ssg71
g4065
sg64
(lp4072
S'Expires'
p4073
asbag57
(g78
g59
NtRp4074
(dp4075
g62
(dp4076
g89
g90
ssg71
g4065
sg64
(lp4077
S':'
asbag57
(g78
g59
NtRp4078
(dp4079
g62
(dp4080
sg71
g4065
sg64
(lp4081
g57
(g58
g59
NtRp4082
(dp4083
g62
(dp4084
g70
I4
ssg71
g4078
sg64
(lp4085
S'Wed, 29 Feb 2012 01:50:40 GMT'
p4086
asbasbasbag57
(g73
g59
NtRp4087
(dp4088
g62
(dp4089
sg71
g4017
sg64
(lp4090
g57
(g78
g59
NtRp4091
(dp4092
g62
(dp4093
g82
g83
ssg71
g4087
sg64
(lp4094
S'Pragma'
p4095
asbag57
(g78
g59
NtRp4096
(dp4097
g62
(dp4098
g89
g90
ssg71
g4087
sg64
(lp4099
S':'
asbag57
(g78
g59
NtRp4100
(dp4101
g62
(dp4102
sg71
g4087
sg64
(lp4103
g57
(g58
g59
NtRp4104
(dp4105
g62
(dp4106
g70
I4
ssg71
g4100
sg64
(lp4107
S'no-cache'
p4108
asbasbasbag57
(g73
g59
NtRp4109
(dp4110
g62
(dp4111
sg71
g4017
sg64
(lp4112
g57
(g78
g59
NtRp4113
(dp4114
g62
(dp4115
g82
g83
ssg71
g4109
sg64
(lp4116
S'X-Powered-By'
p4117
asbag57
(g78
g59
NtRp4118
(dp4119
g62
(dp4120
g89
g90
ssg71
g4109
sg64
(lp4121
S':'
asbag57
(g78
g59
NtRp4122
(dp4123
g62
(dp4124
sg71
g4109
sg64
(lp4125
g57
(g58
g59
NtRp4126
(dp4127
g62
(dp4128
g70
I4
ssg71
g4122
sg64
(lp4129
S'web2py'
p4130
asbasbasbasbasbasbasbag57
(g73
g59
NtRp4131
(dp4132
g62
(dp4133
sg71
g3679
sg64
(lp4134
g57
(g78
g59
NtRp4135
(dp4136
g62
(dp4137
g82
g83
ssg71
g4131
sg64
(lp4138
S'menu'
p4139
asbag57
(g78
g59
NtRp4140
(dp4141
g62
(dp4142
g89
g90
ssg71
g4131
sg64
(lp4143
S':'
asbag57
(g78
g59
NtRp4144
(dp4145
g62
(dp4146
sg71
g4131
sg64
(lp4147
g57
(g58
g59
NtRp4148
(dp4149
g62
(dp4150
g70
I5
ssg71
g4144
sg64
(lp4151
g57
(g66
g59
NtRp4152
(dp4153
g62
(dp4154
g70
I4
ssg71
Nsg64
(lp4155
g57
(g73
g59
NtRp4156
(dp4157
g62
(dp4158
sg71
g4152
sg64
(lp4159
g57
(g78
g59
NtRp4160
(dp4161
g62
(dp4162
sg71
g4156
sg64
(lp4163
g57
(g58
g59
NtRp4164
(dp4165
g62
(dp4166
g70
I4
ssg71
g4160
sg64
(lp4167
g57
(g66
g59
NtRp4168
(dp4169
g62
(dp4170
g70
I3
ssg71
Nsg64
(lp4171
g57
(g73
g59
NtRp4172
(dp4173
g62
(dp4174
sg71
g4168
sg64
(lp4175
g57
(g78
g59
NtRp4176
(dp4177
g62
(dp4178
sg71
g4172
sg64
(lp4179
g57
(g58
g59
NtRp4180
(dp4181
g62
(dp4182
g70
I3
ssg71
g4176
sg64
(lp4183
cgluon.languages
lazyT_unpickle
p4184
(S't\x04\x00\x00\x00Home'
tRp4185
asbasbasbag57
(g73
g59
NtRp4186
(dp4187
g62
(dp4188
sg71
g4168
sg64
(lp4189
g57
(g78
g59
NtRp4190
(dp4191
g62
(dp4192
sg71
g4186
sg64
(lp4193
g57
(g58
g59
NtRp4194
(dp4195
g62
(dp4196
g70
I3
ssg71
g4190
sg64
(lp4197
g100
asbasbasbag57
(g73
g59
NtRp4198
(dp4199
g62
(dp4200
sg71
g4168
sg64
(lp4201
g57
(g78
g59
NtRp4202
(dp4203
g62
(dp4204
sg71
g4198
sg64
(lp4205
g57
(g58
g59
NtRp4206
(dp4207
g62
(dp4208
g70
I3
ssg71
g4202
sg64
(lp4209
S'/FormalSignUp/default/index'
p4210
asbasbasbag57
(g73
g59
NtRp4211
(dp4212
g62
(dp4213
sg71
g4168
sg64
(lp4214
g57
(g78
g59
NtRp4215
(dp4216
g62
(dp4217
sg71
g4211
sg64
(lp4218
g57
(g58
g59
NtRp4219
(dp4220
g62
(dp4221
g70
I3
ssg71
g4215
sg64
(lp4222
g57
(g66
g59
NtRp4223
(dp4224
g62
(dp4225
g70
I2
ssg71
Nsg64
(lp4226
sbasbasbasbasbasbasbasbag57
(g73
g59
NtRp4227
(dp4228
g62
(dp4229
sg71
g4152
sg64
(lp4230
g57
(g78
g59
NtRp4231
(dp4232
g62
(dp4233
sg71
g4227
sg64
(lp4234
g57
(g58
g59
NtRp4235
(dp4236
g62
(dp4237
g70
I4
ssg71
g4231
sg64
(lp4238
g57
(g66
g59
NtRp4239
(dp4240
g62
(dp4241
g70
I3
ssg71
Nsg64
(lp4242
g57
(g73
g59
NtRp4243
(dp4244
g62
(dp4245
sg71
g4239
sg64
(lp4246
g57
(g78
g59
NtRp4247
(dp4248
g62
(dp4249
sg71
g4243
sg64
(lp4250
g57
(g58
g59
NtRp4251
(dp4252
g62
(dp4253
g70
I3
ssg71
g4247
sg64
(lp4254
g57
(cgluon.html
SPAN
p4255
g59
NtRp4256
(dp4257
g62
(dp4258
g82
S'color:yellow'
p4259
ssg71
Nsg64
(lp4260
g4130
asbasbasbasbag57
(g73
g59
NtRp4261
(dp4262
g62
(dp4263
sg71
g4239
sg64
(lp4264
g57
(g78
g59
NtRp4265
(dp4266
g62
(dp4267
sg71
g4261
sg64
(lp4268
g57
(g58
g59
NtRp4269
(dp4270
g62
(dp4271
g70
I3
ssg71
g4265
sg64
(lp4272
g100
asbasbasbag57
(g73
g59
NtRp4273
(dp4274
g62
(dp4275
sg71
g4239
sg64
(lp4276
g57
(g78
g59
NtRp4277
(dp4278
g62
(dp4279
sg71
g4273
sg64
(lp4280
g57
(g58
g59
NtRp4281
(dp4282
g62
(dp4283
g70
I3
ssg71
g4277
sg64
(lp4284
S'None'
p4285
asbasbasbag57
(g73
g59
NtRp4286
(dp4287
g62
(dp4288
sg71
g4239
sg64
(lp4289
g57
(g78
g59
NtRp4290
(dp4291
g62
(dp4292
sg71
g4286
sg64
(lp4293
g57
(g58
g59
NtRp4294
(dp4295
g62
(dp4296
g70
I3
ssg71
g4290
sg64
(lp4297
g57
(g66
g59
NtRp4298
(dp4299
g62
(dp4300
g70
I2
ssg71
Nsg64
(lp4301
g57
(g73
g59
NtRp4302
(dp4303
g62
(dp4304
sg71
g4298
sg64
(lp4305
g57
(g78
g59
NtRp4306
(dp4307
g62
(dp4308
sg71
g4302
sg64
(lp4309
g57
(g58
g59
NtRp4310
(dp4311
g62
(dp4312
g70
I2
ssg71
g4306
sg64
(lp4313
g57
(g66
g59
NtRp4314
(dp4315
g62
(dp4316
g70
I1
ssg71
Nsg64
(lp4317
g57
(g73
g59
NtRp4318
(dp4319
g62
(dp4320
sg71
g4314
sg64
(lp4321
g57
(g78
g59
NtRp4322
(dp4323
g62
(dp4324
sg71
g4318
sg64
(lp4325
g57
(g58
g59
NtRp4326
(dp4327
g62
(dp4328
g70
I1
ssg71
g4322
sg64
(lp4329
g4184
(S's\x08\x00\x00\x00My Sites'
tRp4330
asbasbasbag57
(g73
g59
NtRp4331
(dp4332
g62
(dp4333
sg71
g4314
sg64
(lp4334
g57
(g78
g59
NtRp4335
(dp4336
g62
(dp4337
sg71
g4331
sg64
(lp4338
g57
(g58
g59
NtRp4339
(dp4340
g62
(dp4341
g70
I1
ssg71
g4335
sg64
(lp4342
I00
asbasbasbag57
(g73
g59
NtRp4343
(dp4344
g62
(dp4345
sg71
g4314
sg64
(lp4346
g57
(g78
g59
NtRp4347
(dp4348
g62
(dp4349
sg71
g4343
sg64
(lp4350
g57
(g58
g59
NtRp4351
(dp4352
g62
(dp4353
g70
I1
ssg71
g4347
sg64
(lp4354
S'/admin/default/site'
p4355
asbasbasbasbasbasbasbag57
(g73
g59
NtRp4356
(dp4357
g62
(dp4358
sg71
g4298
sg64
(lp4359
g57
(g78
g59
NtRp4360
(dp4361
g62
(dp4362
sg71
g4356
sg64
(lp4363
g57
(g58
g59
NtRp4364
(dp4365
g62
(dp4366
g70
I2
ssg71
g4360
sg64
(lp4367
g57
(g66
g59
NtRp4368
(dp4369
g62
(dp4370
g70
I1
ssg71
Nsg64
(lp4371
g57
(g73
g59
NtRp4372
(dp4373
g62
(dp4374
sg71
g4368
sg64
(lp4375
g57
(g78
g59
NtRp4376
(dp4377
g62
(dp4378
sg71
g4372
sg64
(lp4379
g57
(g58
g59
NtRp4380
(dp4381
g62
(dp4382
g70
I1
ssg71
g4376
sg64
(lp4383
g4184
(S's\x08\x00\x00\x00This App'
tRp4384
asbasbasbag57
(g73
g59
NtRp4385
(dp4386
g62
(dp4387
sg71
g4368
sg64
(lp4388
g57
(g78
g59
NtRp4389
(dp4390
g62
(dp4391
sg71
g4385
sg64
(lp4392
g57
(g58
g59
NtRp4393
(dp4394
g62
(dp4395
g70
I1
ssg71
g4389
sg64
(lp4396
I00
asbasbasbag57
(g73
g59
NtRp4397
(dp4398
g62
(dp4399
sg71
g4368
sg64
(lp4400
g57
(g78
g59
NtRp4401
(dp4402
g62
(dp4403
sg71
g4397
sg64
(lp4404
g57
(g58
g59
NtRp4405
(dp4406
g62
(dp4407
g70
I1
ssg71
g4401
sg64
(lp4408
S'/admin/default/design/FormalSignUp'
p4409
asbasbasbag57
(g73
g59
NtRp4410
(dp4411
g62
(dp4412
sg71
g4368
sg64
(lp4413
g57
(g78
g59
NtRp4414
(dp4415
g62
(dp4416
sg71
g4410
sg64
(lp4417
g57
(g58
g59
NtRp4418
(dp4419
g62
(dp4420
g70
I1
ssg71
g4414
sg64
(lp4421
(lp4422
(g4184
(S't\n\x00\x00\x00Controller'
tRp4423
I00
S'/admin/default/edit/FormalSignUp/controllers/default.py'
tp4424
a(g4184
(S't\x04\x00\x00\x00View'
tRp4425
I00
S'/admin/default/edit/FormalSignUp/views/default/index.html'
tp4426
a(g4184
(S't\x06\x00\x00\x00Layout'
tRp4427
I00
S'/admin/default/edit/FormalSignUp/views/layout.html'
tp4428
a(g4184
(S't\n\x00\x00\x00Stylesheet'
tRp4429
I00
S'/admin/default/edit/FormalSignUp/static/css/web2py.css'
tp4430
a(g4184
(S's\x08\x00\x00\x00DB Model'
tRp4431
I00
S'/admin/default/edit/FormalSignUp/models/db.py'
tp4432
a(g4184
(S's\n\x00\x00\x00Menu Model'
tRp4433
I00
S'/admin/default/edit/FormalSignUp/models/menu.py'
tp4434
a(g4184
(S't\x08\x00\x00\x00Database'
tRp4435
I00
S'/FormalSignUp/appadmin/index'
tp4436
a(g4184
(S't\x06\x00\x00\x00Errors'
tRp4437
I00
S'/admin/default/errors/FormalSignUp'
tp4438
a(g4184
(S't\x05\x00\x00\x00About'
tRp4439
I00
S'/admin/default/about/FormalSignUp'
tp4440
aasbasbasbasbasbasbasbag57
(g73
g59
NtRp4441
(dp4442
g62
(dp4443
sg71
g4298
sg64
(lp4444
g57
(g78
g59
NtRp4445
(dp4446
g62
(dp4447
sg71
g4441
sg64
(lp4448
g57
(g58
g59
NtRp4449
(dp4450
g62
(dp4451
g70
I2
ssg71
g4445
sg64
(lp4452
g57
(g66
g59
NtRp4453
(dp4454
g62
(dp4455
g70
I1
ssg71
Nsg64
(lp4456
g57
(g73
g59
NtRp4457
(dp4458
g62
(dp4459
sg71
g4453
sg64
(lp4460
g57
(g78
g59
NtRp4461
(dp4462
g62
(dp4463
sg71
g4457
sg64
(lp4464
g57
(g58
g59
NtRp4465
(dp4466
g62
(dp4467
g70
I1
ssg71
g4461
sg64
(lp4468
S'web2py.com'
p4469
asbasbasbag57
(g73
g59
NtRp4470
(dp4471
g62
(dp4472
sg71
g4453
sg64
(lp4473
g57
(g78
g59
NtRp4474
(dp4475
g62
(dp4476
sg71
g4470
sg64
(lp4477
g57
(g58
g59
NtRp4478
(dp4479
g62
(dp4480
g70
I1
ssg71
g4474
sg64
(lp4481
I00
asbasbasbag57
(g73
g59
NtRp4482
(dp4483
g62
(dp4484
sg71
g4453
sg64
(lp4485
g57
(g78
g59
NtRp4486
(dp4487
g62
(dp4488
sg71
g4482
sg64
(lp4489
g57
(g58
g59
NtRp4490
(dp4491
g62
(dp4492
g70
I1
ssg71
g4486
sg64
(lp4493
S'http://www.web2py.com'
p4494
asbasbasbag57
(g73
g59
NtRp4495
(dp4496
g62
(dp4497
sg71
g4453
sg64
(lp4498
g57
(g78
g59
NtRp4499
(dp4500
g62
(dp4501
sg71
g4495
sg64
(lp4502
g57
(g58
g59
NtRp4503
(dp4504
g62
(dp4505
g70
I1
ssg71
g4499
sg64
(lp4506
(lp4507
(g4184
(S't\x08\x00\x00\x00Download'
tRp4508
I00
S'http://www.web2py.com/examples/default/download'
p4509
tp4510
a(g4184
(S't\x07\x00\x00\x00Support'
tRp4511
I00
S'http://www.web2py.com/examples/default/support'
p4512
tp4513
a(g4184
(S't\x04\x00\x00\x00Demo'
tRp4514
I00
S'http://web2py.com/demo_admin'
p4515
tp4516
a(g4184
(S's\x0e\x00\x00\x00Quick Examples'
tRp4517
I00
S'http://web2py.com/examples/default/examples'
p4518
tp4519
a(g4184
(S't\x03\x00\x00\x00FAQ'
tRp4520
I00
S'http://web2py.com/AlterEgo'
p4521
tp4522
a(g4184
(S't\x06\x00\x00\x00Videos'
tRp4523
I00
S'http://www.web2py.com/examples/default/videos/'
p4524
tp4525
a(g4184
(S's\x11\x00\x00\x00Free Applications'
tRp4526
I00
S'http://web2py.com/appliances'
p4527
tp4528
a(g4184
(S't\x07\x00\x00\x00Plugins'
tRp4529
I00
S'http://web2py.com/plugins'
p4530
tp4531
a(g4184
(S't\x07\x00\x00\x00Layouts'
tRp4532
I00
S'http://web2py.com/layouts'
p4533
tp4534
a(g4184
(S't\x07\x00\x00\x00Recipes'
tRp4535
I00
S'http://web2pyslices.com/'
p4536
tp4537
a(g4184
(S't\x08\x00\x00\x00Semantic'
tRp4538
I00
S'http://web2py.com/semantic'
p4539
tp4540
aasbasbasbasbasbasbasbag57
(g73
g59
NtRp4541
(dp4542
g62
(dp4543
sg71
g4298
sg64
(lp4544
g57
(g78
g59
NtRp4545
(dp4546
g62
(dp4547
sg71
g4541
sg64
(lp4548
g57
(g58
g59
NtRp4549
(dp4550
g62
(dp4551
g70
I2
ssg71
g4545
sg64
(lp4552
g57
(g66
g59
NtRp4553
(dp4554
g62
(dp4555
g70
I1
ssg71
Nsg64
(lp4556
g57
(g73
g59
NtRp4557
(dp4558
g62
(dp4559
sg71
g4553
sg64
(lp4560
g57
(g78
g59
NtRp4561
(dp4562
g62
(dp4563
sg71
g4557
sg64
(lp4564
g57
(g58
g59
NtRp4565
(dp4566
g62
(dp4567
g70
I1
ssg71
g4561
sg64
(lp4568
g4184
(S't\r\x00\x00\x00Documentation'
tRp4569
asbasbasbag57
(g73
g59
NtRp4570
(dp4571
g62
(dp4572
sg71
g4553
sg64
(lp4573
g57
(g78
g59
NtRp4574
(dp4575
g62
(dp4576
sg71
g4570
sg64
(lp4577
g57
(g58
g59
NtRp4578
(dp4579
g62
(dp4580
g70
I1
ssg71
g4574
sg64
(lp4581
I00
asbasbasbag57
(g73
g59
NtRp4582
(dp4583
g62
(dp4584
sg71
g4553
sg64
(lp4585
g57
(g78
g59
NtRp4586
(dp4587
g62
(dp4588
sg71
g4582
sg64
(lp4589
g57
(g58
g59
NtRp4590
(dp4591
g62
(dp4592
g70
I1
ssg71
g4586
sg64
(lp4593
S'http://www.web2py.com/book'
p4594
asbasbasbag57
(g73
g59
NtRp4595
(dp4596
g62
(dp4597
sg71
g4553
sg64
(lp4598
g57
(g78
g59
NtRp4599
(dp4600
g62
(dp4601
sg71
g4595
sg64
(lp4602
g57
(g58
g59
NtRp4603
(dp4604
g62
(dp4605
g70
I1
ssg71
g4599
sg64
(lp4606
(lp4607
(g4184
(S't\x07\x00\x00\x00Preface'
tRp4608
I00
S'http://www.web2py.com/book/default/chapter/00'
p4609
tp4610
a(g4184
(S't\x0c\x00\x00\x00Introduction'
tRp4611
I00
S'http://www.web2py.com/book/default/chapter/01'
p4612
tp4613
a(g4184
(S't\x06\x00\x00\x00Python'
tRp4614
I00
S'http://www.web2py.com/book/default/chapter/02'
p4615
tp4616
a(g4184
(S't\x08\x00\x00\x00Overview'
tRp4617
I00
S'http://www.web2py.com/book/default/chapter/03'
p4618
tp4619
a(g4184
(S's\x08\x00\x00\x00The Core'
tRp4620
I00
S'http://www.web2py.com/book/default/chapter/04'
p4621
tp4622
a(g4184
(S's\t\x00\x00\x00The Views'
tRp4623
I00
S'http://www.web2py.com/book/default/chapter/05'
p4624
tp4625
a(g4184
(S't\x08\x00\x00\x00Database'
tRp4626
I00
S'http://www.web2py.com/book/default/chapter/06'
p4627
tp4628
a(g4184
(S's\x14\x00\x00\x00Forms and Validators'
tRp4629
I00
S'http://www.web2py.com/book/default/chapter/07'
p4630
tp4631
a(g4184
(S's\r\x00\x00\x00Email and SMS'
tRp4632
I00
S'http://www.web2py.com/book/default/chapter/08'
p4633
tp4634
a(g4184
(S's\x0e\x00\x00\x00Access Control'
tRp4635
I00
S'http://www.web2py.com/book/default/chapter/09'
p4636
tp4637
a(g4184
(S't\x08\x00\x00\x00Services'
tRp4638
I00
S'http://www.web2py.com/book/default/chapter/10'
p4639
tp4640
a(g4184
(S's\x0c\x00\x00\x00Ajax Recipes'
tRp4641
I00
S'http://www.web2py.com/book/default/chapter/11'
p4642
tp4643
a(g4184
(S's\x16\x00\x00\x00Components and Plugins'
tRp4644
I00
S'http://www.web2py.com/book/default/chapter/12'
p4645
tp4646
a(g4184
(S's\x12\x00\x00\x00Deployment Recipes'
tRp4647
I00
S'http://www.web2py.com/book/default/chapter/13'
p4648
tp4649
a(g4184
(S's\r\x00\x00\x00Other Recipes'
tRp4650
I00
S'http://www.web2py.com/book/default/chapter/14'
p4651
tp4652
a(g4184
(S's\r\x00\x00\x00Buy this book'
tRp4653
I00
S'http://stores.lulu.com/web2py'
p4654
tp4655
aasbasbasbasbasbasbasbag57
(g73
g59
NtRp4656
(dp4657
g62
(dp4658
sg71
g4298
sg64
(lp4659
g57
(g78
g59
NtRp4660
(dp4661
g62
(dp4662
sg71
g4656
sg64
(lp4663
g57
(g58
g59
NtRp4664
(dp4665
g62
(dp4666
g70
I2
ssg71
g4660
sg64
(lp4667
g57
(g66
g59
NtRp4668
(dp4669
g62
(dp4670
g70
I1
ssg71
Nsg64
(lp4671
g57
(g73
g59
NtRp4672
(dp4673
g62
(dp4674
sg71
g4668
sg64
(lp4675
g57
(g78
g59
NtRp4676
(dp4677
g62
(dp4678
sg71
g4672
sg64
(lp4679
g57
(g58
g59
NtRp4680
(dp4681
g62
(dp4682
g70
I1
ssg71
g4676
sg64
(lp4683
g4184
(S't\t\x00\x00\x00Community'
tRp4684
asbasbasbag57
(g73
g59
NtRp4685
(dp4686
g62
(dp4687
sg71
g4668
sg64
(lp4688
g57
(g78
g59
NtRp4689
(dp4690
g62
(dp4691
sg71
g4685
sg64
(lp4692
g57
(g58
g59
NtRp4693
(dp4694
g62
(dp4695
g70
I1
ssg71
g4689
sg64
(lp4696
I00
asbasbasbag57
(g73
g59
NtRp4697
(dp4698
g62
(dp4699
sg71
g4668
sg64
(lp4700
g57
(g78
g59
NtRp4701
(dp4702
g62
(dp4703
sg71
g4697
sg64
(lp4704
g57
(g58
g59
NtRp4705
(dp4706
g62
(dp4707
g70
I1
ssg71
g4701
sg64
(lp4708
Nasbasbasbag57
(g73
g59
NtRp4709
(dp4710
g62
(dp4711
sg71
g4668
sg64
(lp4712
g57
(g78
g59
NtRp4713
(dp4714
g62
(dp4715
sg71
g4709
sg64
(lp4716
g57
(g58
g59
NtRp4717
(dp4718
g62
(dp4719
g70
I1
ssg71
g4713
sg64
(lp4720
(lp4721
(g4184
(S't\x06\x00\x00\x00Groups'
tRp4722
I00
S'http://www.web2py.com/examples/default/usergroups'
p4723
tp4724
a(g4184
(S't\x07\x00\x00\x00Twitter'
tRp4725
I00
S'http://twitter.com/web2py'
p4726
tp4727
a(g4184
(S's\t\x00\x00\x00Live Chat'
tRp4728
I00
S'http://webchat.freenode.net/?channels=web2py'
p4729
tp4730
aasbasbasbasbasbasbasbag57
(g73
g59
NtRp4731
(dp4732
g62
(dp4733
sg71
g4298
sg64
(lp4734
g57
(g78
g59
NtRp4735
(dp4736
g62
(dp4737
sg71
g4731
sg64
(lp4738
g57
(g58
g59
NtRp4739
(dp4740
g62
(dp4741
g70
I2
ssg71
g4735
sg64
(lp4742
g57
(g66
g59
NtRp4743
(dp4744
g62
(dp4745
g70
I1
ssg71
Nsg64
(lp4746
g57
(g73
g59
NtRp4747
(dp4748
g62
(dp4749
sg71
g4743
sg64
(lp4750
g57
(g78
g59
NtRp4751
(dp4752
g62
(dp4753
sg71
g4747
sg64
(lp4754
g57
(g58
g59
NtRp4755
(dp4756
g62
(dp4757
g70
I1
ssg71
g4751
sg64
(lp4758
g4184
(S't\x07\x00\x00\x00Plugins'
tRp4759
asbasbasbag57
(g73
g59
NtRp4760
(dp4761
g62
(dp4762
sg71
g4743
sg64
(lp4763
g57
(g78
g59
NtRp4764
(dp4765
g62
(dp4766
sg71
g4760
sg64
(lp4767
g57
(g58
g59
NtRp4768
(dp4769
g62
(dp4770
g70
I1
ssg71
g4764
sg64
(lp4771
I00
asbasbasbag57
(g73
g59
NtRp4772
(dp4773
g62
(dp4774
sg71
g4743
sg64
(lp4775
g57
(g78
g59
NtRp4776
(dp4777
g62
(dp4778
sg71
g4772
sg64
(lp4779
g57
(g58
g59
NtRp4780
(dp4781
g62
(dp4782
g70
I1
ssg71
g4776
sg64
(lp4783
Nasbasbasbag57
(g73
g59
NtRp4784
(dp4785
g62
(dp4786
sg71
g4743
sg64
(lp4787
g57
(g78
g59
NtRp4788
(dp4789
g62
(dp4790
sg71
g4784
sg64
(lp4791
g57
(g58
g59
NtRp4792
(dp4793
g62
(dp4794
g70
I1
ssg71
g4788
sg64
(lp4795
(lp4796
(S'plugin_wiki'
p4797
I00
S'http://web2py.com/examples/default/download'
p4798
tp4799
a(g4184
(S's\r\x00\x00\x00Other Plugins'
tRp4800
I00
g4530
tp4801
a(g4184
(S's\x0e\x00\x00\x00Layout Plugins'
tRp4802
I00
g4533
tp4803
aasbasbasbasbasbasbasbasbasbasbasbasbasbasbasbasbasbasbasbag57
(g73
g59
NtRp4804
(dp4805
g62
(dp4806
sg71
g3679
sg64
(lp4807
g57
(g78
g59
NtRp4808
(dp4809
g62
(dp4810
g82
g83
ssg71
g4804
sg64
(lp4811
S'meta'
p4812
asbag57
(g78
g59
NtRp4813
(dp4814
g62
(dp4815
g89
g90
ssg71
g4804
sg64
(lp4816
S':'
asbag57
(g78
g59
NtRp4817
(dp4818
g62
(dp4819
sg71
g4804
sg64
(lp4820
g57
(g58
g59
NtRp4821
(dp4822
g62
(dp4823
g70
I5
ssg71
g4817
sg64
(lp4824
g57
(g66
g59
NtRp4825
(dp4826
g62
(dp4827
g70
I4
ssg71
Nsg64
(lp4828
g57
(g73
g59
NtRp4829
(dp4830
g62
(dp4831
sg71
g4825
sg64
(lp4832
g57
(g78
g59
NtRp4833
(dp4834
g62
(dp4835
g82
g83
ssg71
g4829
sg64
(lp4836
S'author'
p4837
asbag57
(g78
g59
NtRp4838
(dp4839
g62
(dp4840
g89
g90
ssg71
g4829
sg64
(lp4841
S':'
asbag57
(g78
g59
NtRp4842
(dp4843
g62
(dp4844
sg71
g4829
sg64
(lp4845
g57
(g58
g59
NtRp4846
(dp4847
g62
(dp4848
g70
I4
ssg71
g4842
sg64
(lp4849
S'Your Name <you@example.com>'
p4850
asbasbasbag57
(g73
g59
NtRp4851
(dp4852
g62
(dp4853
sg71
g4825
sg64
(lp4854
g57
(g78
g59
NtRp4855
(dp4856
g62
(dp4857
g82
g83
ssg71
g4851
sg64
(lp4858
S'copyright'
p4859
asbag57
(g78
g59
NtRp4860
(dp4861
g62
(dp4862
g89
g90
ssg71
g4851
sg64
(lp4863
S':'
asbag57
(g78
g59
NtRp4864
(dp4865
g62
(dp4866
sg71
g4851
sg64
(lp4867
g57
(g58
g59
NtRp4868
(dp4869
g62
(dp4870
g70
I4
ssg71
g4864
sg64
(lp4871
S'Copyright 2011'
p4872
asbasbasbag57
(g73
g59
NtRp4873
(dp4874
g62
(dp4875
sg71
g4825
sg64
(lp4876
g57
(g78
g59
NtRp4877
(dp4878
g62
(dp4879
g82
g83
ssg71
g4873
sg64
(lp4880
S'description'
p4881
asbag57
(g78
g59
NtRp4882
(dp4883
g62
(dp4884
g89
g90
ssg71
g4873
sg64
(lp4885
S':'
asbag57
(g78
g59
NtRp4886
(dp4887
g62
(dp4888
sg71
g4873
sg64
(lp4889
g57
(g58
g59
NtRp4890
(dp4891
g62
(dp4892
g70
I4
ssg71
g4886
sg64
(lp4893
S'a cool new app'
p4894
asbasbasbag57
(g73
g59
NtRp4895
(dp4896
g62
(dp4897
sg71
g4825
sg64
(lp4898
g57
(g78
g59
NtRp4899
(dp4900
g62
(dp4901
g82
g83
ssg71
g4895
sg64
(lp4902
S'generator'
p4903
asbag57
(g78
g59
NtRp4904
(dp4905
g62
(dp4906
g89
g90
ssg71
g4895
sg64
(lp4907
S':'
asbag57
(g78
g59
NtRp4908
(dp4909
g62
(dp4910
sg71
g4895
sg64
(lp4911
g57
(g58
g59
NtRp4912
(dp4913
g62
(dp4914
g70
I4
ssg71
g4908
sg64
(lp4915
S'Web2py Web Framework'
p4916
asbasbasbag57
(g73
g59
NtRp4917
(dp4918
g62
(dp4919
sg71
g4825
sg64
(lp4920
g57
(g78
g59
NtRp4921
(dp4922
g62
(dp4923
g82
g83
ssg71
g4917
sg64
(lp4924
S'keywords'
p4925
asbag57
(g78
g59
NtRp4926
(dp4927
g62
(dp4928
g89
g90
ssg71
g4917
sg64
(lp4929
S':'
asbag57
(g78
g59
NtRp4930
(dp4931
g62
(dp4932
sg71
g4917
sg64
(lp4933
g57
(g58
g59
NtRp4934
(dp4935
g62
(dp4936
g70
I4
ssg71
g4930
sg64
(lp4937
S'web2py, python, framework'
p4938
asbasbasbasbasbasbasbag57
(g73
g59
NtRp4939
(dp4940
g62
(dp4941
sg71
g3679
sg64
(lp4942
g57
(g78
g59
NtRp4943
(dp4944
g62
(dp4945
g82
g83
ssg71
g4939
sg64
(lp4946
S'postprocessing'
p4947
asbag57
(g78
g59
NtRp4948
(dp4949
g62
(dp4950
g89
g90
ssg71
g4939
sg64
(lp4951
S':'
asbag57
(g78
g59
NtRp4952
(dp4953
g62
(dp4954
sg71
g4939
sg64
(lp4955
g57
(g58
g59
NtRp4956
(dp4957
g62
(dp4958
g70
I5
ssg71
g4952
sg64
(lp4959
g57
(g66
g59
NtRp4960
(dp4961
g62
(dp4962
g70
I4
ssg71
Nsg64
(lp4963
sbasbasbasbag57
(g73
g59
NtRp4964
(dp4965
g62
(dp4966
sg71
g3679
sg64
(lp4967
g57
(g78
g59
NtRp4968
(dp4969
g62
(dp4970
g82
g83
ssg71
g4964
sg64
(lp4971
S'session_filename'
p4972
asbag57
(g78
g59
NtRp4973
(dp4974
g62
(dp4975
g89
g90
ssg71
g4964
sg64
(lp4976
S':'
asbag57
(g78
g59
NtRp4977
(dp4978
g62
(dp4979
sg71
g4964
sg64
(lp4980
g57
(g58
g59
NtRp4981
(dp4982
g62
(dp4983
g70
I5
ssg71
g4977
sg64
(lp4984
S'/home/shaz/Documents/Development/web2py/applications/FormalSignUp/sessions/127.0.0.1-e57e8aeb-1e79-44c0-a766-e0b4a089f312'
p4985
asbasbasbag57
(g73
g59
NtRp4986
(dp4987
g62
(dp4988
sg71
g3679
sg64
(lp4989
g57
(g78
g59
NtRp4990
(dp4991
g62
(dp4992
g82
g83
ssg71
g4986
sg64
(lp4993
S'session_id'
p4994
asbag57
(g78
g59
NtRp4995
(dp4996
g62
(dp4997
g89
g90
ssg71
g4986
sg64
(lp4998
S':'
asbag57
(g78
g59
NtRp4999
(dp5000
g62
(dp5001
sg71
g4986
sg64
(lp5002
g57
(g58
g59
NtRp5003
(dp5004
g62
(dp5005
g70
I5
ssg71
g4999
sg64
(lp5006
S'127.0.0.1-e57e8aeb-1e79-44c0-a766-e0b4a089f312'
p5007
asbasbasbag57
(g73
g59
NtRp5008
(dp5009
g62
(dp5010
sg71
g3679
sg64
(lp5011
g57
(g78
g59
NtRp5012
(dp5013
g62
(dp5014
g82
g83
ssg71
g5008
sg64
(lp5015
S'session_id_name'
p5016
asbag57
(g78
g59
NtRp5017
(dp5018
g62
(dp5019
g89
g90
ssg71
g5008
sg64
(lp5020
S':'
asbag57
(g78
g59
NtRp5021
(dp5022
g62
(dp5023
sg71
g5008
sg64
(lp5024
g57
(g58
g59
NtRp5025
(dp5026
g62
(dp5027
g70
I5
ssg71
g5021
sg64
(lp5028
g3736
asbasbasbag57
(g73
g59
NtRp5029
(dp5030
g62
(dp5031
sg71
g3679
sg64
(lp5032
g57
(g78
g59
NtRp5033
(dp5034
g62
(dp5035
g82
g83
ssg71
g5029
sg64
(lp5036
S'session_new'
p5037
asbag57
(g78
g59
NtRp5038
(dp5039
g62
(dp5040
g89
g90
ssg71
g5029
sg64
(lp5041
S':'
asbag57
(g78
g59
NtRp5042
(dp5043
g62
(dp5044
sg71
g5029
sg64
(lp5045
g57
(g58
g59
NtRp5046
(dp5047
g62
(dp5048
g70
I5
ssg71
g5042
sg64
(lp5049
g2233
asbasbasbag57
(g73
g59
NtRp5050
(dp5051
g62
(dp5052
sg71
g3679
sg64
(lp5053
g57
(g78
g59
NtRp5054
(dp5055
g62
(dp5056
g82
g83
ssg71
g5050
sg64
(lp5057
S'status'
p5058
asbag57
(g78
g59
NtRp5059
(dp5060
g62
(dp5061
g89
g90
ssg71
g5050
sg64
(lp5062
S':'
asbag57
(g78
g59
NtRp5063
(dp5064
g62
(dp5065
sg71
g5050
sg64
(lp5066
g57
(g58
g59
NtRp5067
(dp5068
g62
(dp5069
g70
I5
ssg71
g5063
sg64
(lp5070
S'200'
p5071
asbasbasbag57
(g73
g59
NtRp5072
(dp5073
g62
(dp5074
sg71
g3679
sg64
(lp5075
g57
(g78
g59
NtRp5076
(dp5077
g62
(dp5078
g82
g83
ssg71
g5072
sg64
(lp5079
S'subtitle'
p5080
asbag57
(g78
g59
NtRp5081
(dp5082
g62
(dp5083
g89
g90
ssg71
g5072
sg64
(lp5084
S':'
asbag57
(g78
g59
NtRp5085
(dp5086
g62
(dp5087
sg71
g5072
sg64
(lp5088
g57
(g58
g59
NtRp5089
(dp5090
g62
(dp5091
g70
I5
ssg71
g5085
sg64
(lp5092
g4184
(S's\r\x00\x00\x00customize me!'
tRp5093
asbasbasbag57
(g73
g59
NtRp5094
(dp5095
g62
(dp5096
sg71
g3679
sg64
(lp5097
g57
(g78
g59
NtRp5098
(dp5099
g62
(dp5100
g82
g83
ssg71
g5094
sg64
(lp5101
S'title'
p5102
asbag57
(g78
g59
NtRp5103
(dp5104
g62
(dp5105
g89
g90
ssg71
g5094
sg64
(lp5106
S':'
asbag57
(g78
g59
NtRp5107
(dp5108
g62
(dp5109
sg71
g5094
sg64
(lp5110
g57
(g58
g59
NtRp5111
(dp5112
g62
(dp5113
g70
I5
ssg71
g5107
sg64
(lp5114
S'Formalsignup'
p5115
asbasbasbag57
(g73
g59
NtRp5116
(dp5117
g62
(dp5118
sg71
g3679
sg64
(lp5119
g57
(g78
g59
NtRp5120
(dp5121
g62
(dp5122
g82
g83
ssg71
g5116
sg64
(lp5123
g2897
asbag57
(g78
g59
NtRp5124
(dp5125
g62
(dp5126
g89
g90
ssg71
g5116
sg64
(lp5127
S':'
asbag57
(g78
g59
NtRp5128
(dp5129
g62
(dp5130
sg71
g5116
sg64
(lp5131
g57
(g58
g59
NtRp5132
(dp5133
g62
(dp5134
g70
I5
ssg71
g5128
sg64
(lp5135
g2910
asbasbasbag57
(g73
g59
NtRp5136
(dp5137
g62
(dp5138
sg71
g3679
sg64
(lp5139
g57
(g78
g59
NtRp5140
(dp5141
g62
(dp5142
g82
g83
ssg71
g5136
sg64
(lp5143
S'view'
p5144
asbag57
(g78
g59
NtRp5145
(dp5146
g62
(dp5147
g89
g90
ssg71
g5136
sg64
(lp5148
S':'
asbag57
(g78
g59
NtRp5149
(dp5150
g62
(dp5151
sg71
g5136
sg64
(lp5152
g57
(g58
g59
NtRp5153
(dp5154
g62
(dp5155
g70
I5
ssg71
g5149
sg64
(lp5156
S'default/index.html'
p5157
asbasbasbasbasbsS'locals'
p5158
(dp5159
S'fromlist'
p5160
S"['SignUpController']"
p5161
sS'e'
S'NameError("name \'user_list\' is not defined",)'
p5162
sS'name'
p5163
S"'applications.FormalSignUp.modules'"
p5164
sg70
S'-1'
p5165
sS'self'
p5166
S'<gluon.custom_import._Web2pyDateTrackerImporter object>'
p5167
sS'globals'
p5168
S"{'A': <class 'gluon.html.A'>, 'Auth': <class 'gluon.tools.Auth'>, 'B': <class 'gluon.html.B'>, 'BEAUTIFY': <class 'gluon.html.BEAUTIFY'>, 'BODY': <class 'gluon.html.BODY'>, 'BR': <class 'gluon.html.BR'>, 'BUTTON': <class 'gluon.html.BUTTON'>, 'CAT': <class 'gluon.html.CAT'>, 'CENTER': <class 'gluon.html.CENTER'>, 'CLEANUP': <class 'gluon.validators.CLEANUP'>, ...}"
p5169
sS'call_begin_end'
p5170
g100
sg5158
S"{'A': <class 'gluon.html.A'>, 'Auth': <class 'gluon.tools.Auth'>, 'B': <class 'gluon.html.B'>, 'BEAUTIFY': <class 'gluon.html.BEAUTIFY'>, 'BODY': <class 'gluon.html.BODY'>, 'BR': <class 'gluon.html.BR'>, 'BUTTON': <class 'gluon.html.BUTTON'>, 'CAT': <class 'gluon.html.CAT'>, 'CENTER': <class 'gluon.html.CENTER'>, 'CLEANUP': <class 'gluon.validators.CLEANUP'>, ...}"
p5171
sssS'traceback'
p5172
S'Traceback (most recent call last):\n  File "/home/shaz/Documents/Development/web2py/gluon/restricted.py", line 204, in restricted\n    exec ccode in environment\n  File "/home/shaz/Documents/Development/web2py/applications/FormalSignUp/controllers/default.py", line 13, in <module>\n    import SignUpController\n  File "/home/shaz/Documents/Development/web2py/gluon/custom_import.py", line 284, in __call__\n    globals, locals, fromlist, level)\n  File "/home/shaz/Documents/Development/web2py/gluon/custom_import.py", line 312, in __import__dot\n    locals, [name], level)\n  File "/home/shaz/Documents/Development/web2py/gluon/custom_import.py", line 132, in __call__\n    raise e  # Don\'t hide something that went wrong\nNameError: name \'user_list\' is not defined\n'
p5173
s.